; Listing generated by Microsoft (R) Optimizing Compiler Version 19.28.29335.0 

	TTL	c:\users\ws103\desktop\zlib-1.2.11\gzclose.c
	ARM64

	AREA	|.drectve|, DRECTVE


	AREA	|.data|, DATA
	 COMMON	|?_OptionsStorage@?1??__local_stdio_scanf_options@@9@9|, 0x8
							; `__local_stdio_scanf_options'::`2'::_OptionsStorage
	 COMMON	|?_OptionsStorage@?1??__local_stdio_printf_options@@9@9|, 0x8
							; `__local_stdio_printf_options'::`2'::_OptionsStorage
	EXPORT	|gzclose|
; Function compile flags: /Ogtp
; File C:\Users\ws103\Desktop\zlib-1.2.11\gzclose.c

	AREA	|.text$mn|, CODE, ARM64

  00000		 |gzclose| PROC

; 14   : #ifndef NO_GZCOMPRESS
; 15   :     gz_statep state;
; 16   : 
; 17   :     if (file == NULL)

  00000	b5000000	 cbnz        x0,|$LN2@gzclose|

; 18   :         return Z_STREAM_ERROR;

  00004	12800020	 mov         w0,#-2
  00008	d65f03c0	 ret
  0000c		 |$LN2@gzclose|

; 19   :     state = (gz_statep)file;
; 20   : 
; 21   :     return state->mode == GZ_READ ? gzclose_r(file) : gzclose_w(file);

  0000c	b9401808	 ldr         w8,[x0,#0x18]
  00010	528389e9	 mov         w9,#0x1C4F
  00014	6b09011f	 cmp         w8,w9
  00018	54000001	 bne         |$LN4@gzclose|
  0001c	14000000	 b           gzclose_r
  00020		 |$LN4@gzclose|
  00020	14000000	 b           gzclose_w

			 ENDP  ; |gzclose|

	END
