; Listing generated by Microsoft (R) Optimizing Compiler Version 19.28.29335.0 

	TTL	c:\users\ws103\desktop\zlib-1.2.11\contrib\minizip\ioapi.c
	ARM64

	AREA	|.drectve|, DRECTVE

	EXPORT	|??_C@_02JDPG@rb@| [ DATA ]		; `string'
	EXPORT	|??_C@_03HMFOOINA@r?$CLb@| [ DATA ]	; `string'
	EXPORT	|??_C@_02GMLFBBN@wb@| [ DATA ]		; `string'
	IMPORT	|__imp__fseeki64|
	IMPORT	|__imp_fread|
	IMPORT	|__imp__ftelli64|
	IMPORT	|__imp_fwrite|
	IMPORT	|__imp_fseek|
	IMPORT	|__imp_fclose|
	IMPORT	|__imp_fopen|
	IMPORT	|__imp_ferror|
	IMPORT	|__imp_ftell|

	AREA	|.rdata|, DATA, READONLY
|??_C@_02GMLFBBN@wb@| DCB "wb", 0x0			; `string'

	AREA	|.rdata|, DATA, READONLY
|??_C@_03HMFOOINA@r?$CLb@| DCB "r+b", 0x0		; `string'

	AREA	|.rdata|, DATA, READONLY
|??_C@_02JDPG@rb@| DCB "rb", 0x0			; `string'
	EXPORT	|fill_fopen64_filefunc|
	EXPORT	|fill_fopen_filefunc|
	EXPORT	|fill_zlib_filefunc64_32_def_from_filefunc32|
	EXPORT	|call_ztell64|
	EXPORT	|call_zseek64|
	EXPORT	|call_zopen64|

	AREA	|.pdata|, PDATA
|$pdata$fseek64_file_func| DCD imagerel |fseek64_file_func|
	DCD	imagerel |$unwind$fseek64_file_func|

	AREA	|.pdata|, PDATA
|$pdata$fseek_file_func| DCD imagerel |fseek_file_func|
	DCD	imagerel |$unwind$fseek_file_func|

	AREA	|.pdata|, PDATA
|$pdata$fwrite_file_func| DCD imagerel |fwrite_file_func|
	DCD	0xe00031
	;Flags[SingleProEpi] functionLength[48] RegF[0] RegI[0] H[0] frameChainReturn[Chained] frameSize[16]

	AREA	|.pdata|, PDATA
|$pdata$fread_file_func| DCD imagerel |fread_file_func|
	DCD	0xe00031
	;Flags[SingleProEpi] functionLength[48] RegF[0] RegI[0] H[0] frameChainReturn[Chained] frameSize[16]

	AREA	|.pdata|, PDATA
|$pdata$call_ztell64| DCD imagerel |$LN8|
	DCD	imagerel |$unwind$call_ztell64|

	AREA	|.xdata|, DATA
|$unwind$call_ztell64| DCD 0x8c00014
	DCD	0x400008
	DCD	0x40000f
	DCD	0x400012
	DCD	0xe3e481e1
	;Code Words[1], Epilog Count[3], E[0], X[0], Function Length[20]=80 bytes
	;Epilog Start Index[1], Epilog Start Offset[8]=32 bytes
	;Epilog Start Index[1], Epilog Start Offset[15]=60 bytes
	;Epilog Start Index[1], Epilog Start Offset[18]=72 bytes
	;set_fp
	;save_fplr_x
	;end
	;nop

	AREA	|.xdata|, DATA
|$unwind$fseek_file_func| DCD 0x8800018
	DCD	0x40000a
	DCD	0x400016
	DCD	0xe3e481e1
	;Code Words[1], Epilog Count[2], E[0], X[0], Function Length[24]=96 bytes
	;Epilog Start Index[1], Epilog Start Offset[10]=40 bytes
	;Epilog Start Index[1], Epilog Start Offset[22]=88 bytes
	;set_fp
	;save_fplr_x
	;end
	;nop

	AREA	|.xdata|, DATA
|$unwind$fseek64_file_func| DCD 0x8800018
	DCD	0x40000a
	DCD	0x400016
	DCD	0xe3e481e1
	;Code Words[1], Epilog Count[2], E[0], X[0], Function Length[24]=96 bytes
	;Epilog Start Index[1], Epilog Start Offset[10]=40 bytes
	;Epilog Start Index[1], Epilog Start Offset[22]=88 bytes
	;set_fp
	;save_fplr_x
	;end
	;nop
; Function compile flags: /Ogtp
; File C:\Users\ws103\Desktop\zlib-1.2.11\contrib\minizip\ioapi.c

	AREA	|.text$mn|, CODE, ARM64

  00000		 |call_zopen64| PROC

; 32   : {

  00000	aa0003e8	 mov         x8,x0

; 33   :     if (pfilefunc->zfile_func64.zopen64_file != NULL)

  00004	f9400109	 ldr         x9,[x8]
  00008	f9401d00	 ldr         x0,[x8,#0x38]
  0000c	b4000009	 cbz         x9,|$LN2@call_zopen|

; 34   :         return (*(pfilefunc->zfile_func64.zopen64_file)) (pfilefunc->zfile_func64.opaque,filename,mode);

  00010	d61f0120	 br          x9
  00014		 |$LN2@call_zopen|

; 35   :     else
; 36   :     {
; 37   :         return (*(pfilefunc->zopen32_file))(pfilefunc->zfile_func64.opaque,(const char*)filename,mode);

  00014	f9402108	 ldr         x8,[x8,#0x40]
  00018	d61f0100	 br          x8

			 ENDP  ; |call_zopen64|

; Function compile flags: /Ogtp
; File C:\Users\ws103\Desktop\zlib-1.2.11\contrib\minizip\ioapi.c

	AREA	|.text$mn|, CODE, ARM64

  00000		 |call_zseek64| PROC

; 42   : {

  00000	aa0003e9	 mov         x9,x0

; 43   :     if (pfilefunc->zfile_func64.zseek64_file != NULL)

  00004	f9401128	 ldr         x8,[x9,#0x20]
  00008	b4000008	 cbz         x8,|$LN2@call_zseek|

; 44   :         return (*(pfilefunc->zfile_func64.zseek64_file)) (pfilefunc->zfile_func64.opaque,filestream,offset,origin);

  0000c	f9401d20	 ldr         x0,[x9,#0x38]
  00010	d61f0100	 br          x8
  00014		 |$LN2@call_zseek|

; 45   :     else
; 46   :     {
; 47   :         uLong offsetTruncated = (uLong)offset;
; 48   :         if (offsetTruncated != offset)

  00014	eb22405f	 cmp         x2,w2,uxtw #0
  00018	54000000	 beq         |$LN4@call_zseek|

; 49   :             return -1;

  0001c	12800000	 mov         w0,#-1
  00020	d65f03c0	 ret
  00024		 |$LN4@call_zseek|

; 50   :         else
; 51   :             return (*(pfilefunc->zseek32_file))(pfilefunc->zfile_func64.opaque,filestream,offsetTruncated,origin);

  00024	f9401d20	 ldr         x0,[x9,#0x38]
  00028	f9402928	 ldr         x8,[x9,#0x50]
  0002c	d61f0100	 br          x8

			 ENDP  ; |call_zseek64|

; Function compile flags: /Ogtp
; File C:\Users\ws103\Desktop\zlib-1.2.11\contrib\minizip\ioapi.c

	AREA	|.text$mn|, CODE, ARM64

  00000		 |call_ztell64| PROC

; 56   : {

  00000		 |$LN8|
  00000	a9bf7bfd	 stp         fp,lr,[sp,#-0x10]!
  00004	910003fd	 mov         fp,sp
  00008	aa0003e9	 mov         x9,x0

; 57   :     if (pfilefunc->zfile_func64.zseek64_file != NULL)

  0000c	f9401d20	 ldr         x0,[x9,#0x38]
  00010	f9401128	 ldr         x8,[x9,#0x20]
  00014	b4000008	 cbz         x8,|$LN2@call_ztell|

; 58   :         return (*(pfilefunc->zfile_func64.ztell64_file)) (pfilefunc->zfile_func64.opaque,filestream);

  00018	f9400d28	 ldr         x8,[x9,#0x18]
  0001c	d63f0100	 blr         x8
  00020	a8c17bfd	 ldp         fp,lr,[sp],#0x10
  00024	d65f03c0	 ret
  00028		 |$LN2@call_ztell|

; 59   :     else
; 60   :     {
; 61   :         uLong tell_uLong = (*(pfilefunc->ztell32_file))(pfilefunc->zfile_func64.opaque,filestream);

  00028	f9402528	 ldr         x8,[x9,#0x48]
  0002c	d63f0100	 blr         x8

; 62   :         if ((tell_uLong) == MAXU32)

  00030	3100041f	 cmn         w0,#1
  00034	54000001	 bne         |$LN4@call_ztell|

; 63   :             return (ZPOS64_T)-1;

  00038	92800000	 mov         x0,#-1
  0003c	a8c17bfd	 ldp         fp,lr,[sp],#0x10
  00040	d65f03c0	 ret
  00044		 |$LN4@call_ztell|

; 64   :         else
; 65   :             return tell_uLong;

  00044	d3407c00	 uxtw        x0,w0
  00048	a8c17bfd	 ldp         fp,lr,[sp],#0x10
  0004c	d65f03c0	 ret

			 ENDP  ; |call_ztell64|

; Function compile flags: /Ogtp
; File C:\Users\ws103\Desktop\zlib-1.2.11\contrib\minizip\ioapi.c

	AREA	|.text$mn|, CODE, ARM64

  00000		 |fill_zlib_filefunc64_32_def_from_filefunc32| PROC

; 71   :     p_filefunc64_32->zfile_func64.zopen64_file = NULL;
; 72   :     p_filefunc64_32->zopen32_file = p_filefunc32->zopen_file;

  00000	a9402428	 ldp         x8,x9,[x1]
  00004	a900241f	 stp         xzr,x9,[x0]

; 73   :     p_filefunc64_32->zfile_func64.zerror_file = p_filefunc32->zerror_file;
; 74   :     p_filefunc64_32->zfile_func64.zread_file = p_filefunc32->zread_file;
; 75   :     p_filefunc64_32->zfile_func64.zwrite_file = p_filefunc32->zwrite_file;
; 76   :     p_filefunc64_32->zfile_func64.ztell64_file = NULL;
; 77   :     p_filefunc64_32->zfile_func64.zseek64_file = NULL;
; 78   :     p_filefunc64_32->zfile_func64.zclose_file = p_filefunc32->zclose_file;
; 79   :     p_filefunc64_32->zfile_func64.zerror_file = p_filefunc32->zerror_file;

  00008	f9401829	 ldr         x9,[x1,#0x30]
  0000c	a901fc1f	 stp         xzr,xzr,[x0,#0x18]
  00010	f9002008	 str         x8,[x0,#0x40]
  00014	f9400828	 ldr         x8,[x1,#0x10]
  00018	f9001809	 str         x9,[x0,#0x30]

; 80   :     p_filefunc64_32->zfile_func64.opaque = p_filefunc32->opaque;
; 81   :     p_filefunc64_32->zseek32_file = p_filefunc32->zseek_file;

  0001c	f9401029	 ldr         x9,[x1,#0x20]
  00020	f9000808	 str         x8,[x0,#0x10]
  00024	f9401428	 ldr         x8,[x1,#0x28]
  00028	f9002809	 str         x9,[x0,#0x50]
  0002c	f9001408	 str         x8,[x0,#0x28]
  00030	f9401c28	 ldr         x8,[x1,#0x38]
  00034	f9001c08	 str         x8,[x0,#0x38]

; 82   :     p_filefunc64_32->ztell32_file = p_filefunc32->ztell_file;

  00038	f9400c28	 ldr         x8,[x1,#0x18]
  0003c	f9002408	 str         x8,[x0,#0x48]
  00040	d65f03c0	 ret

			 ENDP  ; |fill_zlib_filefunc64_32_def_from_filefunc32|

; Function compile flags: /Ogtp
; File C:\Users\ws103\Desktop\zlib-1.2.11\contrib\minizip\ioapi.c

	AREA	|.text$mn|, CODE, ARM64

  00000		 |fopen_file_func| PROC

; 97   :     FILE* file = NULL;
; 98   :     const char* mode_fopen = NULL;
; 99   :     if ((mode & ZLIB_FILEFUNC_MODE_READWRITEFILTER)==ZLIB_FILEFUNC_MODE_READ)

  00000	12000448	 and         w8,w2,#3
  00004	7100051f	 cmp         w8,#1
  00008	aa0103e9	 mov         x9,x1
  0000c	d2800000	 mov         x0,#0
  00010	54000001	 bne         |$LN2@fopen_file|

; 100  :         mode_fopen = "rb";

  00014	90000008	 adrp        x8,|??_C@_02JDPG@rb@|
  00018	91000101	 add         x1,x8,PageOffset(|??_C@_02JDPG@rb@|)
  0001c	14000009	 b           |$LN6@fopen_file|
  00020		 |$LN2@fopen_file|

; 101  :     else
; 102  :     if (mode & ZLIB_FILEFUNC_MODE_EXISTING)

  00020	36100002	 tbz         x2,#2,|$LN4@fopen_file|

; 103  :         mode_fopen = "r+b";

  00024	90000008	 adrp        x8,|??_C@_03HMFOOINA@r?$CLb@|
  00028	91000101	 add         x1,x8,PageOffset(|??_C@_03HMFOOINA@r?$CLb@|)
  0002c	14000005	 b           |$LN6@fopen_file|
  00030		 |$LN4@fopen_file|

; 104  :     else
; 105  :     if (mode & ZLIB_FILEFUNC_MODE_CREATE)

  00030	90000008	 adrp        x8,|??_C@_02GMLFBBN@wb@|
  00034	91000108	 add         x8,x8,PageOffset(|??_C@_02GMLFBBN@wb@|)
  00038	721d005f	 tst         w2,#8
  0003c	9a9f1101	 cselne      x1,x8,xzr
  00040		 |$LN6@fopen_file|

; 106  :         mode_fopen = "wb";
; 107  : 
; 108  :     if ((filename!=NULL) && (mode_fopen != NULL))

  00040	b4000009	 cbz         x9,|$LN7@fopen_file|
  00044	b4000001	 cbz         x1,|$LN7@fopen_file|

; 109  :         file = fopen(filename, mode_fopen);

  00048	90000008	 adrp        x8,__imp_fopen
  0004c	f9400108	 ldr         x8,[x8,PageOffset(__imp_fopen)]
  00050	aa0903e0	 mov         x0,x9
  00054	d61f0100	 br          x8
  00058		 |$LN7@fopen_file|
  00058	d65f03c0	 ret

			 ENDP  ; |fopen_file_func|

; Function compile flags: /Ogtp
; File C:\Users\ws103\Desktop\zlib-1.2.11\contrib\minizip\ioapi.c

	AREA	|.text$mn|, CODE, ARM64

  00000		 |fopen64_file_func| PROC

; 115  :     FILE* file = NULL;
; 116  :     const char* mode_fopen = NULL;
; 117  :     if ((mode & ZLIB_FILEFUNC_MODE_READWRITEFILTER)==ZLIB_FILEFUNC_MODE_READ)

  00000	12000448	 and         w8,w2,#3
  00004	7100051f	 cmp         w8,#1
  00008	aa0103e9	 mov         x9,x1
  0000c	d2800000	 mov         x0,#0
  00010	54000001	 bne         |$LN2@fopen64_fi|

; 118  :         mode_fopen = "rb";

  00014	90000008	 adrp        x8,|??_C@_02JDPG@rb@|
  00018	91000101	 add         x1,x8,PageOffset(|??_C@_02JDPG@rb@|)
  0001c	14000009	 b           |$LN6@fopen64_fi|
  00020		 |$LN2@fopen64_fi|

; 119  :     else
; 120  :     if (mode & ZLIB_FILEFUNC_MODE_EXISTING)

  00020	36100002	 tbz         x2,#2,|$LN4@fopen64_fi|

; 121  :         mode_fopen = "r+b";

  00024	90000008	 adrp        x8,|??_C@_03HMFOOINA@r?$CLb@|
  00028	91000101	 add         x1,x8,PageOffset(|??_C@_03HMFOOINA@r?$CLb@|)
  0002c	14000005	 b           |$LN6@fopen64_fi|
  00030		 |$LN4@fopen64_fi|

; 122  :     else
; 123  :     if (mode & ZLIB_FILEFUNC_MODE_CREATE)

  00030	90000008	 adrp        x8,|??_C@_02GMLFBBN@wb@|
  00034	91000108	 add         x8,x8,PageOffset(|??_C@_02GMLFBBN@wb@|)
  00038	721d005f	 tst         w2,#8
  0003c	9a9f1101	 cselne      x1,x8,xzr
  00040		 |$LN6@fopen64_fi|

; 124  :         mode_fopen = "wb";
; 125  : 
; 126  :     if ((filename!=NULL) && (mode_fopen != NULL))

  00040	b4000009	 cbz         x9,|$LN7@fopen64_fi|
  00044	b4000001	 cbz         x1,|$LN7@fopen64_fi|

; 127  :         file = FOPEN_FUNC((const char*)filename, mode_fopen);

  00048	90000008	 adrp        x8,__imp_fopen
  0004c	f9400108	 ldr         x8,[x8,PageOffset(__imp_fopen)]
  00050	aa0903e0	 mov         x0,x9
  00054	d61f0100	 br          x8
  00058		 |$LN7@fopen64_fi|
  00058	d65f03c0	 ret

			 ENDP  ; |fopen64_file_func|

; Function compile flags: /Ogtp
; File C:\Users\ws103\Desktop\zlib-1.2.11\contrib\minizip\ioapi.c

	AREA	|.text$mn|, CODE, ARM64

  00000		 |fread_file_func| PROC

; 133  : {

  00000	a9bf7bfd	 stp         fp,lr,[sp,#-0x10]!
  00004	910003fd	 mov         fp,sp

; 134  :     uLong ret;
; 135  :     ret = (uLong)fread(buf, 1, (size_t)size, (FILE *)stream);

  00008	90000008	 adrp        x8,__imp_fread
  0000c	f9400108	 ldr         x8,[x8,PageOffset(__imp_fread)]
  00010	aa0203e0	 mov         x0,x2
  00014	d3407c62	 uxtw        x2,w3
  00018	aa0103e3	 mov         x3,x1
  0001c	d2800021	 mov         x1,#1
  00020	d63f0100	 blr         x8
  00024	2a0003e0	 mov         w0,w0
  00028	a8c17bfd	 ldp         fp,lr,[sp],#0x10
  0002c	d65f03c0	 ret

			 ENDP  ; |fread_file_func|

; Function compile flags: /Ogtp
; File C:\Users\ws103\Desktop\zlib-1.2.11\contrib\minizip\ioapi.c

	AREA	|.text$mn|, CODE, ARM64

  00000		 |fwrite_file_func| PROC

; 140  : {

  00000	a9bf7bfd	 stp         fp,lr,[sp,#-0x10]!
  00004	910003fd	 mov         fp,sp

; 141  :     uLong ret;
; 142  :     ret = (uLong)fwrite(buf, 1, (size_t)size, (FILE *)stream);

  00008	90000008	 adrp        x8,__imp_fwrite
  0000c	f9400108	 ldr         x8,[x8,PageOffset(__imp_fwrite)]
  00010	aa0203e0	 mov         x0,x2
  00014	d3407c62	 uxtw        x2,w3
  00018	aa0103e3	 mov         x3,x1
  0001c	d2800021	 mov         x1,#1
  00020	d63f0100	 blr         x8
  00024	2a0003e0	 mov         w0,w0
  00028	a8c17bfd	 ldp         fp,lr,[sp],#0x10
  0002c	d65f03c0	 ret

			 ENDP  ; |fwrite_file_func|

; Function compile flags: /Ogtp
; File C:\Users\ws103\Desktop\zlib-1.2.11\contrib\minizip\ioapi.c

	AREA	|.text$mn|, CODE, ARM64

  00000		 |ftell_file_func| PROC

; 148  :     long ret;
; 149  :     ret = ftell((FILE *)stream);

  00000	90000008	 adrp        x8,__imp_ftell
  00004	f9400108	 ldr         x8,[x8,PageOffset(__imp_ftell)]
  00008	aa0103e0	 mov         x0,x1
  0000c	d61f0100	 br          x8

			 ENDP  ; |ftell_file_func|

; Function compile flags: /Ogtp
; File C:\Users\ws103\Desktop\zlib-1.2.11\contrib\minizip\ioapi.c

	AREA	|.text$mn|, CODE, ARM64

  00000		 |ftell64_file_func| PROC

; 156  :     ZPOS64_T ret;
; 157  :     ret = FTELLO_FUNC((FILE *)stream);

  00000	90000008	 adrp        x8,__imp__ftelli64
  00004	f9400108	 ldr         x8,[x8,PageOffset(__imp__ftelli64)]
  00008	aa0103e0	 mov         x0,x1
  0000c	d61f0100	 br          x8

			 ENDP  ; |ftell64_file_func|

; Function compile flags: /Ogtp
; File C:\Users\ws103\Desktop\zlib-1.2.11\contrib\minizip\ioapi.c

	AREA	|.text$mn|, CODE, ARM64

  00000		 |fseek_file_func| PROC

; 162  : {

  00000	a9bf7bfd	 stp         fp,lr,[sp,#-0x10]!
  00004	910003fd	 mov         fp,sp
  00008	aa0103e0	 mov         x0,x1
  0000c	2a0203e1	 mov         w1,w2

; 163  :     int fseek_origin=0;
; 164  :     long ret;
; 165  :     switch (origin)

  00010	34000003	 cbz         w3,|$LN6@fseek_file|
  00014	7100047f	 cmp         w3,#1
  00018	54000000	 beq         |$LN4@fseek_file|
  0001c	7100087f	 cmp         w3,#2
  00020	54000000	 beq         |$LN5@fseek_file|

; 175  :         break;
; 176  :     default: return -1;

  00024	12800000	 mov         w0,#-1
  00028	a8c17bfd	 ldp         fp,lr,[sp],#0x10
  0002c	d65f03c0	 ret
  00030		 |$LN5@fseek_file|

; 170  :     case ZLIB_FILEFUNC_SEEK_END :
; 171  :         fseek_origin = SEEK_END;

  00030	52800042	 mov         w2,#2

; 172  :         break;

  00034	14000004	 b           |$LN2@fseek_file|
  00038		 |$LN4@fseek_file|

; 166  :     {
; 167  :     case ZLIB_FILEFUNC_SEEK_CUR :
; 168  :         fseek_origin = SEEK_CUR;

  00038	52800022	 mov         w2,#1

; 169  :         break;

  0003c	14000002	 b           |$LN2@fseek_file|
  00040		 |$LN6@fseek_file|

; 173  :     case ZLIB_FILEFUNC_SEEK_SET :
; 174  :         fseek_origin = SEEK_SET;

  00040	52800002	 mov         w2,#0
  00044		 |$LN2@fseek_file|

; 177  :     }
; 178  :     ret = 0;
; 179  :     if (fseek((FILE *)stream, offset, fseek_origin) != 0)

  00044	90000008	 adrp        x8,__imp_fseek
  00048	f9400108	 ldr         x8,[x8,PageOffset(__imp_fseek)]
  0004c	d63f0100	 blr         x8
  00050	7100001f	 cmp         w0,#0
  00054	5a9f03e0	 csetmne     w0
  00058	a8c17bfd	 ldp         fp,lr,[sp],#0x10
  0005c	d65f03c0	 ret

			 ENDP  ; |fseek_file_func|

; Function compile flags: /Ogtp
; File C:\Users\ws103\Desktop\zlib-1.2.11\contrib\minizip\ioapi.c

	AREA	|.text$mn|, CODE, ARM64

  00000		 |fseek64_file_func| PROC

; 185  : {

  00000	a9bf7bfd	 stp         fp,lr,[sp,#-0x10]!
  00004	910003fd	 mov         fp,sp
  00008	aa0103e0	 mov         x0,x1
  0000c	aa0203e1	 mov         x1,x2

; 186  :     int fseek_origin=0;
; 187  :     long ret;
; 188  :     switch (origin)

  00010	34000003	 cbz         w3,|$LN6@fseek64_fi|
  00014	7100047f	 cmp         w3,#1
  00018	54000000	 beq         |$LN4@fseek64_fi|
  0001c	7100087f	 cmp         w3,#2
  00020	54000000	 beq         |$LN5@fseek64_fi|

; 198  :         break;
; 199  :     default: return -1;

  00024	12800000	 mov         w0,#-1
  00028	a8c17bfd	 ldp         fp,lr,[sp],#0x10
  0002c	d65f03c0	 ret
  00030		 |$LN5@fseek64_fi|

; 193  :     case ZLIB_FILEFUNC_SEEK_END :
; 194  :         fseek_origin = SEEK_END;

  00030	52800042	 mov         w2,#2

; 195  :         break;

  00034	14000004	 b           |$LN2@fseek64_fi|
  00038		 |$LN4@fseek64_fi|

; 189  :     {
; 190  :     case ZLIB_FILEFUNC_SEEK_CUR :
; 191  :         fseek_origin = SEEK_CUR;

  00038	52800022	 mov         w2,#1

; 192  :         break;

  0003c	14000002	 b           |$LN2@fseek64_fi|
  00040		 |$LN6@fseek64_fi|

; 196  :     case ZLIB_FILEFUNC_SEEK_SET :
; 197  :         fseek_origin = SEEK_SET;

  00040	52800002	 mov         w2,#0
  00044		 |$LN2@fseek64_fi|

; 200  :     }
; 201  :     ret = 0;
; 202  : 
; 203  :     if(FSEEKO_FUNC((FILE *)stream, offset, fseek_origin) != 0)

  00044	90000008	 adrp        x8,__imp__fseeki64
  00048	f9400108	 ldr         x8,[x8,PageOffset(__imp__fseeki64)]
  0004c	d63f0100	 blr         x8
  00050	7100001f	 cmp         w0,#0
  00054	5a9f03e0	 csetmne     w0
  00058	a8c17bfd	 ldp         fp,lr,[sp],#0x10
  0005c	d65f03c0	 ret

			 ENDP  ; |fseek64_file_func|

; Function compile flags: /Ogtp
; File C:\Users\ws103\Desktop\zlib-1.2.11\contrib\minizip\ioapi.c

	AREA	|.text$mn|, CODE, ARM64

  00000		 |fclose_file_func| PROC

; 212  :     int ret;
; 213  :     ret = fclose((FILE *)stream);

  00000	90000008	 adrp        x8,__imp_fclose
  00004	f9400108	 ldr         x8,[x8,PageOffset(__imp_fclose)]
  00008	aa0103e0	 mov         x0,x1
  0000c	d61f0100	 br          x8

			 ENDP  ; |fclose_file_func|

; Function compile flags: /Ogtp
; File C:\Users\ws103\Desktop\zlib-1.2.11\contrib\minizip\ioapi.c

	AREA	|.text$mn|, CODE, ARM64

  00000		 |ferror_file_func| PROC

; 219  :     int ret;
; 220  :     ret = ferror((FILE *)stream);

  00000	90000008	 adrp        x8,__imp_ferror
  00004	f9400108	 ldr         x8,[x8,PageOffset(__imp_ferror)]
  00008	aa0103e0	 mov         x0,x1
  0000c	d61f0100	 br          x8

			 ENDP  ; |ferror_file_func|

; Function compile flags: /Ogtp
; File C:\Users\ws103\Desktop\zlib-1.2.11\contrib\minizip\ioapi.c

	AREA	|.text$mn|, CODE, ARM64

  00000		 |fill_fopen_filefunc| PROC

; 227  :     pzlib_filefunc_def->zopen_file = fopen_file_func;

  00000	90000008	 adrp        x8,fopen_file_func
  00004	91000108	 add         x8,x8,PageOffset(fopen_file_func)

; 228  :     pzlib_filefunc_def->zread_file = fread_file_func;
; 229  :     pzlib_filefunc_def->zwrite_file = fwrite_file_func;
; 230  :     pzlib_filefunc_def->ztell_file = ftell_file_func;
; 231  :     pzlib_filefunc_def->zseek_file = fseek_file_func;
; 232  :     pzlib_filefunc_def->zclose_file = fclose_file_func;
; 233  :     pzlib_filefunc_def->zerror_file = ferror_file_func;
; 234  :     pzlib_filefunc_def->opaque = NULL;

  00008	f9001c1f	 str         xzr,[x0,#0x38]
  0000c	f9000008	 str         x8,[x0]
  00010	90000009	 adrp        x9,fread_file_func
  00014	91000129	 add         x9,x9,PageOffset(fread_file_func)
  00018	90000008	 adrp        x8,fwrite_file_func
  0001c	91000108	 add         x8,x8,PageOffset(fwrite_file_func)
  00020	a900a009	 stp         x9,x8,[x0,#8]
  00024	90000008	 adrp        x8,fseek_file_func
  00028	91000108	 add         x8,x8,PageOffset(fseek_file_func)
  0002c	90000009	 adrp        x9,ftell_file_func
  00030	91000129	 add         x9,x9,PageOffset(ftell_file_func)
  00034	a901a009	 stp         x9,x8,[x0,#0x18]
  00038	90000008	 adrp        x8,ferror_file_func
  0003c	91000108	 add         x8,x8,PageOffset(ferror_file_func)
  00040	90000009	 adrp        x9,fclose_file_func
  00044	91000129	 add         x9,x9,PageOffset(fclose_file_func)
  00048	a902a009	 stp         x9,x8,[x0,#0x28]
  0004c	d65f03c0	 ret

			 ENDP  ; |fill_fopen_filefunc|

; Function compile flags: /Ogtp
; File C:\Users\ws103\Desktop\zlib-1.2.11\contrib\minizip\ioapi.c

	AREA	|.text$mn|, CODE, ARM64

  00000		 |fill_fopen64_filefunc| PROC

; 239  :     pzlib_filefunc_def->zopen64_file = fopen64_file_func;

  00000	90000008	 adrp        x8,fopen64_file_func
  00004	91000108	 add         x8,x8,PageOffset(fopen64_file_func)

; 240  :     pzlib_filefunc_def->zread_file = fread_file_func;
; 241  :     pzlib_filefunc_def->zwrite_file = fwrite_file_func;
; 242  :     pzlib_filefunc_def->ztell64_file = ftell64_file_func;
; 243  :     pzlib_filefunc_def->zseek64_file = fseek64_file_func;
; 244  :     pzlib_filefunc_def->zclose_file = fclose_file_func;
; 245  :     pzlib_filefunc_def->zerror_file = ferror_file_func;
; 246  :     pzlib_filefunc_def->opaque = NULL;

  00008	f9001c1f	 str         xzr,[x0,#0x38]
  0000c	f9000008	 str         x8,[x0]
  00010	90000009	 adrp        x9,fread_file_func
  00014	91000129	 add         x9,x9,PageOffset(fread_file_func)
  00018	90000008	 adrp        x8,fwrite_file_func
  0001c	91000108	 add         x8,x8,PageOffset(fwrite_file_func)
  00020	a900a009	 stp         x9,x8,[x0,#8]
  00024	90000008	 adrp        x8,fseek64_file_func
  00028	91000108	 add         x8,x8,PageOffset(fseek64_file_func)
  0002c	90000009	 adrp        x9,ftell64_file_func
  00030	91000129	 add         x9,x9,PageOffset(ftell64_file_func)
  00034	a901a009	 stp         x9,x8,[x0,#0x18]
  00038	90000008	 adrp        x8,ferror_file_func
  0003c	91000108	 add         x8,x8,PageOffset(ferror_file_func)
  00040	90000009	 adrp        x9,fclose_file_func
  00044	91000129	 add         x9,x9,PageOffset(fclose_file_func)
  00048	a902a009	 stp         x9,x8,[x0,#0x28]
  0004c	d65f03c0	 ret

			 ENDP  ; |fill_fopen64_filefunc|

	END
