; Listing generated by Microsoft (R) Optimizing Compiler Version 19.28.29335.0 

	TTL	c:\users\ws103\desktop\zlib-1.2.11\contrib\minizip\iowin32.c
	ARM64

	AREA	|.drectve|, DRECTVE

	IMPORT	|__imp_CloseHandle|
	IMPORT	|__imp_CreateFileA|
	IMPORT	|__imp_GetLastError|
	IMPORT	|__imp_CreateFileW|
	IMPORT	|__imp_SetFilePointer|
	IMPORT	|__imp_WriteFile|
	IMPORT	|__imp_ReadFile|
	EXPORT	|fill_win32_filefunc64W|
	EXPORT	|fill_win32_filefunc64A|
	EXPORT	|fill_win32_filefunc64|
	EXPORT	|fill_win32_filefunc|
	EXPORT	|win32_error_file_func|
	EXPORT	|win32_close_file_func|
	EXPORT	|win32_seek64_file_func|
	EXPORT	|win32_seek_file_func|
	EXPORT	|win32_tell64_file_func|
	EXPORT	|win32_tell_file_func|
	EXPORT	|win32_write_file_func|
	EXPORT	|win32_read_file_func|
	EXPORT	|win32_open_file_func|
	EXPORT	|win32_open64_file_funcW|
	EXPORT	|win32_open64_file_funcA|
	EXPORT	|win32_open64_file_func|

	AREA	|.pdata|, PDATA
|$pdata$win32_close_file_func| DCD imagerel |$LN6|
	DCD	0x1620051
	;Flags[SingleProEpi] functionLength[80] RegF[0] RegI[2] H[0] frameChainReturn[Chained] frameSize[32]

	AREA	|.pdata|, PDATA
|$pdata$win32_seek64_file_func| DCD imagerel |$LN15|
	DCD	imagerel |$unwind$win32_seek64_file_func|

	AREA	|.pdata|, PDATA
|$pdata$win32_seek_file_func| DCD imagerel |$LN15|
	DCD	imagerel |$unwind$win32_seek_file_func|

	AREA	|.pdata|, PDATA
|$pdata$win32_tell64_file_func| DCD imagerel |$LN8|
	DCD	imagerel |$unwind$win32_tell64_file_func|

	AREA	|.pdata|, PDATA
|$pdata$win32_tell_file_func| DCD imagerel |$LN8|
	DCD	imagerel |$unwind$win32_tell_file_func|

	AREA	|.pdata|, PDATA
|$pdata$MySetFilePointerEx| DCD imagerel |MySetFilePointerEx|
	DCD	0x1e2006d
	;Flags[SingleProEpi] functionLength[108] RegF[0] RegI[2] H[0] frameChainReturn[Chained] frameSize[48]

	AREA	|.pdata|, PDATA
|$pdata$win32_write_file_func| DCD imagerel |$LN9|
	DCD	0x1e10071
	;Flags[SingleProEpi] functionLength[112] RegF[0] RegI[1] H[0] frameChainReturn[Chained] frameSize[48]

	AREA	|.pdata|, PDATA
|$pdata$win32_read_file_func| DCD imagerel |$LN9|
	DCD	0x1e10071
	;Flags[SingleProEpi] functionLength[112] RegF[0] RegI[1] H[0] frameChainReturn[Chained] frameSize[48]

	AREA	|.pdata|, PDATA
|$pdata$win32_open_file_func| DCD imagerel |$LN5|
	DCD	0x1600069
	;Flags[SingleProEpi] functionLength[104] RegF[0] RegI[0] H[0] frameChainReturn[Chained] frameSize[32]

	AREA	|.pdata|, PDATA
|$pdata$win32_open64_file_funcW| DCD imagerel |$LN5|
	DCD	0x1600069
	;Flags[SingleProEpi] functionLength[104] RegF[0] RegI[0] H[0] frameChainReturn[Chained] frameSize[32]

	AREA	|.pdata|, PDATA
|$pdata$win32_open64_file_funcA| DCD imagerel |$LN5|
	DCD	0x1600069
	;Flags[SingleProEpi] functionLength[104] RegF[0] RegI[0] H[0] frameChainReturn[Chained] frameSize[32]

	AREA	|.pdata|, PDATA
|$pdata$win32_open64_file_func| DCD imagerel |$LN5|
	DCD	0x1600069
	;Flags[SingleProEpi] functionLength[104] RegF[0] RegI[0] H[0] frameChainReturn[Chained] frameSize[32]

	AREA	|.pdata|, PDATA
|$pdata$win32_build_iowin| DCD imagerel |win32_build_iowin|
	DCD	imagerel |$unwind$win32_build_iowin|

	AREA	|.xdata|, DATA
|$unwind$win32_build_iowin| DCD 0x880001f
	DCD	0x400015
	DCD	0x40001c
	DCD	0xe42283e1
	;Code Words[1], Epilog Count[2], E[0], X[0], Function Length[31]=124 bytes
	;Epilog Start Index[1], Epilog Start Offset[21]=84 bytes
	;Epilog Start Index[1], Epilog Start Offset[28]=112 bytes
	;set_fp
	;save_fplr_x
	;save_r19r20_x
	;end

	AREA	|.xdata|, DATA
|$unwind$win32_tell_file_func| DCD 0x1080001b
	DCD	0x400014
	DCD	0x400018
	DCD	0x1d483e1
	DCD	0xe3e3e3e4
	;Code Words[2], Epilog Count[2], E[0], X[0], Function Length[27]=108 bytes
	;Epilog Start Index[1], Epilog Start Offset[20]=80 bytes
	;Epilog Start Index[1], Epilog Start Offset[24]=96 bytes
	;set_fp
	;save_fplr_x
	;save_reg_x
	;end
	;nop
	;nop
	;nop

	AREA	|.xdata|, DATA
|$unwind$win32_tell64_file_func| DCD 0x1080001b
	DCD	0x400014
	DCD	0x400018
	DCD	0x1d483e1
	DCD	0xe3e3e3e4
	;Code Words[2], Epilog Count[2], E[0], X[0], Function Length[27]=108 bytes
	;Epilog Start Index[1], Epilog Start Offset[20]=80 bytes
	;Epilog Start Index[1], Epilog Start Offset[24]=96 bytes
	;set_fp
	;save_fplr_x
	;save_reg_x
	;end
	;nop
	;nop
	;nop

	AREA	|.xdata|, DATA
|$unwind$win32_seek_file_func| DCD 0x10800024
	DCD	0x40001d
	DCD	0x400021
	DCD	0x1d481e1
	DCD	0xe3e3e3e4
	;Code Words[2], Epilog Count[2], E[0], X[0], Function Length[36]=144 bytes
	;Epilog Start Index[1], Epilog Start Offset[29]=116 bytes
	;Epilog Start Index[1], Epilog Start Offset[33]=132 bytes
	;set_fp
	;save_fplr_x
	;save_reg_x
	;end
	;nop
	;nop
	;nop

	AREA	|.xdata|, DATA
|$unwind$win32_seek64_file_func| DCD 0x10800024
	DCD	0x40001d
	DCD	0x400021
	DCD	0x1d481e1
	DCD	0xe3e3e3e4
	;Code Words[2], Epilog Count[2], E[0], X[0], Function Length[36]=144 bytes
	;Epilog Start Index[1], Epilog Start Offset[29]=116 bytes
	;Epilog Start Index[1], Epilog Start Offset[33]=132 bytes
	;set_fp
	;save_fplr_x
	;save_reg_x
	;end
	;nop
	;nop
	;nop
; Function compile flags: /Ogtp
; File C:\Users\ws103\Desktop\zlib-1.2.11\contrib\minizip\iowin32.c

	AREA	|.text$mn|, CODE, ARM64

  00000		 |win32_translate_open_mode| PROC

; 57   :     *lpdwDesiredAccess = *lpdwShareMode = *lpdwFlagsAndAttributes = *lpdwCreationDisposition = 0;
; 58   : 
; 59   :     if ((mode & ZLIB_FILEFUNC_MODE_READWRITEFILTER)==ZLIB_FILEFUNC_MODE_READ)

  00000	12000408	 and         w8,w0,#3
  00004	b900005f	 str         wzr,[x2]
  00008	7100051f	 cmp         w8,#1
  0000c	b900009f	 str         wzr,[x4]
  00010	b900007f	 str         wzr,[x3]
  00014	b900003f	 str         wzr,[x1]
  00018	54000001	 bne         |$LN2@win32_tran|

; 60   :     {
; 61   :         *lpdwDesiredAccess = GENERIC_READ;

  0001c	52b00008	 mov         w8,#0x80000000
  00020	b9000028	 str         w8,[x1]

; 62   :         *lpdwCreationDisposition = OPEN_EXISTING;
; 63   :         *lpdwShareMode = FILE_SHARE_READ;

  00024	52800029	 mov         w9,#1
  00028	52800068	 mov         w8,#3
  0002c	b9000069	 str         w9,[x3]
  00030	b9000048	 str         w8,[x2]
  00034	d65f03c0	 ret
  00038		 |$LN2@win32_tran|

; 64   :     }
; 65   :     else if (mode & ZLIB_FILEFUNC_MODE_EXISTING)

  00038	36100000	 tbz         x0,#2,|$LN4@win32_tran|

; 66   :     {
; 67   :         *lpdwDesiredAccess = GENERIC_WRITE | GENERIC_READ;

  0003c	52b80008	 mov         w8,#0xC0000000
  00040	b9000028	 str         w8,[x1]

; 68   :         *lpdwCreationDisposition = OPEN_EXISTING;

  00044	52800068	 mov         w8,#3
  00048	b9000048	 str         w8,[x2]
  0004c	d65f03c0	 ret
  00050		 |$LN4@win32_tran|

; 69   :     }
; 70   :     else if (mode & ZLIB_FILEFUNC_MODE_CREATE)

  00050	36180000	 tbz         x0,#3,|$LN6@win32_tran|

; 71   :     {
; 72   :         *lpdwDesiredAccess = GENERIC_WRITE | GENERIC_READ;

  00054	52b80008	 mov         w8,#0xC0000000

; 73   :         *lpdwCreationDisposition = CREATE_ALWAYS;

  00058	52800049	 mov         w9,#2
  0005c	b9000028	 str         w8,[x1]
  00060	b9000049	 str         w9,[x2]
  00064		 |$LN6@win32_tran|
  00064	d65f03c0	 ret

			 ENDP  ; |win32_translate_open_mode|

; Function compile flags: /Ogtp
; File C:\Users\ws103\Desktop\zlib-1.2.11\contrib\minizip\iowin32.c

	AREA	|.text$mn|, CODE, ARM64

  00000		 |win32_build_iowin| PROC

; 78   : {

  00000	a9bf53f3	 stp         x19,x20,[sp,#-0x10]!
  00004	a9be7bfd	 stp         fp,lr,[sp,#-0x20]!
  00008	910003fd	 mov         fp,sp
  0000c	aa0003f4	 mov         x20,x0

; 79   :     voidpf ret=NULL;
; 80   : 
; 81   :     if ((hFile != NULL) && (hFile != INVALID_HANDLE_VALUE))

  00010	d1000688	 sub         x8,x20,#1
  00014	b1000d1f	 cmn         x8,#3
  00018	d2800013	 mov         x19,#0
  0001c	54000008	 bhi         |$LN4@win32_buil|

; 82   :     {
; 83   :         WIN32FILE_IOWIN w32fiow;
; 84   :         w32fiow.hf = hFile;
; 85   :         w32fiow.error = 0;
; 86   :         ret = malloc(sizeof(WIN32FILE_IOWIN));

  00020	90000008	 adrp        x8,__imp_malloc
  00024	f9400108	 ldr         x8,[x8,PageOffset(__imp_malloc)]
  00028	f9000bf4	 str         x20,[sp,#0x10]
  0002c	d2800200	 mov         x0,#0x10
  00030	b9001bff	 str         wzr,[sp,#0x18]
  00034	d63f0100	 blr         x8
  00038	aa0003f3	 mov         x19,x0

; 87   : 
; 88   :         if (ret==NULL)

  0003c	b5000013	 cbnz        x19,|$LN3@win32_buil|

; 89   :             CloseHandle(hFile);

  00040	90000008	 adrp        x8,__imp_CloseHandle
  00044	f9400108	 ldr         x8,[x8,PageOffset(__imp_CloseHandle)]
  00048	aa1403e0	 mov         x0,x20
  0004c	d63f0100	 blr         x8

; 92   :     }
; 93   :     return ret;

  00050	aa1303e0	 mov         x0,x19
  00054	a8c27bfd	 ldp         fp,lr,[sp],#0x20
  00058	a8c153f3	 ldp         x19,x20,[sp],#0x10
  0005c	d65f03c0	 ret
  00060		 |$LN3@win32_buil|

; 90   :         else
; 91   :             *((WIN32FILE_IOWIN*)ret) = w32fiow;

  00060	910043e8	 add         x8,sp,#0x10
  00064	a9402508	 ldp         x8,x9,[x8]
  00068	a9002668	 stp         x8,x9,[x19]
  0006c		 |$LN4@win32_buil|

; 92   :     }
; 93   :     return ret;

  0006c	aa1303e0	 mov         x0,x19
  00070	a8c27bfd	 ldp         fp,lr,[sp],#0x20
  00074	a8c153f3	 ldp         x19,x20,[sp],#0x10
  00078	d65f03c0	 ret

			 ENDP  ; |win32_build_iowin|

; Function compile flags: /Ogtp
; File C:\Users\ws103\Desktop\zlib-1.2.11\contrib\minizip\iowin32.c

	AREA	|.text$mn|, CODE, ARM64

  00000		 |win32_open64_file_func| PROC

; 97   : {

  00000		 |$LN5|
  00000	a9be7bfd	 stp         fp,lr,[sp,#-0x20]!
  00004	910003fd	 mov         fp,sp
  00008	2a0203e0	 mov         w0,w2
  0000c	aa0103eb	 mov         x11,x1

; 98   :     const char* mode_fopen = NULL;
; 99   :     DWORD dwDesiredAccess,dwCreationDisposition,dwShareMode,dwFlagsAndAttributes ;
; 100  :     HANDLE hFile = NULL;
; 101  : 
; 102  :     win32_translate_open_mode(mode,&dwDesiredAccess,&dwCreationDisposition,&dwShareMode,&dwFlagsAndAttributes);

  00010	910063e2	 add         x2,sp,#0x18
  00014	910043e1	 add         x1,sp,#0x10
  00018	910053e4	 add         x4,sp,#0x14
  0001c	910073e3	 add         x3,sp,#0x1C
  00020	d280000a	 mov         x10,#0
  00024	94000000	 bl          win32_translate_open_mode

; 103  : 
; 104  : #ifdef IOWIN32_USING_WINRT_API
; 105  : #ifdef UNICODE
; 106  :     if ((filename!=NULL) && (dwDesiredAccess != 0))
; 107  :         hFile = CreateFile2((LPCTSTR)filename, dwDesiredAccess, dwShareMode, dwCreationDisposition, NULL);
; 108  : #else
; 109  :     if ((filename!=NULL) && (dwDesiredAccess != 0))
; 110  :     {
; 111  :         WCHAR filenameW[FILENAME_MAX + 0x200 + 1];
; 112  :         MultiByteToWideChar(CP_ACP,0,(const char*)filename,-1,filenameW,FILENAME_MAX + 0x200);
; 113  :         hFile = CreateFile2(filenameW, dwDesiredAccess, dwShareMode, dwCreationDisposition, NULL);
; 114  :     }
; 115  : #endif
; 116  : #else
; 117  :     if ((filename!=NULL) && (dwDesiredAccess != 0))

  00028	b400000b	 cbz         x11,|$LN2@win32_open|
  0002c	b94013e1	 ldr         w1,[sp,#0x10]
  00030	34000001	 cbz         w1,|$LN2@win32_open|

; 118  :         hFile = CreateFile((LPCTSTR)filename, dwDesiredAccess, dwShareMode, NULL, dwCreationDisposition, dwFlagsAndAttributes, NULL);

  00034	90000008	 adrp        x8,__imp_CreateFileA
  00038	f9400108	 ldr         x8,[x8,PageOffset(__imp_CreateFileA)]
  0003c	294293e5	 ldp         w5,w4,[sp,#0x14]
  00040	b9401fe2	 ldr         w2,[sp,#0x1C]
  00044	d2800006	 mov         x6,#0
  00048	d2800003	 mov         x3,#0
  0004c	aa0b03e0	 mov         x0,x11
  00050	d63f0100	 blr         x8
  00054	aa0003ea	 mov         x10,x0
  00058		 |$LN2@win32_open|

; 119  : #endif
; 120  : 
; 121  :     return win32_build_iowin(hFile);

  00058	aa0a03e0	 mov         x0,x10
  0005c	94000000	 bl          win32_build_iowin
  00060	a8c27bfd	 ldp         fp,lr,[sp],#0x20
  00064	d65f03c0	 ret

			 ENDP  ; |win32_open64_file_func|

; Function compile flags: /Ogtp
; File C:\Users\ws103\Desktop\zlib-1.2.11\contrib\minizip\iowin32.c

	AREA	|.text$mn|, CODE, ARM64

  00000		 |win32_open64_file_funcA| PROC

; 126  : {

  00000		 |$LN5|
  00000	a9be7bfd	 stp         fp,lr,[sp,#-0x20]!
  00004	910003fd	 mov         fp,sp
  00008	2a0203e0	 mov         w0,w2
  0000c	aa0103eb	 mov         x11,x1

; 127  :     const char* mode_fopen = NULL;
; 128  :     DWORD dwDesiredAccess,dwCreationDisposition,dwShareMode,dwFlagsAndAttributes ;
; 129  :     HANDLE hFile = NULL;
; 130  : 
; 131  :     win32_translate_open_mode(mode,&dwDesiredAccess,&dwCreationDisposition,&dwShareMode,&dwFlagsAndAttributes);

  00010	910063e2	 add         x2,sp,#0x18
  00014	910043e1	 add         x1,sp,#0x10
  00018	910053e4	 add         x4,sp,#0x14
  0001c	910073e3	 add         x3,sp,#0x1C
  00020	d280000a	 mov         x10,#0
  00024	94000000	 bl          win32_translate_open_mode

; 132  : 
; 133  : #ifdef IOWIN32_USING_WINRT_API
; 134  :     if ((filename!=NULL) && (dwDesiredAccess != 0))
; 135  :     {
; 136  :         WCHAR filenameW[FILENAME_MAX + 0x200 + 1];
; 137  :         MultiByteToWideChar(CP_ACP,0,(const char*)filename,-1,filenameW,FILENAME_MAX + 0x200);
; 138  :         hFile = CreateFile2(filenameW, dwDesiredAccess, dwShareMode, dwCreationDisposition, NULL);
; 139  :     }
; 140  : #else
; 141  :     if ((filename!=NULL) && (dwDesiredAccess != 0))

  00028	b400000b	 cbz         x11,|$LN2@win32_open|
  0002c	b94013e1	 ldr         w1,[sp,#0x10]
  00030	34000001	 cbz         w1,|$LN2@win32_open|

; 142  :         hFile = CreateFileA((LPCSTR)filename, dwDesiredAccess, dwShareMode, NULL, dwCreationDisposition, dwFlagsAndAttributes, NULL);

  00034	90000008	 adrp        x8,__imp_CreateFileA
  00038	f9400108	 ldr         x8,[x8,PageOffset(__imp_CreateFileA)]
  0003c	294293e5	 ldp         w5,w4,[sp,#0x14]
  00040	b9401fe2	 ldr         w2,[sp,#0x1C]
  00044	d2800006	 mov         x6,#0
  00048	d2800003	 mov         x3,#0
  0004c	aa0b03e0	 mov         x0,x11
  00050	d63f0100	 blr         x8
  00054	aa0003ea	 mov         x10,x0
  00058		 |$LN2@win32_open|

; 143  : #endif
; 144  : 
; 145  :     return win32_build_iowin(hFile);

  00058	aa0a03e0	 mov         x0,x10
  0005c	94000000	 bl          win32_build_iowin
  00060	a8c27bfd	 ldp         fp,lr,[sp],#0x20
  00064	d65f03c0	 ret

			 ENDP  ; |win32_open64_file_funcA|

; Function compile flags: /Ogtp
; File C:\Users\ws103\Desktop\zlib-1.2.11\contrib\minizip\iowin32.c

	AREA	|.text$mn|, CODE, ARM64

  00000		 |win32_open64_file_funcW| PROC

; 150  : {

  00000		 |$LN5|
  00000	a9be7bfd	 stp         fp,lr,[sp,#-0x20]!
  00004	910003fd	 mov         fp,sp
  00008	2a0203e0	 mov         w0,w2
  0000c	aa0103eb	 mov         x11,x1

; 151  :     const char* mode_fopen = NULL;
; 152  :     DWORD dwDesiredAccess,dwCreationDisposition,dwShareMode,dwFlagsAndAttributes ;
; 153  :     HANDLE hFile = NULL;
; 154  : 
; 155  :     win32_translate_open_mode(mode,&dwDesiredAccess,&dwCreationDisposition,&dwShareMode,&dwFlagsAndAttributes);

  00010	910063e2	 add         x2,sp,#0x18
  00014	910043e1	 add         x1,sp,#0x10
  00018	910053e4	 add         x4,sp,#0x14
  0001c	910073e3	 add         x3,sp,#0x1C
  00020	d280000a	 mov         x10,#0
  00024	94000000	 bl          win32_translate_open_mode

; 156  : 
; 157  : #ifdef IOWIN32_USING_WINRT_API
; 158  :     if ((filename!=NULL) && (dwDesiredAccess != 0))
; 159  :         hFile = CreateFile2((LPCWSTR)filename, dwDesiredAccess, dwShareMode, dwCreationDisposition,NULL);
; 160  : #else
; 161  :     if ((filename!=NULL) && (dwDesiredAccess != 0))

  00028	b400000b	 cbz         x11,|$LN2@win32_open|
  0002c	b94013e1	 ldr         w1,[sp,#0x10]
  00030	34000001	 cbz         w1,|$LN2@win32_open|

; 162  :         hFile = CreateFileW((LPCWSTR)filename, dwDesiredAccess, dwShareMode, NULL, dwCreationDisposition, dwFlagsAndAttributes, NULL);

  00034	90000008	 adrp        x8,__imp_CreateFileW
  00038	f9400108	 ldr         x8,[x8,PageOffset(__imp_CreateFileW)]
  0003c	294293e5	 ldp         w5,w4,[sp,#0x14]
  00040	b9401fe2	 ldr         w2,[sp,#0x1C]
  00044	d2800006	 mov         x6,#0
  00048	d2800003	 mov         x3,#0
  0004c	aa0b03e0	 mov         x0,x11
  00050	d63f0100	 blr         x8
  00054	aa0003ea	 mov         x10,x0
  00058		 |$LN2@win32_open|

; 163  : #endif
; 164  : 
; 165  :     return win32_build_iowin(hFile);

  00058	aa0a03e0	 mov         x0,x10
  0005c	94000000	 bl          win32_build_iowin
  00060	a8c27bfd	 ldp         fp,lr,[sp],#0x20
  00064	d65f03c0	 ret

			 ENDP  ; |win32_open64_file_funcW|

; Function compile flags: /Ogtp
; File C:\Users\ws103\Desktop\zlib-1.2.11\contrib\minizip\iowin32.c

	AREA	|.text$mn|, CODE, ARM64

  00000		 |win32_open_file_func| PROC

; 170  : {

  00000		 |$LN5|
  00000	a9be7bfd	 stp         fp,lr,[sp,#-0x20]!
  00004	910003fd	 mov         fp,sp
  00008	2a0203e0	 mov         w0,w2
  0000c	aa0103eb	 mov         x11,x1

; 171  :     const char* mode_fopen = NULL;
; 172  :     DWORD dwDesiredAccess,dwCreationDisposition,dwShareMode,dwFlagsAndAttributes ;
; 173  :     HANDLE hFile = NULL;
; 174  : 
; 175  :     win32_translate_open_mode(mode,&dwDesiredAccess,&dwCreationDisposition,&dwShareMode,&dwFlagsAndAttributes);

  00010	910063e2	 add         x2,sp,#0x18
  00014	910043e1	 add         x1,sp,#0x10
  00018	910053e4	 add         x4,sp,#0x14
  0001c	910073e3	 add         x3,sp,#0x1C
  00020	d280000a	 mov         x10,#0
  00024	94000000	 bl          win32_translate_open_mode

; 176  : 
; 177  : #ifdef IOWIN32_USING_WINRT_API
; 178  : #ifdef UNICODE
; 179  :     if ((filename!=NULL) && (dwDesiredAccess != 0))
; 180  :         hFile = CreateFile2((LPCTSTR)filename, dwDesiredAccess, dwShareMode, dwCreationDisposition, NULL);
; 181  : #else
; 182  :     if ((filename!=NULL) && (dwDesiredAccess != 0))
; 183  :     {
; 184  :         WCHAR filenameW[FILENAME_MAX + 0x200 + 1];
; 185  :         MultiByteToWideChar(CP_ACP,0,(const char*)filename,-1,filenameW,FILENAME_MAX + 0x200);
; 186  :         hFile = CreateFile2(filenameW, dwDesiredAccess, dwShareMode, dwCreationDisposition, NULL);
; 187  :     }
; 188  : #endif
; 189  : #else
; 190  :     if ((filename!=NULL) && (dwDesiredAccess != 0))

  00028	b400000b	 cbz         x11,|$LN2@win32_open|
  0002c	b94013e1	 ldr         w1,[sp,#0x10]
  00030	34000001	 cbz         w1,|$LN2@win32_open|

; 191  :         hFile = CreateFile((LPCTSTR)filename, dwDesiredAccess, dwShareMode, NULL, dwCreationDisposition, dwFlagsAndAttributes, NULL);

  00034	90000008	 adrp        x8,__imp_CreateFileA
  00038	f9400108	 ldr         x8,[x8,PageOffset(__imp_CreateFileA)]
  0003c	294293e5	 ldp         w5,w4,[sp,#0x14]
  00040	b9401fe2	 ldr         w2,[sp,#0x1C]
  00044	d2800006	 mov         x6,#0
  00048	d2800003	 mov         x3,#0
  0004c	aa0b03e0	 mov         x0,x11
  00050	d63f0100	 blr         x8
  00054	aa0003ea	 mov         x10,x0
  00058		 |$LN2@win32_open|

; 192  : #endif
; 193  : 
; 194  :     return win32_build_iowin(hFile);

  00058	aa0a03e0	 mov         x0,x10
  0005c	94000000	 bl          win32_build_iowin
  00060	a8c27bfd	 ldp         fp,lr,[sp],#0x20
  00064	d65f03c0	 ret

			 ENDP  ; |win32_open_file_func|

; Function compile flags: /Ogtp
; File C:\Users\ws103\Desktop\zlib-1.2.11\contrib\minizip\iowin32.c

	AREA	|.text$mn|, CODE, ARM64

  00000		 |win32_read_file_func| PROC

; 199  : {

  00000		 |$LN9|
  00000	f81f0ff3	 str         x19,[sp,#-0x10]!
  00004	a9be7bfd	 stp         fp,lr,[sp,#-0x20]!
  00008	910003fd	 mov         fp,sp
  0000c	aa0103f3	 mov         x19,x1

; 200  :     uLong ret=0;

  00010	b90013ff	 str         wzr,[sp,#0x10]
  00014	aa0203e1	 mov         x1,x2
  00018	2a0303e2	 mov         w2,w3
  0001c	52800000	 mov         w0,#0

; 201  :     HANDLE hFile = NULL;
; 202  :     if (stream!=NULL)

  00020	b4000013	 cbz         x19,|$LN4@win32_read|

; 203  :         hFile = ((WIN32FILE_IOWIN*)stream) -> hf;

  00024	f9400268	 ldr         x8,[x19]

; 204  : 
; 205  :     if (hFile != NULL)

  00028	b4000008	 cbz         x8,|$LN4@win32_read|

; 206  :     {
; 207  :         if (!ReadFile(hFile, buf, size, &ret, NULL))

  0002c	aa0803e0	 mov         x0,x8
  00030	90000009	 adrp        x9,__imp_ReadFile
  00034	f9400128	 ldr         x8,[x9,PageOffset(__imp_ReadFile)]
  00038	d2800004	 mov         x4,#0
  0003c	910043e3	 add         x3,sp,#0x10
  00040	d63f0100	 blr         x8
  00044	35000000	 cbnz        w0,|$LN7@win32_read|

; 208  :         {
; 209  :             DWORD dwErr = GetLastError();

  00048	90000008	 adrp        x8,__imp_GetLastError
  0004c	f9400108	 ldr         x8,[x8,PageOffset(__imp_GetLastError)]
  00050	d63f0100	 blr         x8

; 210  :             if (dwErr == ERROR_HANDLE_EOF)

  00054	7100981f	 cmp         w0,#0x26
  00058	1a8003e8	 cseleq      w8,wzr,w0

; 211  :                 dwErr = 0;
; 212  :             ((WIN32FILE_IOWIN*)stream) -> error=(int)dwErr;

  0005c	b9000a68	 str         w8,[x19,#8]
  00060		 |$LN7@win32_read|

; 213  :         }
; 214  :     }
; 215  : 
; 216  :     return ret;
; 217  : }

  00060	b94013e0	 ldr         w0,[sp,#0x10]
  00064		 |$LN4@win32_read|
  00064	a8c27bfd	 ldp         fp,lr,[sp],#0x20
  00068	f84107f3	 ldr         x19,[sp],#0x10
  0006c	d65f03c0	 ret

			 ENDP  ; |win32_read_file_func|

; Function compile flags: /Ogtp
; File C:\Users\ws103\Desktop\zlib-1.2.11\contrib\minizip\iowin32.c

	AREA	|.text$mn|, CODE, ARM64

  00000		 |win32_write_file_func| PROC

; 221  : {

  00000		 |$LN9|
  00000	f81f0ff3	 str         x19,[sp,#-0x10]!
  00004	a9be7bfd	 stp         fp,lr,[sp,#-0x20]!
  00008	910003fd	 mov         fp,sp
  0000c	aa0103f3	 mov         x19,x1

; 222  :     uLong ret=0;

  00010	b90013ff	 str         wzr,[sp,#0x10]
  00014	aa0203e1	 mov         x1,x2
  00018	2a0303e2	 mov         w2,w3
  0001c	52800000	 mov         w0,#0

; 223  :     HANDLE hFile = NULL;
; 224  :     if (stream!=NULL)

  00020	b4000013	 cbz         x19,|$LN4@win32_writ|

; 225  :         hFile = ((WIN32FILE_IOWIN*)stream) -> hf;

  00024	f9400268	 ldr         x8,[x19]

; 226  : 
; 227  :     if (hFile != NULL)

  00028	b4000008	 cbz         x8,|$LN4@win32_writ|

; 228  :     {
; 229  :         if (!WriteFile(hFile, buf, size, &ret, NULL))

  0002c	aa0803e0	 mov         x0,x8
  00030	90000009	 adrp        x9,__imp_WriteFile
  00034	f9400128	 ldr         x8,[x9,PageOffset(__imp_WriteFile)]
  00038	d2800004	 mov         x4,#0
  0003c	910043e3	 add         x3,sp,#0x10
  00040	d63f0100	 blr         x8
  00044	35000000	 cbnz        w0,|$LN7@win32_writ|

; 230  :         {
; 231  :             DWORD dwErr = GetLastError();

  00048	90000008	 adrp        x8,__imp_GetLastError
  0004c	f9400108	 ldr         x8,[x8,PageOffset(__imp_GetLastError)]
  00050	d63f0100	 blr         x8

; 232  :             if (dwErr == ERROR_HANDLE_EOF)

  00054	7100981f	 cmp         w0,#0x26
  00058	1a8003e8	 cseleq      w8,wzr,w0

; 233  :                 dwErr = 0;
; 234  :             ((WIN32FILE_IOWIN*)stream) -> error=(int)dwErr;

  0005c	b9000a68	 str         w8,[x19,#8]
  00060		 |$LN7@win32_writ|

; 235  :         }
; 236  :     }
; 237  : 
; 238  :     return ret;
; 239  : }

  00060	b94013e0	 ldr         w0,[sp,#0x10]
  00064		 |$LN4@win32_writ|
  00064	a8c27bfd	 ldp         fp,lr,[sp],#0x20
  00068	f84107f3	 ldr         x19,[sp],#0x10
  0006c	d65f03c0	 ret

			 ENDP  ; |win32_write_file_func|

; Function compile flags: /Ogtp
; File C:\Users\ws103\Desktop\zlib-1.2.11\contrib\minizip\iowin32.c

	AREA	|.text$mn|, CODE, ARM64

  00000		 |MySetFilePointerEx| PROC

; 242  : {

  00000	a9bf53f3	 stp         x19,x20,[sp,#-0x10]!
  00004	a9be7bfd	 stp         fp,lr,[sp,#-0x20]!
  00008	910003fd	 mov         fp,sp
  0000c	f9000fe1	 str         x1,[sp,#0x18]
  00010	aa0203f3	 mov         x19,x2

; 243  : #ifdef IOWIN32_USING_WINRT_API
; 244  :     return SetFilePointerEx(hFile, pos, newPos, dwMoveMethod);
; 245  : #else
; 246  :     LONG lHigh = pos.HighPart;
; 247  :     DWORD dwNewPos = SetFilePointer(hFile, pos.LowPart, &lHigh, dwMoveMethod);

  00014	294323e1	 ldp         w1,w8,[sp,#0x18]
  00018	910043e2	 add         x2,sp,#0x10
  0001c	b90013e8	 str         w8,[sp,#0x10]
  00020	90000008	 adrp        x8,__imp_SetFilePointer
  00024	f9400108	 ldr         x8,[x8,PageOffset(__imp_SetFilePointer)]
  00028	d63f0100	 blr         x8
  0002c	2a0003f4	 mov         w20,w0

; 248  :     BOOL fOk = TRUE;
; 249  :     if (dwNewPos == 0xFFFFFFFF)

  00030	3100069f	 cmn         w20,#1
  00034	52800020	 mov         w0,#1
  00038	54000001	 bne         |$LN3@MySetFileP|

; 250  :         if (GetLastError() != NO_ERROR)

  0003c	90000008	 adrp        x8,__imp_GetLastError
  00040	f9400108	 ldr         x8,[x8,PageOffset(__imp_GetLastError)]
  00044	d63f0100	 blr         x8
  00048	7100001f	 cmp         w0,#0
  0004c	1a9f17e0	 cseteq      w0
  00050		 |$LN3@MySetFileP|

; 251  :             fOk = FALSE;
; 252  :     if ((newPos != NULL) && (fOk))

  00050	b4000013	 cbz         x19,|$LN4@MySetFileP|
  00054	34000000	 cbz         w0,|$LN4@MySetFileP|

; 253  :     {
; 254  :         newPos->LowPart = dwNewPos;
; 255  :         newPos->HighPart = lHigh;

  00058	b94013e8	 ldr         w8,[sp,#0x10]
  0005c	29002274	 stp         w20,w8,[x19]
  00060		 |$LN4@MySetFileP|
  00060	a8c27bfd	 ldp         fp,lr,[sp],#0x20
  00064	a8c153f3	 ldp         x19,x20,[sp],#0x10
  00068	d65f03c0	 ret

			 ENDP  ; |MySetFilePointerEx|

; Function compile flags: /Ogtp
; File C:\Users\ws103\Desktop\zlib-1.2.11\contrib\minizip\iowin32.c

	AREA	|.text$mn|, CODE, ARM64

  00000		 |win32_tell_file_func| PROC

; 262  : {

  00000		 |$LN8|
  00000	f81f0ff3	 str         x19,[sp,#-0x10]!
  00004	a9be7bfd	 stp         fp,lr,[sp,#-0x20]!
  00008	910003fd	 mov         fp,sp
  0000c	aa0103f3	 mov         x19,x1

; 263  :     long ret=-1;

  00010	12800000	 mov         w0,#-1

; 264  :     HANDLE hFile = NULL;
; 265  :     if (stream!=NULL)

  00014	b4000013	 cbz         x19,|$LN5@win32_tell|

; 266  :         hFile = ((WIN32FILE_IOWIN*)stream) -> hf;

  00018	f9400268	 ldr         x8,[x19]

; 267  :     if (hFile != NULL)

  0001c	b4000008	 cbz         x8,|$LN5@win32_tell|

; 268  :     {
; 269  :         LARGE_INTEGER pos;
; 270  :         pos.QuadPart = 0;

  00020	d2800001	 mov         x1,#0
  00024	f9000bff	 str         xzr,[sp,#0x10]

; 271  : 
; 272  :         if (!MySetFilePointerEx(hFile, pos, &pos, FILE_CURRENT))

  00028	52800023	 mov         w3,#1
  0002c	910043e2	 add         x2,sp,#0x10
  00030	aa0803e0	 mov         x0,x8
  00034	94000000	 bl          MySetFilePointerEx
  00038	35000000	 cbnz        w0,|$LN4@win32_tell|

; 273  :         {
; 274  :             DWORD dwErr = GetLastError();

  0003c	90000008	 adrp        x8,__imp_GetLastError
  00040	f9400108	 ldr         x8,[x8,PageOffset(__imp_GetLastError)]
  00044	d63f0100	 blr         x8

; 275  :             ((WIN32FILE_IOWIN*)stream) -> error=(int)dwErr;

  00048	b9000a60	 str         w0,[x19,#8]

; 276  :             ret = -1;

  0004c	12800000	 mov         w0,#-1
  00050	a8c27bfd	 ldp         fp,lr,[sp],#0x20
  00054	f84107f3	 ldr         x19,[sp],#0x10
  00058	d65f03c0	 ret
  0005c		 |$LN4@win32_tell|

; 277  :         }
; 278  :         else
; 279  :             ret=(long)pos.LowPart;

  0005c	b94013e0	 ldr         w0,[sp,#0x10]
  00060		 |$LN5@win32_tell|
  00060	a8c27bfd	 ldp         fp,lr,[sp],#0x20
  00064	f84107f3	 ldr         x19,[sp],#0x10
  00068	d65f03c0	 ret

			 ENDP  ; |win32_tell_file_func|

; Function compile flags: /Ogtp
; File C:\Users\ws103\Desktop\zlib-1.2.11\contrib\minizip\iowin32.c

	AREA	|.text$mn|, CODE, ARM64

  00000		 |win32_tell64_file_func| PROC

; 285  : {

  00000		 |$LN8|
  00000	f81f0ff3	 str         x19,[sp,#-0x10]!
  00004	a9be7bfd	 stp         fp,lr,[sp,#-0x20]!
  00008	910003fd	 mov         fp,sp
  0000c	aa0103f3	 mov         x19,x1

; 286  :     ZPOS64_T ret= (ZPOS64_T)-1;

  00010	92800000	 mov         x0,#-1

; 287  :     HANDLE hFile = NULL;
; 288  :     if (stream!=NULL)

  00014	b4000013	 cbz         x19,|$LN5@win32_tell|

; 289  :         hFile = ((WIN32FILE_IOWIN*)stream)->hf;

  00018	f9400268	 ldr         x8,[x19]

; 290  : 
; 291  :     if (hFile)

  0001c	b4000008	 cbz         x8,|$LN5@win32_tell|

; 292  :     {
; 293  :         LARGE_INTEGER pos;
; 294  :         pos.QuadPart = 0;

  00020	d2800001	 mov         x1,#0
  00024	f9000bff	 str         xzr,[sp,#0x10]

; 295  : 
; 296  :         if (!MySetFilePointerEx(hFile, pos, &pos, FILE_CURRENT))

  00028	52800023	 mov         w3,#1
  0002c	910043e2	 add         x2,sp,#0x10
  00030	aa0803e0	 mov         x0,x8
  00034	94000000	 bl          MySetFilePointerEx
  00038	35000000	 cbnz        w0,|$LN4@win32_tell|

; 297  :         {
; 298  :             DWORD dwErr = GetLastError();

  0003c	90000008	 adrp        x8,__imp_GetLastError
  00040	f9400108	 ldr         x8,[x8,PageOffset(__imp_GetLastError)]
  00044	d63f0100	 blr         x8

; 299  :             ((WIN32FILE_IOWIN*)stream) -> error=(int)dwErr;

  00048	b9000a60	 str         w0,[x19,#8]

; 300  :             ret = (ZPOS64_T)-1;

  0004c	92800000	 mov         x0,#-1
  00050	a8c27bfd	 ldp         fp,lr,[sp],#0x20
  00054	f84107f3	 ldr         x19,[sp],#0x10
  00058	d65f03c0	 ret
  0005c		 |$LN4@win32_tell|

; 301  :         }
; 302  :         else
; 303  :             ret=pos.QuadPart;

  0005c	f9400be0	 ldr         x0,[sp,#0x10]
  00060		 |$LN5@win32_tell|
  00060	a8c27bfd	 ldp         fp,lr,[sp],#0x20
  00064	f84107f3	 ldr         x19,[sp],#0x10
  00068	d65f03c0	 ret

			 ENDP  ; |win32_tell64_file_func|

; Function compile flags: /Ogtp
; File C:\Users\ws103\Desktop\zlib-1.2.11\contrib\minizip\iowin32.c

	AREA	|.text$mn|, CODE, ARM64

  00000		 |win32_seek_file_func| PROC

; 310  : {

  00000		 |$LN15|
  00000	f81f0ff3	 str         x19,[sp,#-0x10]!
  00004	a9bf7bfd	 stp         fp,lr,[sp,#-0x10]!
  00008	910003fd	 mov         fp,sp
  0000c	aa0103f3	 mov         x19,x1
  00010	d3407c41	 uxtw        x1,w2

; 311  :     DWORD dwMoveMethod=0xFFFFFFFF;
; 312  :     HANDLE hFile = NULL;

  00014	d2800008	 mov         x8,#0

; 313  : 
; 314  :     long ret=-1;

  00018	12800000	 mov         w0,#-1

; 315  :     if (stream!=NULL)

  0001c	b4000013	 cbz         x19,|$LN4@win32_seek|

; 316  :         hFile = ((WIN32FILE_IOWIN*)stream) -> hf;

  00020	f9400268	 ldr         x8,[x19]
  00024		 |$LN4@win32_seek|

; 317  :     switch (origin)

  00024	34000003	 cbz         w3,|$LN7@win32_seek|
  00028	7100047f	 cmp         w3,#1
  0002c	54000000	 beq         |$LN5@win32_seek|
  00030	7100087f	 cmp         w3,#2
  00034	54000001	 bne         |$LN13@win32_seek|

; 322  :     case ZLIB_FILEFUNC_SEEK_END :
; 323  :         dwMoveMethod = FILE_END;

  00038	52800043	 mov         w3,#2

; 324  :         break;

  0003c	14000004	 b           |$LN2@win32_seek|
  00040		 |$LN5@win32_seek|

; 318  :     {
; 319  :     case ZLIB_FILEFUNC_SEEK_CUR :
; 320  :         dwMoveMethod = FILE_CURRENT;

  00040	52800023	 mov         w3,#1

; 321  :         break;

  00044	14000002	 b           |$LN2@win32_seek|
  00048		 |$LN7@win32_seek|

; 325  :     case ZLIB_FILEFUNC_SEEK_SET :
; 326  :         dwMoveMethod = FILE_BEGIN;

  00048	52800003	 mov         w3,#0
  0004c		 |$LN2@win32_seek|

; 327  :         break;
; 328  :     default: return -1;
; 329  :     }
; 330  : 
; 331  :     if (hFile != NULL)

  0004c	b4000008	 cbz         x8,|$LN1@win32_seek|

; 332  :     {
; 333  :         LARGE_INTEGER pos;
; 334  :         pos.QuadPart = offset;
; 335  :         if (!MySetFilePointerEx(hFile, pos, NULL, dwMoveMethod))

  00050	d2800002	 mov         x2,#0
  00054	aa0803e0	 mov         x0,x8
  00058	94000000	 bl          MySetFilePointerEx
  0005c	35000000	 cbnz        w0,|$LN10@win32_seek|

; 336  :         {
; 337  :             DWORD dwErr = GetLastError();

  00060	90000008	 adrp        x8,__imp_GetLastError
  00064	f9400108	 ldr         x8,[x8,PageOffset(__imp_GetLastError)]
  00068	d63f0100	 blr         x8

; 338  :             ((WIN32FILE_IOWIN*)stream) -> error=(int)dwErr;

  0006c	b9000a60	 str         w0,[x19,#8]
  00070		 |$LN13@win32_seek|

; 343  :     }
; 344  :     return ret;
; 345  : }

  00070	12800000	 mov         w0,#-1
  00074	a8c17bfd	 ldp         fp,lr,[sp],#0x10
  00078	f84107f3	 ldr         x19,[sp],#0x10
  0007c	d65f03c0	 ret
  00080		 |$LN10@win32_seek|

; 339  :             ret = -1;
; 340  :         }
; 341  :         else
; 342  :             ret=0;

  00080	52800000	 mov         w0,#0
  00084		 |$LN1@win32_seek|
  00084	a8c17bfd	 ldp         fp,lr,[sp],#0x10
  00088	f84107f3	 ldr         x19,[sp],#0x10
  0008c	d65f03c0	 ret

			 ENDP  ; |win32_seek_file_func|

; Function compile flags: /Ogtp
; File C:\Users\ws103\Desktop\zlib-1.2.11\contrib\minizip\iowin32.c

	AREA	|.text$mn|, CODE, ARM64

  00000		 |win32_seek64_file_func| PROC

; 348  : {

  00000		 |$LN15|
  00000	f81f0ff3	 str         x19,[sp,#-0x10]!
  00004	a9bf7bfd	 stp         fp,lr,[sp,#-0x10]!
  00008	910003fd	 mov         fp,sp
  0000c	aa0103f3	 mov         x19,x1
  00010	aa0203e1	 mov         x1,x2

; 349  :     DWORD dwMoveMethod=0xFFFFFFFF;
; 350  :     HANDLE hFile = NULL;

  00014	d2800008	 mov         x8,#0

; 351  :     long ret=-1;

  00018	12800000	 mov         w0,#-1

; 352  : 
; 353  :     if (stream!=NULL)

  0001c	b4000013	 cbz         x19,|$LN4@win32_seek|

; 354  :         hFile = ((WIN32FILE_IOWIN*)stream)->hf;

  00020	f9400268	 ldr         x8,[x19]
  00024		 |$LN4@win32_seek|

; 355  : 
; 356  :     switch (origin)

  00024	34000003	 cbz         w3,|$LN7@win32_seek|
  00028	7100047f	 cmp         w3,#1
  0002c	54000000	 beq         |$LN5@win32_seek|
  00030	7100087f	 cmp         w3,#2
  00034	54000001	 bne         |$LN13@win32_seek|

; 361  :         case ZLIB_FILEFUNC_SEEK_END :
; 362  :             dwMoveMethod = FILE_END;

  00038	52800043	 mov         w3,#2

; 363  :             break;

  0003c	14000004	 b           |$LN2@win32_seek|
  00040		 |$LN5@win32_seek|

; 357  :     {
; 358  :         case ZLIB_FILEFUNC_SEEK_CUR :
; 359  :             dwMoveMethod = FILE_CURRENT;

  00040	52800023	 mov         w3,#1

; 360  :             break;

  00044	14000002	 b           |$LN2@win32_seek|
  00048		 |$LN7@win32_seek|

; 364  :         case ZLIB_FILEFUNC_SEEK_SET :
; 365  :             dwMoveMethod = FILE_BEGIN;

  00048	52800003	 mov         w3,#0
  0004c		 |$LN2@win32_seek|

; 366  :             break;
; 367  :         default: return -1;
; 368  :     }
; 369  : 
; 370  :     if (hFile)

  0004c	b4000008	 cbz         x8,|$LN1@win32_seek|

; 371  :     {
; 372  :         LARGE_INTEGER pos;
; 373  :         pos.QuadPart = offset;
; 374  :         if (!MySetFilePointerEx(hFile, pos, NULL, dwMoveMethod))

  00050	d2800002	 mov         x2,#0
  00054	aa0803e0	 mov         x0,x8
  00058	94000000	 bl          MySetFilePointerEx
  0005c	35000000	 cbnz        w0,|$LN10@win32_seek|

; 375  :         {
; 376  :             DWORD dwErr = GetLastError();

  00060	90000008	 adrp        x8,__imp_GetLastError
  00064	f9400108	 ldr         x8,[x8,PageOffset(__imp_GetLastError)]
  00068	d63f0100	 blr         x8

; 377  :             ((WIN32FILE_IOWIN*)stream) -> error=(int)dwErr;

  0006c	b9000a60	 str         w0,[x19,#8]
  00070		 |$LN13@win32_seek|

; 382  :     }
; 383  :     return ret;
; 384  : }

  00070	12800000	 mov         w0,#-1
  00074	a8c17bfd	 ldp         fp,lr,[sp],#0x10
  00078	f84107f3	 ldr         x19,[sp],#0x10
  0007c	d65f03c0	 ret
  00080		 |$LN10@win32_seek|

; 378  :             ret = -1;
; 379  :         }
; 380  :         else
; 381  :             ret=0;

  00080	52800000	 mov         w0,#0
  00084		 |$LN1@win32_seek|
  00084	a8c17bfd	 ldp         fp,lr,[sp],#0x10
  00088	f84107f3	 ldr         x19,[sp],#0x10
  0008c	d65f03c0	 ret

			 ENDP  ; |win32_seek64_file_func|

; Function compile flags: /Ogtp
; File C:\Users\ws103\Desktop\zlib-1.2.11\contrib\minizip\iowin32.c

	AREA	|.text$mn|, CODE, ARM64

  00000		 |win32_close_file_func| PROC

; 387  : {

  00000		 |$LN6|
  00000	a9bf53f3	 stp         x19,x20,[sp,#-0x10]!
  00004	a9bf7bfd	 stp         fp,lr,[sp,#-0x10]!
  00008	910003fd	 mov         fp,sp
  0000c	aa0103f3	 mov         x19,x1

; 388  :     int ret=-1;

  00010	12800014	 mov         w20,#-1

; 389  : 
; 390  :     if (stream!=NULL)

  00014	b4000013	 cbz         x19,|$LN2@win32_clos|

; 391  :     {
; 392  :         HANDLE hFile;
; 393  :         hFile = ((WIN32FILE_IOWIN*)stream) -> hf;

  00018	f9400260	 ldr         x0,[x19]

; 394  :         if (hFile != NULL)

  0001c	b4000000	 cbz         x0,|$LN3@win32_clos|

; 395  :         {
; 396  :             CloseHandle(hFile);

  00020	90000008	 adrp        x8,__imp_CloseHandle
  00024	f9400108	 ldr         x8,[x8,PageOffset(__imp_CloseHandle)]
  00028	d63f0100	 blr         x8

; 397  :             ret=0;

  0002c	52800014	 mov         w20,#0
  00030		 |$LN3@win32_clos|

; 398  :         }
; 399  :         free(stream);

  00030	90000008	 adrp        x8,__imp_free
  00034	f9400108	 ldr         x8,[x8,PageOffset(__imp_free)]
  00038	aa1303e0	 mov         x0,x19
  0003c	d63f0100	 blr         x8
  00040		 |$LN2@win32_clos|

; 400  :     }
; 401  :     return ret;

  00040	2a1403e0	 mov         w0,w20
  00044	a8c17bfd	 ldp         fp,lr,[sp],#0x10
  00048	a8c153f3	 ldp         x19,x20,[sp],#0x10
  0004c	d65f03c0	 ret

			 ENDP  ; |win32_close_file_func|

; Function compile flags: /Ogtp
; File C:\Users\ws103\Desktop\zlib-1.2.11\contrib\minizip\iowin32.c

	AREA	|.text$mn|, CODE, ARM64

  00000		 |win32_error_file_func| PROC

; 406  :     int ret=-1;

  00000	12800000	 mov         w0,#-1

; 407  :     if (stream!=NULL)

  00004	b4000001	 cbz         x1,|$LN2@win32_erro|

; 408  :     {
; 409  :         ret = ((WIN32FILE_IOWIN*)stream) -> error;

  00008	b9400820	 ldr         w0,[x1,#8]
  0000c		 |$LN2@win32_erro|
  0000c	d65f03c0	 ret

			 ENDP  ; |win32_error_file_func|

; Function compile flags: /Ogtp
; File C:\Users\ws103\Desktop\zlib-1.2.11\contrib\minizip\iowin32.c

	AREA	|.text$mn|, CODE, ARM64

  00000		 |fill_win32_filefunc| PROC

; 416  :     pzlib_filefunc_def->zopen_file = win32_open_file_func;

  00000	90000008	 adrp        x8,win32_open_file_func
  00004	91000108	 add         x8,x8,PageOffset(win32_open_file_func)

; 417  :     pzlib_filefunc_def->zread_file = win32_read_file_func;
; 418  :     pzlib_filefunc_def->zwrite_file = win32_write_file_func;
; 419  :     pzlib_filefunc_def->ztell_file = win32_tell_file_func;
; 420  :     pzlib_filefunc_def->zseek_file = win32_seek_file_func;
; 421  :     pzlib_filefunc_def->zclose_file = win32_close_file_func;
; 422  :     pzlib_filefunc_def->zerror_file = win32_error_file_func;
; 423  :     pzlib_filefunc_def->opaque = NULL;

  00008	f9001c1f	 str         xzr,[x0,#0x38]
  0000c	f9000008	 str         x8,[x0]
  00010	90000009	 adrp        x9,win32_read_file_func
  00014	91000129	 add         x9,x9,PageOffset(win32_read_file_func)
  00018	90000008	 adrp        x8,win32_write_file_func
  0001c	91000108	 add         x8,x8,PageOffset(win32_write_file_func)
  00020	a900a009	 stp         x9,x8,[x0,#8]
  00024	90000008	 adrp        x8,win32_seek_file_func
  00028	91000108	 add         x8,x8,PageOffset(win32_seek_file_func)
  0002c	90000009	 adrp        x9,win32_tell_file_func
  00030	91000129	 add         x9,x9,PageOffset(win32_tell_file_func)
  00034	a901a009	 stp         x9,x8,[x0,#0x18]
  00038	90000008	 adrp        x8,win32_error_file_func
  0003c	91000108	 add         x8,x8,PageOffset(win32_error_file_func)
  00040	90000009	 adrp        x9,win32_close_file_func
  00044	91000129	 add         x9,x9,PageOffset(win32_close_file_func)
  00048	a902a009	 stp         x9,x8,[x0,#0x28]
  0004c	d65f03c0	 ret

			 ENDP  ; |fill_win32_filefunc|

; Function compile flags: /Ogtp
; File C:\Users\ws103\Desktop\zlib-1.2.11\contrib\minizip\iowin32.c

	AREA	|.text$mn|, CODE, ARM64

  00000		 |fill_win32_filefunc64| PROC

; 428  :     pzlib_filefunc_def->zopen64_file = win32_open64_file_func;

  00000	90000008	 adrp        x8,win32_open64_file_func
  00004	91000108	 add         x8,x8,PageOffset(win32_open64_file_func)

; 429  :     pzlib_filefunc_def->zread_file = win32_read_file_func;
; 430  :     pzlib_filefunc_def->zwrite_file = win32_write_file_func;
; 431  :     pzlib_filefunc_def->ztell64_file = win32_tell64_file_func;
; 432  :     pzlib_filefunc_def->zseek64_file = win32_seek64_file_func;
; 433  :     pzlib_filefunc_def->zclose_file = win32_close_file_func;
; 434  :     pzlib_filefunc_def->zerror_file = win32_error_file_func;
; 435  :     pzlib_filefunc_def->opaque = NULL;

  00008	f9001c1f	 str         xzr,[x0,#0x38]
  0000c	f9000008	 str         x8,[x0]
  00010	90000009	 adrp        x9,win32_read_file_func
  00014	91000129	 add         x9,x9,PageOffset(win32_read_file_func)
  00018	90000008	 adrp        x8,win32_write_file_func
  0001c	91000108	 add         x8,x8,PageOffset(win32_write_file_func)
  00020	a900a009	 stp         x9,x8,[x0,#8]
  00024	90000008	 adrp        x8,win32_seek64_file_func
  00028	91000108	 add         x8,x8,PageOffset(win32_seek64_file_func)
  0002c	90000009	 adrp        x9,win32_tell64_file_func
  00030	91000129	 add         x9,x9,PageOffset(win32_tell64_file_func)
  00034	a901a009	 stp         x9,x8,[x0,#0x18]
  00038	90000008	 adrp        x8,win32_error_file_func
  0003c	91000108	 add         x8,x8,PageOffset(win32_error_file_func)
  00040	90000009	 adrp        x9,win32_close_file_func
  00044	91000129	 add         x9,x9,PageOffset(win32_close_file_func)
  00048	a902a009	 stp         x9,x8,[x0,#0x28]
  0004c	d65f03c0	 ret

			 ENDP  ; |fill_win32_filefunc64|

; Function compile flags: /Ogtp
; File C:\Users\ws103\Desktop\zlib-1.2.11\contrib\minizip\iowin32.c

	AREA	|.text$mn|, CODE, ARM64

  00000		 |fill_win32_filefunc64A| PROC

; 441  :     pzlib_filefunc_def->zopen64_file = win32_open64_file_funcA;

  00000	90000008	 adrp        x8,win32_open64_file_funcA
  00004	91000108	 add         x8,x8,PageOffset(win32_open64_file_funcA)

; 442  :     pzlib_filefunc_def->zread_file = win32_read_file_func;
; 443  :     pzlib_filefunc_def->zwrite_file = win32_write_file_func;
; 444  :     pzlib_filefunc_def->ztell64_file = win32_tell64_file_func;
; 445  :     pzlib_filefunc_def->zseek64_file = win32_seek64_file_func;
; 446  :     pzlib_filefunc_def->zclose_file = win32_close_file_func;
; 447  :     pzlib_filefunc_def->zerror_file = win32_error_file_func;
; 448  :     pzlib_filefunc_def->opaque = NULL;

  00008	f9001c1f	 str         xzr,[x0,#0x38]
  0000c	f9000008	 str         x8,[x0]
  00010	90000009	 adrp        x9,win32_read_file_func
  00014	91000129	 add         x9,x9,PageOffset(win32_read_file_func)
  00018	90000008	 adrp        x8,win32_write_file_func
  0001c	91000108	 add         x8,x8,PageOffset(win32_write_file_func)
  00020	a900a009	 stp         x9,x8,[x0,#8]
  00024	90000008	 adrp        x8,win32_seek64_file_func
  00028	91000108	 add         x8,x8,PageOffset(win32_seek64_file_func)
  0002c	90000009	 adrp        x9,win32_tell64_file_func
  00030	91000129	 add         x9,x9,PageOffset(win32_tell64_file_func)
  00034	a901a009	 stp         x9,x8,[x0,#0x18]
  00038	90000008	 adrp        x8,win32_error_file_func
  0003c	91000108	 add         x8,x8,PageOffset(win32_error_file_func)
  00040	90000009	 adrp        x9,win32_close_file_func
  00044	91000129	 add         x9,x9,PageOffset(win32_close_file_func)
  00048	a902a009	 stp         x9,x8,[x0,#0x28]
  0004c	d65f03c0	 ret

			 ENDP  ; |fill_win32_filefunc64A|

; Function compile flags: /Ogtp
; File C:\Users\ws103\Desktop\zlib-1.2.11\contrib\minizip\iowin32.c

	AREA	|.text$mn|, CODE, ARM64

  00000		 |fill_win32_filefunc64W| PROC

; 454  :     pzlib_filefunc_def->zopen64_file = win32_open64_file_funcW;

  00000	90000008	 adrp        x8,win32_open64_file_funcW
  00004	91000108	 add         x8,x8,PageOffset(win32_open64_file_funcW)

; 455  :     pzlib_filefunc_def->zread_file = win32_read_file_func;
; 456  :     pzlib_filefunc_def->zwrite_file = win32_write_file_func;
; 457  :     pzlib_filefunc_def->ztell64_file = win32_tell64_file_func;
; 458  :     pzlib_filefunc_def->zseek64_file = win32_seek64_file_func;
; 459  :     pzlib_filefunc_def->zclose_file = win32_close_file_func;
; 460  :     pzlib_filefunc_def->zerror_file = win32_error_file_func;
; 461  :     pzlib_filefunc_def->opaque = NULL;

  00008	f9001c1f	 str         xzr,[x0,#0x38]
  0000c	f9000008	 str         x8,[x0]
  00010	90000009	 adrp        x9,win32_read_file_func
  00014	91000129	 add         x9,x9,PageOffset(win32_read_file_func)
  00018	90000008	 adrp        x8,win32_write_file_func
  0001c	91000108	 add         x8,x8,PageOffset(win32_write_file_func)
  00020	a900a009	 stp         x9,x8,[x0,#8]
  00024	90000008	 adrp        x8,win32_seek64_file_func
  00028	91000108	 add         x8,x8,PageOffset(win32_seek64_file_func)
  0002c	90000009	 adrp        x9,win32_tell64_file_func
  00030	91000129	 add         x9,x9,PageOffset(win32_tell64_file_func)
  00034	a901a009	 stp         x9,x8,[x0,#0x18]
  00038	90000008	 adrp        x8,win32_error_file_func
  0003c	91000108	 add         x8,x8,PageOffset(win32_error_file_func)
  00040	90000009	 adrp        x9,win32_close_file_func
  00044	91000129	 add         x9,x9,PageOffset(win32_close_file_func)
  00048	a902a009	 stp         x9,x8,[x0,#0x28]
  0004c	d65f03c0	 ret

			 ENDP  ; |fill_win32_filefunc64W|

	END
