; Listing generated by Microsoft (R) Optimizing Compiler Version 19.28.29335.0 

	TTL	c:\users\ws103\desktop\zlib-1.2.11\contrib\minizip\unzip.c
	ARM64

	AREA	|.drectve|, DRECTVE

	EXPORT	|unz_copyright| [ DATA ]
	%	13
|unz_copyright| DCB " unzip 1.01 Copyright 1998-2004 Gilles Vollant - htt"
	DCB	"p://www.winimage.com/zLibDll", 0x0
	EXPORT	|unzSetOffset|
	EXPORT	|unzSetOffset64|
	EXPORT	|unzGetOffset|
	EXPORT	|unzGetOffset64|
	EXPORT	|unzGetGlobalComment|
	EXPORT	|unzCloseCurrentFile|
	EXPORT	|unzGetLocalExtrafield|
	EXPORT	|unzeof|
	EXPORT	|unztell64|
	EXPORT	|unztell|
	EXPORT	|unzReadCurrentFile|
	EXPORT	|unzGetCurrentFileZStreamPos64|
	EXPORT	|unzOpenCurrentFile2|
	EXPORT	|unzOpenCurrentFilePassword|
	EXPORT	|unzOpenCurrentFile|
	EXPORT	|unzOpenCurrentFile3|
	EXPORT	|unzGoToFilePos|
	EXPORT	|unzGoToFilePos64|
	EXPORT	|unzGetFilePos|
	EXPORT	|unzGetFilePos64|
	EXPORT	|unzLocateFile|
	EXPORT	|unzGoToNextFile|
	EXPORT	|unzGoToFirstFile|
	EXPORT	|unzGetCurrentFileInfo|
	EXPORT	|unzGetCurrentFileInfo64|
	EXPORT	|unzGetGlobalInfo|
	EXPORT	|unzGetGlobalInfo64|
	EXPORT	|unzClose|
	EXPORT	|unzOpen64|
	EXPORT	|unzOpen|
	EXPORT	|unzOpen2_64|
	EXPORT	|unzOpen2|
	EXPORT	|unzStringFileNameCompare|

	AREA	|.pdata|, PDATA
|$pdata$unzSetOffset64| DCD imagerel |$LN5|
	DCD	imagerel |$unwind$unzSetOffset64|

	AREA	|.pdata|, PDATA
|$pdata$unzGetOffset| DCD imagerel |$LN5|
	DCD	imagerel |$unwind$unzGetOffset|

	AREA	|.pdata|, PDATA
|$pdata$unzGetGlobalComment| DCD imagerel |$LN11|
	DCD	imagerel |$unwind$unzGetGlobalComment|

	AREA	|.pdata|, PDATA
|$pdata$unzCloseCurrentFile| DCD imagerel |$LN12|
	DCD	imagerel |$unwind$unzCloseCurrentFile|

	AREA	|.pdata|, PDATA
|$pdata$unzGetLocalExtrafield| DCD imagerel |$LN14|
	DCD	imagerel |$unwind$unzGetLocalExtrafield|

	AREA	|.pdata|, PDATA
|$pdata$unzReadCurrentFile| DCD imagerel |$LN53|
	DCD	0x2e702fd
	;Flags[SingleProEpi] functionLength[764] RegF[0] RegI[7] H[0] frameChainReturn[Chained] frameSize[80]

	AREA	|.pdata|, PDATA
|$pdata$unzOpenCurrentFile3| DCD imagerel |$LN29|
	DCD	imagerel |$unwind$unzOpenCurrentFile3|

	AREA	|.pdata|, PDATA
|$pdata$unz64local_CheckCurrentFileCoherencyHeader| DCD imagerel |unz64local_CheckCurrentFileCoherencyHeader|
	DCD	imagerel |$unwind$unz64local_CheckCurrentFileCoherencyHeader|

	AREA	|.pdata|, PDATA
|$pdata$unzGoToFilePos| DCD imagerel |$LN5|
	DCD	imagerel |$unwind$unzGoToFilePos|

	AREA	|.pdata|, PDATA
|$pdata$unzGoToFilePos64| DCD imagerel |$LN6|
	DCD	imagerel |$unwind$unzGoToFilePos64|

	AREA	|.pdata|, PDATA
|$pdata$unzGetFilePos| DCD imagerel |$LN5|
	DCD	0x1e10035
	;Flags[SingleProEpi] functionLength[52] RegF[0] RegI[1] H[0] frameChainReturn[Chained] frameSize[48]

	AREA	|.pdata|, PDATA
|$pdata$unzLocateFile| DCD imagerel |$LN24|
	DCD	imagerel |$unwind$unzLocateFile|

	AREA	|.pdata|, PDATA
|$pdata$unzGoToNextFile| DCD imagerel |$LN11|
	DCD	imagerel |$unwind$unzGoToNextFile|

	AREA	|.pdata|, PDATA
|$pdata$unzGoToFirstFile| DCD imagerel |$LN5|
	DCD	imagerel |$unwind$unzGoToFirstFile|

	AREA	|.pdata|, PDATA
|$pdata$unzGetCurrentFileInfo| DCD imagerel |$LN5|
	DCD	0x46100a1
	;Flags[SingleProEpi] functionLength[160] RegF[0] RegI[1] H[0] frameChainReturn[Chained] frameSize[128]

	AREA	|.pdata|, PDATA
|$pdata$unzGetCurrentFileInfo64| DCD imagerel |$LN4|
	DCD	0xe00039
	;Flags[SingleProEpi] functionLength[56] RegF[0] RegI[0] H[0] frameChainReturn[Chained] frameSize[16]

	AREA	|.pdata|, PDATA
|$pdata$unz64local_GetCurrentFileInfoInternal| DCD imagerel |unz64local_GetCurrentFileInfoInternal|
	DCD	0x8e90605
	;Flags[SingleProEpi] functionLength[1540] RegF[0] RegI[9] H[0] frameChainReturn[Chained] frameSize[272]

	AREA	|.pdata|, PDATA
|$pdata$unzClose| DCD imagerel |$LN7|
	DCD	imagerel |$unwind$unzClose|

	AREA	|.pdata|, PDATA
|$pdata$unzOpen2_64| DCD imagerel |$LN7|
	DCD	imagerel |$unwind$unzOpen2_64|

	AREA	|.pdata|, PDATA
|$pdata$unzOpen2| DCD imagerel |$LN7|
	DCD	imagerel |$unwind$unzOpen2|

	AREA	|.pdata|, PDATA
|$pdata$unzOpenInternal| DCD imagerel |unzOpenInternal|
	DCD	imagerel |$unwind$unzOpenInternal|

	AREA	|.pdata|, PDATA
|$pdata$unz64local_SearchCentralDir64| DCD imagerel |unz64local_SearchCentralDir64|
	DCD	0x4690269
	;Flags[SingleProEpi] functionLength[616] RegF[0] RegI[9] H[0] frameChainReturn[Chained] frameSize[128]

	AREA	|.pdata|, PDATA
|$pdata$unz64local_SearchCentralDir| DCD imagerel |unz64local_SearchCentralDir|
	DCD	0x3e901a9
	;Flags[SingleProEpi] functionLength[424] RegF[0] RegI[9] H[0] frameChainReturn[Chained] frameSize[112]

	AREA	|.pdata|, PDATA
|$pdata$unz64local_getLong64| DCD imagerel |unz64local_getLong64|
	DCD	imagerel |$unwind$unz64local_getLong64|

	AREA	|.pdata|, PDATA
|$pdata$unz64local_getLong| DCD imagerel |unz64local_getLong|
	DCD	imagerel |$unwind$unz64local_getLong|

	AREA	|.pdata|, PDATA
|$pdata$unz64local_getShort| DCD imagerel |unz64local_getShort|
	DCD	imagerel |$unwind$unz64local_getShort|

	AREA	|.pdata|, PDATA
|$pdata$unz64local_getByte| DCD imagerel |unz64local_getByte|
	DCD	imagerel |$unwind$unz64local_getByte|

	AREA	|.xdata|, DATA
|$unwind$unz64local_getByte| DCD 0x1080001e
	DCD	0x400011
	DCD	0x40001a
	DCD	0x82d083e1
	DCD	0xe3e3e424
	;Code Words[2], Epilog Count[2], E[0], X[0], Function Length[30]=120 bytes
	;Epilog Start Index[1], Epilog Start Offset[17]=68 bytes
	;Epilog Start Index[1], Epilog Start Offset[26]=104 bytes
	;set_fp
	;save_fplr_x
	;save_reg
	;save_r19r20_x
	;end
	;nop
	;nop

	AREA	|.xdata|, DATA
|$unwind$unz64local_getShort| DCD 0x1080001e
	DCD	0x400014
	DCD	0x40001a
	DCD	0x82c883e1
	DCD	0xe3e3e424
	;Code Words[2], Epilog Count[2], E[0], X[0], Function Length[30]=120 bytes
	;Epilog Start Index[1], Epilog Start Offset[20]=80 bytes
	;Epilog Start Index[1], Epilog Start Offset[26]=104 bytes
	;set_fp
	;save_fplr_x
	;save_regp
	;save_r19r20_x
	;end
	;nop
	;nop

	AREA	|.xdata|, DATA
|$unwind$unz64local_getLong| DCD 0x1080002d
	DCD	0x400023
	DCD	0x400029
	DCD	0x82c883e1
	DCD	0xe3e3e424
	;Code Words[2], Epilog Count[2], E[0], X[0], Function Length[45]=180 bytes
	;Epilog Start Index[1], Epilog Start Offset[35]=140 bytes
	;Epilog Start Index[1], Epilog Start Offset[41]=164 bytes
	;set_fp
	;save_fplr_x
	;save_regp
	;save_r19r20_x
	;end
	;nop
	;nop

	AREA	|.xdata|, DATA
|$unwind$unz64local_getLong64| DCD 0x1080004f
	DCD	0x400045
	DCD	0x40004b
	DCD	0x82c883e1
	DCD	0xe3e3e424
	;Code Words[2], Epilog Count[2], E[0], X[0], Function Length[79]=316 bytes
	;Epilog Start Index[1], Epilog Start Offset[69]=276 bytes
	;Epilog Start Index[1], Epilog Start Offset[75]=300 bytes
	;set_fp
	;save_fplr_x
	;save_regp
	;save_r19r20_x
	;end
	;nop
	;nop

	AREA	|.xdata|, DATA
|$unwind$unzOpenInternal| DCD 0x108000f4
	DCD	0x4000d9
	DCD	0x4000f0
	DCD	0x82c8a9e1
	DCD	0xe3e3e424
	;Code Words[2], Epilog Count[2], E[0], X[0], Function Length[244]=976 bytes
	;Epilog Start Index[1], Epilog Start Offset[217]=868 bytes
	;Epilog Start Index[1], Epilog Start Offset[240]=960 bytes
	;set_fp
	;save_fplr_x
	;save_regp
	;save_r19r20_x
	;end
	;nop
	;nop

	AREA	|.xdata|, DATA
|$unwind$unzOpen2| DCD 0x8800012
	DCD	0x40000a
	DCD	0x400010
	DCD	0xe3e48de1
	;Code Words[1], Epilog Count[2], E[0], X[0], Function Length[18]=72 bytes
	;Epilog Start Index[1], Epilog Start Offset[10]=40 bytes
	;Epilog Start Index[1], Epilog Start Offset[16]=64 bytes
	;set_fp
	;save_fplr_x
	;end
	;nop

	AREA	|.xdata|, DATA
|$unwind$unzOpen2_64| DCD 0x8800016
	DCD	0x400010
	DCD	0x400014
	DCD	0xe3e48de1
	;Code Words[1], Epilog Count[2], E[0], X[0], Function Length[22]=88 bytes
	;Epilog Start Index[1], Epilog Start Offset[16]=64 bytes
	;Epilog Start Index[1], Epilog Start Offset[20]=80 bytes
	;set_fp
	;save_fplr_x
	;end
	;nop

	AREA	|.xdata|, DATA
|$unwind$unzClose| DCD 0x10800019
	DCD	0x400006
	DCD	0x400016
	DCD	0x1d481e1
	DCD	0xe3e3e3e4
	;Code Words[2], Epilog Count[2], E[0], X[0], Function Length[25]=100 bytes
	;Epilog Start Index[1], Epilog Start Offset[6]=24 bytes
	;Epilog Start Index[1], Epilog Start Offset[22]=88 bytes
	;set_fp
	;save_fplr_x
	;save_reg_x
	;end
	;nop
	;nop
	;nop

	AREA	|.xdata|, DATA
|$unwind$unzGoToFirstFile| DCD 0x1080001e
	DCD	0x7
	DCD	0x1a
	DCD	0x1d481e1
	DCD	0xe3e3e3e4
	;Code Words[2], Epilog Count[2], E[0], X[0], Function Length[30]=120 bytes
	;Epilog Start Index[0], Epilog Start Offset[7]=28 bytes
	;Epilog Start Index[0], Epilog Start Offset[26]=104 bytes
	;set_fp
	;save_fplr_x
	;save_reg_x
	;end
	;nop
	;nop
	;nop

	AREA	|.xdata|, DATA
|$unwind$unzGoToNextFile| DCD 0x10c00036
	DCD	0x7
	DCD	0x2d
	DCD	0x32
	DCD	0x1d481e1
	DCD	0xe3e3e3e4
	;Code Words[2], Epilog Count[3], E[0], X[0], Function Length[54]=216 bytes
	;Epilog Start Index[0], Epilog Start Offset[7]=28 bytes
	;Epilog Start Index[0], Epilog Start Offset[45]=180 bytes
	;Epilog Start Index[0], Epilog Start Offset[50]=200 bytes
	;set_fp
	;save_fplr_x
	;save_reg_x
	;end
	;nop
	;nop
	;nop

	AREA	|.xdata|, DATA
|$unwind$unzLocateFile| DCD 0x11000060
	DCD	0x400017
	DCD	0x400041
	DCD	0x400055
	DCD	0x40005b
	DCD	0x4c9ade1
	DCD	0xe42682c8
	;Code Words[2], Epilog Count[4], E[0], X[0], Function Length[96]=384 bytes
	;Epilog Start Index[1], Epilog Start Offset[23]=92 bytes
	;Epilog Start Index[1], Epilog Start Offset[65]=260 bytes
	;Epilog Start Index[1], Epilog Start Offset[85]=340 bytes
	;Epilog Start Index[1], Epilog Start Offset[91]=364 bytes
	;set_fp
	;save_fplr_x
	;save_regp
	;save_regp
	;save_r19r20_x
	;end

	AREA	|.xdata|, DATA
|$unwind$unzGoToFilePos64| DCD 0x10800020
	DCD	0x17
	DCD	0x1c
	DCD	0x1d481e1
	DCD	0xe3e3e3e4
	;Code Words[2], Epilog Count[2], E[0], X[0], Function Length[32]=128 bytes
	;Epilog Start Index[0], Epilog Start Offset[23]=92 bytes
	;Epilog Start Index[0], Epilog Start Offset[28]=112 bytes
	;set_fp
	;save_fplr_x
	;save_reg_x
	;end
	;nop
	;nop
	;nop

	AREA	|.xdata|, DATA
|$unwind$unzGoToFilePos| DCD 0x880000c
	DCD	0x400004
	DCD	0x40000a
	DCD	0xe3e483e1
	;Code Words[1], Epilog Count[2], E[0], X[0], Function Length[12]=48 bytes
	;Epilog Start Index[1], Epilog Start Offset[4]=16 bytes
	;Epilog Start Index[1], Epilog Start Offset[10]=40 bytes
	;set_fp
	;save_fplr_x
	;end
	;nop

	AREA	|.xdata|, DATA
|$unwind$unz64local_CheckCurrentFileCoherencyHeader| DCD 0x108000a4
	DCD	0x400014
	DCD	0x40009f
	DCD	0x4c983e1
	DCD	0xe42682c8
	;Code Words[2], Epilog Count[2], E[0], X[0], Function Length[164]=656 bytes
	;Epilog Start Index[1], Epilog Start Offset[20]=80 bytes
	;Epilog Start Index[1], Epilog Start Offset[159]=636 bytes
	;set_fp
	;save_fplr_x
	;save_regp
	;save_regp
	;save_r19r20_x
	;end

	AREA	|.xdata|, DATA
|$unwind$unzOpenCurrentFile3| DCD 0x1140009d
	DCD	0x400017
	DCD	0x400033
	DCD	0x400076
	DCD	0x400092
	DCD	0x400098
	DCD	0x4d183e1
	DCD	0xe42682c8
	;Code Words[2], Epilog Count[5], E[0], X[0], Function Length[157]=628 bytes
	;Epilog Start Index[1], Epilog Start Offset[23]=92 bytes
	;Epilog Start Index[1], Epilog Start Offset[51]=204 bytes
	;Epilog Start Index[1], Epilog Start Offset[118]=472 bytes
	;Epilog Start Index[1], Epilog Start Offset[146]=584 bytes
	;Epilog Start Index[1], Epilog Start Offset[152]=608 bytes
	;set_fp
	;save_fplr_x
	;save_reg
	;save_regp
	;save_r19r20_x
	;end

	AREA	|.xdata|, DATA
|$unwind$unzGetLocalExtrafield| DCD 0x11000035
	DCD	0x40000e
	DCD	0x400017
	DCD	0x40002c
	DCD	0x400031
	DCD	0x82d081e1
	DCD	0xe3e3e424
	;Code Words[2], Epilog Count[4], E[0], X[0], Function Length[53]=212 bytes
	;Epilog Start Index[1], Epilog Start Offset[14]=56 bytes
	;Epilog Start Index[1], Epilog Start Offset[23]=92 bytes
	;Epilog Start Index[1], Epilog Start Offset[44]=176 bytes
	;Epilog Start Index[1], Epilog Start Offset[49]=196 bytes
	;set_fp
	;save_fplr_x
	;save_reg
	;save_r19r20_x
	;end
	;nop
	;nop

	AREA	|.xdata|, DATA
|$unwind$unzCloseCurrentFile| DCD 0x1080002c
	DCD	0x400023
	DCD	0x400028
	DCD	0x82d081e1
	DCD	0xe3e3e424
	;Code Words[2], Epilog Count[2], E[0], X[0], Function Length[44]=176 bytes
	;Epilog Start Index[1], Epilog Start Offset[35]=140 bytes
	;Epilog Start Index[1], Epilog Start Offset[40]=160 bytes
	;set_fp
	;save_fplr_x
	;save_reg
	;save_r19r20_x
	;end
	;nop
	;nop

	AREA	|.xdata|, DATA
|$unwind$unzGetGlobalComment| DCD 0x10c00033
	DCD	0x400009
	DCD	0x40002a
	DCD	0x40002f
	DCD	0x82c881e1
	DCD	0xe3e3e424
	;Code Words[2], Epilog Count[3], E[0], X[0], Function Length[51]=204 bytes
	;Epilog Start Index[1], Epilog Start Offset[9]=36 bytes
	;Epilog Start Index[1], Epilog Start Offset[42]=168 bytes
	;Epilog Start Index[1], Epilog Start Offset[47]=188 bytes
	;set_fp
	;save_fplr_x
	;save_regp
	;save_r19r20_x
	;end
	;nop
	;nop

	AREA	|.xdata|, DATA
|$unwind$unzGetOffset| DCD 0x880000a
	DCD	0x400004
	DCD	0x400008
	DCD	0xe3e481e1
	;Code Words[1], Epilog Count[2], E[0], X[0], Function Length[10]=40 bytes
	;Epilog Start Index[1], Epilog Start Offset[4]=16 bytes
	;Epilog Start Index[1], Epilog Start Offset[8]=32 bytes
	;set_fp
	;save_fplr_x
	;end
	;nop

	AREA	|.xdata|, DATA
|$unwind$unzSetOffset64| DCD 0x1080001e
	DCD	0x7
	DCD	0x1a
	DCD	0x1d481e1
	DCD	0xe3e3e3e4
	;Code Words[2], Epilog Count[2], E[0], X[0], Function Length[30]=120 bytes
	;Epilog Start Index[0], Epilog Start Offset[7]=28 bytes
	;Epilog Start Index[0], Epilog Start Offset[26]=104 bytes
	;set_fp
	;save_fplr_x
	;save_reg_x
	;end
	;nop
	;nop
	;nop
; Function compile flags: /Ogtp
; File C:\Users\ws103\Desktop\zlib-1.2.11\contrib\minizip\unzip.c

	AREA	|.text$mn|, CODE, ARM64

  00000		 |unz64local_getByte| PROC

; 213  : {

  00000	a9be53f3	 stp         x19,x20,[sp,#-0x20]!
  00004	f9000bf5	 str         x21,[sp,#0x10]
  00008	a9be7bfd	 stp         fp,lr,[sp,#-0x20]!
  0000c	910003fd	 mov         fp,sp
  00010	aa0003f3	 mov         x19,x0

; 214  :     unsigned char c;
; 215  :     int err = (int)ZREAD64(*pzlib_filefunc_def,filestream,&c,1);

  00014	f9401e60	 ldr         x0,[x19,#0x38]
  00018	aa0203f4	 mov         x20,x2
  0001c	f9400668	 ldr         x8,[x19,#8]
  00020	52800023	 mov         w3,#1
  00024	910043e2	 add         x2,sp,#0x10
  00028	aa0103f5	 mov         x21,x1
  0002c	d63f0100	 blr         x8

; 216  :     if (err==1)

  00030	7100041f	 cmp         w0,#1
  00034	54000001	 bne         |$LN2@unz64local|

; 217  :     {
; 218  :         *pi = (int)c;

  00038	394043e8	 ldrb        w8,[sp,#0x10]

; 219  :         return UNZ_OK;

  0003c	52800000	 mov         w0,#0
  00040	b9000288	 str         w8,[x20]
  00044	a8c27bfd	 ldp         fp,lr,[sp],#0x20
  00048	f9400bf5	 ldr         x21,[sp,#0x10]
  0004c	a8c253f3	 ldp         x19,x20,[sp],#0x20
  00050	d65f03c0	 ret
  00054		 |$LN2@unz64local|

; 220  :     }
; 221  :     else
; 222  :     {
; 223  :         if (ZERROR64(*pzlib_filefunc_def,filestream))

  00054	a9430268	 ldp         x8,x0,[x19,#0x30]
  00058	aa1503e1	 mov         x1,x21
  0005c	d63f0100	 blr         x8
  00060	7100001f	 cmp         w0,#0
  00064	5a9f03e0	 csetmne     w0
  00068	a8c27bfd	 ldp         fp,lr,[sp],#0x20
  0006c	f9400bf5	 ldr         x21,[sp,#0x10]
  00070	a8c253f3	 ldp         x19,x20,[sp],#0x20
  00074	d65f03c0	 ret

			 ENDP  ; |unz64local_getByte|

; Function compile flags: /Ogtp
; File C:\Users\ws103\Desktop\zlib-1.2.11\contrib\minizip\unzip.c

	AREA	|.text$mn|, CODE, ARM64

  00000		 |unz64local_getShort| PROC

; 242  : {

  00000	a9be53f3	 stp         x19,x20,[sp,#-0x20]!
  00004	a9015bf5	 stp         x21,x22,[sp,#0x10]
  00008	a9be7bfd	 stp         fp,lr,[sp,#-0x20]!
  0000c	910003fd	 mov         fp,sp
  00010	aa0203f3	 mov         x19,x2

; 243  :     uLong x ;
; 244  :     int i = 0;

  00014	b90013ff	 str         wzr,[sp,#0x10]

; 245  :     int err;
; 246  : 
; 247  :     err = unz64local_getByte(pzlib_filefunc_def,filestream,&i);

  00018	910043e2	 add         x2,sp,#0x10
  0001c	aa0003f5	 mov         x21,x0
  00020	aa0103f6	 mov         x22,x1
  00024	94000000	 bl          unz64local_getByte

; 248  :     x = (uLong)i;

  00028	b94013f4	 ldr         w20,[sp,#0x10]

; 249  : 
; 250  :     if (err==UNZ_OK)

  0002c	35000000	 cbnz        w0,|$LN3@unz64local|

; 251  :         err = unz64local_getByte(pzlib_filefunc_def,filestream,&i);

  00030	910043e2	 add         x2,sp,#0x10
  00034	aa1603e1	 mov         x1,x22
  00038	aa1503e0	 mov         x0,x21
  0003c	94000000	 bl          unz64local_getByte

; 253  : 
; 254  :     if (err==UNZ_OK)

  00040	35000000	 cbnz        w0,|$LN3@unz64local|

; 252  :     x |= ((uLong)i)<<8;

  00044	b94013e8	 ldr         w8,[sp,#0x10]
  00048	2a082289	 orr         w9,w20,w8,lsl #8

; 258  :     return err;

  0004c	b9000269	 str         w9,[x19]
  00050	a8c27bfd	 ldp         fp,lr,[sp],#0x20
  00054	a9415bf5	 ldp         x21,x22,[sp,#0x10]
  00058	a8c253f3	 ldp         x19,x20,[sp],#0x20
  0005c	d65f03c0	 ret
  00060		 |$LN3@unz64local|

; 255  :         *pX = x;
; 256  :     else
; 257  :         *pX = 0;

  00060	52800009	 mov         w9,#0

; 258  :     return err;

  00064	b9000269	 str         w9,[x19]
  00068	a8c27bfd	 ldp         fp,lr,[sp],#0x20
  0006c	a9415bf5	 ldp         x21,x22,[sp,#0x10]
  00070	a8c253f3	 ldp         x19,x20,[sp],#0x20
  00074	d65f03c0	 ret

			 ENDP  ; |unz64local_getShort|

; Function compile flags: /Ogtp
; File C:\Users\ws103\Desktop\zlib-1.2.11\contrib\minizip\unzip.c

	AREA	|.text$mn|, CODE, ARM64

  00000		 |unz64local_getLong| PROC

; 269  : {

  00000	a9be53f3	 stp         x19,x20,[sp,#-0x20]!
  00004	a9015bf5	 stp         x21,x22,[sp,#0x10]
  00008	a9be7bfd	 stp         fp,lr,[sp,#-0x20]!
  0000c	910003fd	 mov         fp,sp
  00010	aa0203f6	 mov         x22,x2

; 270  :     uLong x ;
; 271  :     int i = 0;

  00014	b90013ff	 str         wzr,[sp,#0x10]

; 272  :     int err;
; 273  : 
; 274  :     err = unz64local_getByte(pzlib_filefunc_def,filestream,&i);

  00018	910043e2	 add         x2,sp,#0x10
  0001c	aa0003f4	 mov         x20,x0
  00020	aa0103f5	 mov         x21,x1
  00024	94000000	 bl          unz64local_getByte

; 275  :     x = (uLong)i;

  00028	b94013e8	 ldr         w8,[sp,#0x10]
  0002c	2a0803f3	 mov         w19,w8

; 276  : 
; 277  :     if (err==UNZ_OK)

  00030	35000000	 cbnz        w0,|$LN2@unz64local|

; 278  :         err = unz64local_getByte(pzlib_filefunc_def,filestream,&i);

  00034	910043e2	 add         x2,sp,#0x10
  00038	aa1503e1	 mov         x1,x21
  0003c	aa1403e0	 mov         x0,x20
  00040	94000000	 bl          unz64local_getByte
  00044	b94013e8	 ldr         w8,[sp,#0x10]
  00048		 |$LN2@unz64local|

; 279  :     x |= ((uLong)i)<<8;

  00048	2a082273	 orr         w19,w19,w8,lsl #8

; 280  : 
; 281  :     if (err==UNZ_OK)

  0004c	35000000	 cbnz        w0,|$LN3@unz64local|

; 282  :         err = unz64local_getByte(pzlib_filefunc_def,filestream,&i);

  00050	910043e2	 add         x2,sp,#0x10
  00054	aa1503e1	 mov         x1,x21
  00058	aa1403e0	 mov         x0,x20
  0005c	94000000	 bl          unz64local_getByte
  00060	b94013e8	 ldr         w8,[sp,#0x10]
  00064		 |$LN3@unz64local|

; 283  :     x |= ((uLong)i)<<16;

  00064	2a084273	 orr         w19,w19,w8,lsl #0x10

; 284  : 
; 285  :     if (err==UNZ_OK)

  00068	35000000	 cbnz        w0,|$LN5@unz64local|

; 286  :         err = unz64local_getByte(pzlib_filefunc_def,filestream,&i);

  0006c	910043e2	 add         x2,sp,#0x10
  00070	aa1503e1	 mov         x1,x21
  00074	aa1403e0	 mov         x0,x20
  00078	94000000	 bl          unz64local_getByte

; 288  : 
; 289  :     if (err==UNZ_OK)

  0007c	35000000	 cbnz        w0,|$LN5@unz64local|

; 287  :     x += ((uLong)i)<<24;

  00080	b94013e8	 ldr         w8,[sp,#0x10]
  00084	0b086269	 add         w9,w19,w8,lsl #0x18

; 293  :     return err;

  00088	b90002c9	 str         w9,[x22]
  0008c	a8c27bfd	 ldp         fp,lr,[sp],#0x20
  00090	a9415bf5	 ldp         x21,x22,[sp,#0x10]
  00094	a8c253f3	 ldp         x19,x20,[sp],#0x20
  00098	d65f03c0	 ret
  0009c		 |$LN5@unz64local|

; 290  :         *pX = x;
; 291  :     else
; 292  :         *pX = 0;

  0009c	52800009	 mov         w9,#0

; 293  :     return err;

  000a0	b90002c9	 str         w9,[x22]
  000a4	a8c27bfd	 ldp         fp,lr,[sp],#0x20
  000a8	a9415bf5	 ldp         x21,x22,[sp,#0x10]
  000ac	a8c253f3	 ldp         x19,x20,[sp],#0x20
  000b0	d65f03c0	 ret

			 ENDP  ; |unz64local_getLong|

; Function compile flags: /Ogtp
; File C:\Users\ws103\Desktop\zlib-1.2.11\contrib\minizip\unzip.c

	AREA	|.text$mn|, CODE, ARM64

  00000		 |unz64local_getLong64| PROC

; 305  : {

  00000	a9be53f3	 stp         x19,x20,[sp,#-0x20]!
  00004	a9015bf5	 stp         x21,x22,[sp,#0x10]
  00008	a9be7bfd	 stp         fp,lr,[sp,#-0x20]!
  0000c	910003fd	 mov         fp,sp
  00010	aa0203f6	 mov         x22,x2

; 306  :     ZPOS64_T x ;
; 307  :     int i = 0;

  00014	b90013ff	 str         wzr,[sp,#0x10]

; 308  :     int err;
; 309  : 
; 310  :     err = unz64local_getByte(pzlib_filefunc_def,filestream,&i);

  00018	910043e2	 add         x2,sp,#0x10
  0001c	aa0003f3	 mov         x19,x0
  00020	aa0103f4	 mov         x20,x1
  00024	94000000	 bl          unz64local_getByte

; 311  :     x = (ZPOS64_T)i;

  00028	b94013e9	 ldr         w9,[sp,#0x10]
  0002c	93407d35	 sxtw        x21,w9

; 312  : 
; 313  :     if (err==UNZ_OK)

  00030	35000000	 cbnz        w0,|$LN2@unz64local|

; 314  :         err = unz64local_getByte(pzlib_filefunc_def,filestream,&i);

  00034	910043e2	 add         x2,sp,#0x10
  00038	aa1403e1	 mov         x1,x20
  0003c	aa1303e0	 mov         x0,x19
  00040	94000000	 bl          unz64local_getByte
  00044	b94013e9	 ldr         w9,[sp,#0x10]
  00048		 |$LN2@unz64local|

; 315  :     x |= ((ZPOS64_T)i)<<8;

  00048	93407d28	 sxtw        x8,w9
  0004c	aa0822b5	 orr         x21,x21,x8,lsl #8

; 316  : 
; 317  :     if (err==UNZ_OK)

  00050	35000000	 cbnz        w0,|$LN3@unz64local|

; 318  :         err = unz64local_getByte(pzlib_filefunc_def,filestream,&i);

  00054	910043e2	 add         x2,sp,#0x10
  00058	aa1403e1	 mov         x1,x20
  0005c	aa1303e0	 mov         x0,x19
  00060	94000000	 bl          unz64local_getByte
  00064	b94013e9	 ldr         w9,[sp,#0x10]
  00068		 |$LN3@unz64local|

; 319  :     x |= ((ZPOS64_T)i)<<16;

  00068	93407d28	 sxtw        x8,w9
  0006c	aa0842b5	 orr         x21,x21,x8,lsl #0x10

; 320  : 
; 321  :     if (err==UNZ_OK)

  00070	35000000	 cbnz        w0,|$LN4@unz64local|

; 322  :         err = unz64local_getByte(pzlib_filefunc_def,filestream,&i);

  00074	910043e2	 add         x2,sp,#0x10
  00078	aa1403e1	 mov         x1,x20
  0007c	aa1303e0	 mov         x0,x19
  00080	94000000	 bl          unz64local_getByte
  00084	b94013e9	 ldr         w9,[sp,#0x10]
  00088		 |$LN4@unz64local|

; 323  :     x |= ((ZPOS64_T)i)<<24;

  00088	93407d28	 sxtw        x8,w9
  0008c	aa0862b5	 orr         x21,x21,x8,lsl #0x18

; 324  : 
; 325  :     if (err==UNZ_OK)

  00090	35000000	 cbnz        w0,|$LN5@unz64local|

; 326  :         err = unz64local_getByte(pzlib_filefunc_def,filestream,&i);

  00094	910043e2	 add         x2,sp,#0x10
  00098	aa1403e1	 mov         x1,x20
  0009c	aa1303e0	 mov         x0,x19
  000a0	94000000	 bl          unz64local_getByte
  000a4	b94013e9	 ldr         w9,[sp,#0x10]
  000a8		 |$LN5@unz64local|

; 327  :     x |= ((ZPOS64_T)i)<<32;

  000a8	93407d28	 sxtw        x8,w9
  000ac	aa0882b5	 orr         x21,x21,x8,lsl #0x20

; 328  : 
; 329  :     if (err==UNZ_OK)

  000b0	35000000	 cbnz        w0,|$LN6@unz64local|

; 330  :         err = unz64local_getByte(pzlib_filefunc_def,filestream,&i);

  000b4	910043e2	 add         x2,sp,#0x10
  000b8	aa1403e1	 mov         x1,x20
  000bc	aa1303e0	 mov         x0,x19
  000c0	94000000	 bl          unz64local_getByte
  000c4	b94013e9	 ldr         w9,[sp,#0x10]
  000c8		 |$LN6@unz64local|

; 331  :     x |= ((ZPOS64_T)i)<<40;

  000c8	93407d28	 sxtw        x8,w9
  000cc	aa08a2b5	 orr         x21,x21,x8,lsl #0x28

; 332  : 
; 333  :     if (err==UNZ_OK)

  000d0	35000000	 cbnz        w0,|$LN7@unz64local|

; 334  :         err = unz64local_getByte(pzlib_filefunc_def,filestream,&i);

  000d4	910043e2	 add         x2,sp,#0x10
  000d8	aa1403e1	 mov         x1,x20
  000dc	aa1303e0	 mov         x0,x19
  000e0	94000000	 bl          unz64local_getByte
  000e4	b94013e9	 ldr         w9,[sp,#0x10]
  000e8		 |$LN7@unz64local|

; 335  :     x |= ((ZPOS64_T)i)<<48;

  000e8	93407d28	 sxtw        x8,w9
  000ec	aa08c2b5	 orr         x21,x21,x8,lsl #0x30

; 336  : 
; 337  :     if (err==UNZ_OK)

  000f0	35000000	 cbnz        w0,|$LN9@unz64local|

; 338  :         err = unz64local_getByte(pzlib_filefunc_def,filestream,&i);

  000f4	910043e2	 add         x2,sp,#0x10
  000f8	aa1403e1	 mov         x1,x20
  000fc	aa1303e0	 mov         x0,x19
  00100	94000000	 bl          unz64local_getByte

; 340  : 
; 341  :     if (err==UNZ_OK)

  00104	35000000	 cbnz        w0,|$LN9@unz64local|

; 339  :     x |= ((ZPOS64_T)i)<<56;

  00108	b98013e8	 ldrsw       x8,[sp,#0x10]
  0010c	aa08e2a9	 orr         x9,x21,x8,lsl #0x38

; 345  :     return err;

  00110	f90002c9	 str         x9,[x22]
  00114	a8c27bfd	 ldp         fp,lr,[sp],#0x20
  00118	a9415bf5	 ldp         x21,x22,[sp,#0x10]
  0011c	a8c253f3	 ldp         x19,x20,[sp],#0x20
  00120	d65f03c0	 ret
  00124		 |$LN9@unz64local|

; 342  :         *pX = x;
; 343  :     else
; 344  :         *pX = 0;

  00124	d2800009	 mov         x9,#0

; 345  :     return err;

  00128	f90002c9	 str         x9,[x22]
  0012c	a8c27bfd	 ldp         fp,lr,[sp],#0x20
  00130	a9415bf5	 ldp         x21,x22,[sp,#0x10]
  00134	a8c253f3	 ldp         x19,x20,[sp],#0x20
  00138	d65f03c0	 ret

			 ENDP  ; |unz64local_getLong64|

; Function compile flags: /Ogtp
; File C:\Users\ws103\Desktop\zlib-1.2.11\contrib\minizip\unzip.c

	AREA	|.text$mn|, CODE, ARM64

  00000		 |strcmpcasenosensitive_internal| PROC

; 350  : {

  00000	cb01000e	 sub         x14,x0,x1
  00004		 |$LL2@strcmpcase|

; 351  :     for (;;)
; 352  :     {
; 353  :         char c1=*(fileName1++);

  00004	38e169cb	 ldrsb       w11,[x14,x1]
  00008	38c0142c	 ldrsb       w12,[x1],#1

; 354  :         char c2=*(fileName2++);
; 355  :         if ((c1>='a') && (c1<='z'))

  0000c	11027d68	 add         w8,w11,#0x9F

; 356  :             c1 -= 0x20;
; 357  :         if ((c2>='a') && (c2<='z'))

  00010	53001d0a	 uxtb        w10,w8
  00014	51008169	 sub         w9,w11,#0x20
  00018	7100655f	 cmp         w10,#0x19
  0001c	13001d28	 sxtb        w8,w9
  00020	1a88816d	 cselhi      w13,w11,w8
  00024	11027d88	 add         w8,w12,#0x9F

; 358  :             c2 -= 0x20;
; 359  :         if (c1=='\0')

  00028	53001d0a	 uxtb        w10,w8
  0002c	51008189	 sub         w9,w12,#0x20
  00030	7100655f	 cmp         w10,#0x19
  00034	13001d28	 sxtb        w8,w9
  00038	1a88818b	 cselhi      w11,w12,w8
  0003c	3400000d	 cbz         w13,|$LN14@strcmpcase|

; 361  :         if (c2=='\0')

  00040	3400000b	 cbz         w11,|$LN17@strcmpcase|

; 362  :             return 1;
; 363  :         if (c1<c2)

  00044	6b0b01bf	 cmp         w13,w11
  00048	5400000b	 blt         |$LN16@strcmpcase|

; 365  :         if (c1>c2)

  0004c	5400000d	 ble         |$LL2@strcmpcase|
  00050		 |$LN17@strcmpcase|

; 366  :             return 1;

  00050	52800020	 mov         w0,#1
  00054	d65f03c0	 ret
  00058		 |$LN16@strcmpcase|

; 364  :             return -1;

  00058	12800000	 mov         w0,#-1
  0005c	d65f03c0	 ret
  00060		 |$LN14@strcmpcase|

; 360  :             return ((c2=='\0') ? 0 : -1);

  00060	7100017f	 cmp         w11,#0
  00064	5a9f03e0	 csetmne     w0
  00068	d65f03c0	 ret

			 ENDP  ; |strcmpcasenosensitive_internal|

; Function compile flags: /Ogtp
; File C:\Users\ws103\Desktop\zlib-1.2.11\contrib\minizip\unzip.c

	AREA	|.text$mn|, CODE, ARM64

  00000		 |unzStringFileNameCompare| PROC

; 395  :     if (iCaseSensitivity==0)
; 396  :         iCaseSensitivity=CASESENSITIVITYDEFAULTVALUE;
; 397  : 
; 398  :     if (iCaseSensitivity==1)

  00000	7100005f	 cmp         w2,#0
  00004	52800048	 mov         w8,#2
  00008	1a881048	 cselne      w8,w2,w8
  0000c	7100051f	 cmp         w8,#1
  00010	54000001	 bne         |$LN3@unzStringF|

; 399  :         return strcmp(fileName1,fileName2);

  00014	14000000	 b           strcmp
  00018		 |$LN3@unzStringF|

; 400  : 
; 401  :     return STRCMPCASENOSENTIVEFUNCTION(fileName1,fileName2);

  00018	14000000	 b           strcmpcasenosensitive_internal

			 ENDP  ; |unzStringFileNameCompare|

; Function compile flags: /Ogtp
; File C:\Users\ws103\Desktop\zlib-1.2.11\contrib\minizip\unzip.c

	AREA	|.text$mn|, CODE, ARM64

  00000		 |unz64local_SearchCentralDir| PROC

; 414  : {

  00000	a9bb53f3	 stp         x19,x20,[sp,#-0x50]!
  00004	a9015bf5	 stp         x21,x22,[sp,#0x10]
  00008	a90263f7	 stp         x23,x24,[sp,#0x20]
  0000c	a9036bf9	 stp         x25,x26,[sp,#0x30]
  00010	f90023fb	 str         x27,[sp,#0x40]
  00014	a9be7bfd	 stp         fp,lr,[sp,#-0x20]!
  00018	910003fd	 mov         fp,sp

; 415  :     unsigned char* buf;
; 416  :     ZPOS64_T uSizeFile;
; 417  :     ZPOS64_T uBackRead;
; 418  :     ZPOS64_T uMaxBack=0xffff; /* maximum size of global comment */
; 419  :     ZPOS64_T uPosFound=0;
; 420  : 
; 421  :     if (ZSEEK64(*pzlib_filefunc_def,filestream,0,ZLIB_FILEFUNC_SEEK_END) != 0)

  0001c	52800043	 mov         w3,#2
  00020	d2800002	 mov         x2,#0
  00024	aa0003f8	 mov         x24,x0
  00028	aa0103fb	 mov         x27,x1
  0002c	d29ffff4	 mov         x20,#0xFFFF
  00030	d2800015	 mov         x21,#0
  00034	94000000	 bl          call_zseek64
  00038	35000000	 cbnz        w0,|$LN30@unz64local|

; 422  :         return 0;
; 423  : 
; 424  : 
; 425  :     uSizeFile = ZTELL64(*pzlib_filefunc_def,filestream);

  0003c	aa1b03e1	 mov         x1,x27
  00040	aa1803e0	 mov         x0,x24
  00044	94000000	 bl          call_ztell64

; 426  : 
; 427  :     if (uMaxBack>uSizeFile)

  00048	d29fffe8	 mov         x8,#0xFFFF
  0004c	aa0003f3	 mov         x19,x0
  00050	eb13011f	 cmp         x8,x19
  00054	f9000bf3	 str         x19,[sp,#0x10]

; 428  :         uMaxBack = uSizeFile;
; 429  : 
; 430  :     buf = (unsigned char*)ALLOC(BUFREADCOMMENT+4);

  00058	90000008	 adrp        x8,__imp_malloc
  0005c	f9400108	 ldr         x8,[x8,PageOffset(__imp_malloc)]
  00060	d2808080	 mov         x0,#0x404
  00064	9a948276	 cselhi      x22,x19,x20
  00068	d63f0100	 blr         x8
  0006c	aa0003f7	 mov         x23,x0

; 431  :     if (buf==NULL)

  00070	b4000017	 cbz         x23,|$LN30@unz64local|

; 433  : 
; 434  :     uBackRead = 4;

  00074	d2800099	 mov         x25,#4

; 435  :     while (uBackRead<uMaxBack)

  00078	f10012df	 cmp         x22,#4
  0007c	54000009	 bls         |$LN21@unz64local|
  00080	f10012df	 cmp         x22,#4
  00084	9a9f82d6	 cselhi      x22,x22,xzr
  00088	d503229f	 csdb
  0008c	92800048	 mov         x8,#-3
  00090	cb170114	 sub         x20,x8,x23
  00094	2a1303e9	 mov         w9,w19
  00098	5280808a	 mov         w10,#0x404
  0009c		 |$LL2@unz64local|

; 436  :     {
; 437  :         uLong uReadSize;
; 438  :         ZPOS64_T uReadPos ;
; 439  :         int i;
; 440  :         if (uBackRead+BUFREADCOMMENT>uMaxBack)

  0009c	91100328	 add         x8,x25,#0x400

; 441  :             uBackRead = uMaxBack;
; 442  :         else
; 443  :             uBackRead+=BUFREADCOMMENT;
; 444  :         uReadPos = uSizeFile-uBackRead ;

  000a0	eb16011f	 cmp         x8,x22
  000a4	9a969119	 csells      x25,x8,x22
  000a8	cb19027a	 sub         x26,x19,x25

; 445  : 
; 446  :         uReadSize = ((BUFREADCOMMENT+4) < (uSizeFile-uReadPos)) ?

  000ac	4b1a0129	 sub         w9,w9,w26
  000b0	f110133f	 cmp         x25,#0x404

; 447  :                      (BUFREADCOMMENT+4) : (uLong)(uSizeFile-uReadPos);
; 448  :         if (ZSEEK64(*pzlib_filefunc_def,filestream,uReadPos,ZLIB_FILEFUNC_SEEK_SET)!=0)

  000b4	52800003	 mov         w3,#0
  000b8	aa1a03e2	 mov         x2,x26
  000bc	aa1b03e1	 mov         x1,x27
  000c0	aa1803e0	 mov         x0,x24
  000c4	1a898153	 cselhi      w19,w10,w9
  000c8	94000000	 bl          call_zseek64
  000cc	35000000	 cbnz        w0,|$LN21@unz64local|

; 449  :             break;
; 450  : 
; 451  :         if (ZREAD64(*pzlib_filefunc_def,filestream,buf,uReadSize)!=uReadSize)

  000d0	f9401f00	 ldr         x0,[x24,#0x38]
  000d4	2a1303e3	 mov         w3,w19
  000d8	f9400708	 ldr         x8,[x24,#8]
  000dc	aa1703e2	 mov         x2,x23
  000e0	aa1b03e1	 mov         x1,x27
  000e4	d63f0100	 blr         x8
  000e8	6b13001f	 cmp         w0,w19
  000ec	54000001	 bne         |$LN21@unz64local|

; 452  :             break;
; 453  : 
; 454  :         for (i=(int)uReadSize-3; (i--)>0;)

  000f0	51000e6b	 sub         w11,w19,#3
  000f4	93407d68	 sxtw        x8,w11
  000f8	f100011f	 cmp         x8,#0
  000fc	5400000d	 ble         |$LN31@unz64local|
  00100	8b170108	 add         x8,x8,x23
  00104	91000d09	 add         x9,x8,#3
  00108		 |$LL4@unz64local|
  00108	aa0903ea	 mov         x10,x9
  0010c	d1000529	 sub         x9,x9,#1

; 455  :             if (((*(buf+i))==0x50) && ((*(buf+i+1))==0x4b) &&
; 456  :                 ((*(buf+i+2))==0x05) && ((*(buf+i+3))==0x06))

  00110	385fd128	 ldurb       w8,[x9,#-3]
  00114	5100056b	 sub         w11,w11,#1
  00118	7101411f	 cmp         w8,#0x50
  0011c	54000001	 bne         |$LN14@unz64local|
  00120	385fd148	 ldurb       w8,[x10,#-3]
  00124	71012d1f	 cmp         w8,#0x4B
  00128	54000001	 bne         |$LN14@unz64local|
  0012c	385ff128	 ldurb       w8,[x9,#-1]
  00130	7100151f	 cmp         w8,#5
  00134	54000001	 bne         |$LN14@unz64local|
  00138	39400128	 ldrb        w8,[x9]
  0013c	7100191f	 cmp         w8,#6
  00140	54000000	 beq         |$LN20@unz64local|
  00144		 |$LN14@unz64local|

; 452  :             break;
; 453  : 
; 454  :         for (i=(int)uReadSize-3; (i--)>0;)

  00144	8b090288	 add         x8,x20,x9
  00148	f100011f	 cmp         x8,#0
  0014c	5400000d	 ble         |$LN31@unz64local|
  00150	17ffffee	 b           |$LL4@unz64local|
  00154		 |$LN20@unz64local|

; 457  :             {
; 458  :                 uPosFound = uReadPos+i;

  00154	8b2bc355	 add         x21,x26,w11,sxtw #0

; 459  :                 break;
; 460  :             }
; 461  : 
; 462  :         if (uPosFound!=0)

  00158	b5000015	 cbnz        x21,|$LN21@unz64local|
  0015c		 |$LN31@unz64local|

; 435  :     while (uBackRead<uMaxBack)

  0015c	f9400bf3	 ldr         x19,[sp,#0x10]
  00160	eb16033f	 cmp         x25,x22
  00164	5280808a	 mov         w10,#0x404
  00168	2a1303e9	 mov         w9,w19
  0016c	54000003	 blo         |$LL2@unz64local|
  00170		 |$LN21@unz64local|

; 463  :             break;
; 464  :     }
; 465  :     TRYFREE(buf);

  00170	90000008	 adrp        x8,__imp_free
  00174	f9400108	 ldr         x8,[x8,PageOffset(__imp_free)]
  00178	aa1703e0	 mov         x0,x23
  0017c	d63f0100	 blr         x8

; 466  :     return uPosFound;

  00180	aa1503e0	 mov         x0,x21
  00184	14000002	 b           |$LN1@unz64local|
  00188		 |$LN30@unz64local|

; 432  :         return 0;

  00188	d2800000	 mov         x0,#0
  0018c		 |$LN1@unz64local|
  0018c	a8c27bfd	 ldp         fp,lr,[sp],#0x20
  00190	f94023fb	 ldr         x27,[sp,#0x40]
  00194	a9436bf9	 ldp         x25,x26,[sp,#0x30]
  00198	a94263f7	 ldp         x23,x24,[sp,#0x20]
  0019c	a9415bf5	 ldp         x21,x22,[sp,#0x10]
  001a0	a8c553f3	 ldp         x19,x20,[sp],#0x50
  001a4	d65f03c0	 ret

			 ENDP  ; |unz64local_SearchCentralDir|

; Function compile flags: /Ogtp
; File C:\Users\ws103\Desktop\zlib-1.2.11\contrib\minizip\unzip.c

	AREA	|.text$mn|, CODE, ARM64

  00000		 |unz64local_SearchCentralDir64| PROC

; 480  : {

  00000	a9bb53f3	 stp         x19,x20,[sp,#-0x50]!
  00004	a9015bf5	 stp         x21,x22,[sp,#0x10]
  00008	a90263f7	 stp         x23,x24,[sp,#0x20]
  0000c	a9036bf9	 stp         x25,x26,[sp,#0x30]
  00010	f90023fb	 str         x27,[sp,#0x40]
  00014	a9bd7bfd	 stp         fp,lr,[sp,#-0x30]!
  00018	910003fd	 mov         fp,sp

; 481  :     unsigned char* buf;
; 482  :     ZPOS64_T uSizeFile;
; 483  :     ZPOS64_T uBackRead;
; 484  :     ZPOS64_T uMaxBack=0xffff; /* maximum size of global comment */
; 485  :     ZPOS64_T uPosFound=0;
; 486  :     uLong uL;
; 487  :                 ZPOS64_T relativeOffset;
; 488  : 
; 489  :     if (ZSEEK64(*pzlib_filefunc_def,filestream,0,ZLIB_FILEFUNC_SEEK_END) != 0)

  0001c	52800043	 mov         w3,#2
  00020	d2800002	 mov         x2,#0
  00024	aa0003f4	 mov         x20,x0
  00028	aa0103f6	 mov         x22,x1
  0002c	d29ffff5	 mov         x21,#0xFFFF
  00030	d2800017	 mov         x23,#0
  00034	94000000	 bl          call_zseek64
  00038	35000000	 cbnz        w0,|$LN41@unz64local|

; 490  :         return 0;
; 491  : 
; 492  : 
; 493  :     uSizeFile = ZTELL64(*pzlib_filefunc_def,filestream);

  0003c	aa1603e1	 mov         x1,x22
  00040	aa1403e0	 mov         x0,x20
  00044	94000000	 bl          call_ztell64

; 494  : 
; 495  :     if (uMaxBack>uSizeFile)

  00048	d29fffe8	 mov         x8,#0xFFFF
  0004c	aa0003f3	 mov         x19,x0
  00050	eb13011f	 cmp         x8,x19
  00054	f9000ff3	 str         x19,[sp,#0x18]

; 496  :         uMaxBack = uSizeFile;
; 497  : 
; 498  :     buf = (unsigned char*)ALLOC(BUFREADCOMMENT+4);

  00058	90000008	 adrp        x8,__imp_malloc
  0005c	f9400108	 ldr         x8,[x8,PageOffset(__imp_malloc)]
  00060	d2808080	 mov         x0,#0x404
  00064	9a958278	 cselhi      x24,x19,x21
  00068	d63f0100	 blr         x8
  0006c	aa0003f9	 mov         x25,x0

; 499  :     if (buf==NULL)

  00070	b4000019	 cbz         x25,|$LN41@unz64local|

; 500  :         return 0;
; 501  : 
; 502  :     uBackRead = 4;

  00074	d280009a	 mov         x26,#4

; 503  :     while (uBackRead<uMaxBack)

  00078	f100131f	 cmp         x24,#4
  0007c	54000009	 bls         |$LN32@unz64local|
  00080	f100131f	 cmp         x24,#4
  00084	9a9f8318	 cselhi      x24,x24,xzr
  00088	d503229f	 csdb
  0008c	92800048	 mov         x8,#-3
  00090	cb190115	 sub         x21,x8,x25
  00094	2a1303e9	 mov         w9,w19
  00098	5280808a	 mov         w10,#0x404
  0009c		 |$LL2@unz64local|

; 504  :     {
; 505  :         uLong uReadSize;
; 506  :         ZPOS64_T uReadPos;
; 507  :         int i;
; 508  :         if (uBackRead+BUFREADCOMMENT>uMaxBack)

  0009c	91100348	 add         x8,x26,#0x400

; 509  :             uBackRead = uMaxBack;
; 510  :         else
; 511  :             uBackRead+=BUFREADCOMMENT;
; 512  :         uReadPos = uSizeFile-uBackRead ;

  000a0	eb18011f	 cmp         x8,x24
  000a4	9a98911a	 csells      x26,x8,x24
  000a8	cb1a027b	 sub         x27,x19,x26

; 513  : 
; 514  :         uReadSize = ((BUFREADCOMMENT+4) < (uSizeFile-uReadPos)) ?

  000ac	4b1b0129	 sub         w9,w9,w27
  000b0	f110135f	 cmp         x26,#0x404

; 515  :                      (BUFREADCOMMENT+4) : (uLong)(uSizeFile-uReadPos);
; 516  :         if (ZSEEK64(*pzlib_filefunc_def,filestream,uReadPos,ZLIB_FILEFUNC_SEEK_SET)!=0)

  000b4	52800003	 mov         w3,#0
  000b8	aa1b03e2	 mov         x2,x27
  000bc	aa1603e1	 mov         x1,x22
  000c0	aa1403e0	 mov         x0,x20
  000c4	1a898153	 cselhi      w19,w10,w9
  000c8	94000000	 bl          call_zseek64
  000cc	35000000	 cbnz        w0,|$LN32@unz64local|

; 517  :             break;
; 518  : 
; 519  :         if (ZREAD64(*pzlib_filefunc_def,filestream,buf,uReadSize)!=uReadSize)

  000d0	f9401e80	 ldr         x0,[x20,#0x38]
  000d4	2a1303e3	 mov         w3,w19
  000d8	f9400688	 ldr         x8,[x20,#8]
  000dc	aa1903e2	 mov         x2,x25
  000e0	aa1603e1	 mov         x1,x22
  000e4	d63f0100	 blr         x8
  000e8	6b13001f	 cmp         w0,w19
  000ec	54000001	 bne         |$LN32@unz64local|

; 520  :             break;
; 521  : 
; 522  :         for (i=(int)uReadSize-3; (i--)>0;)

  000f0	51000e6b	 sub         w11,w19,#3
  000f4	93407d68	 sxtw        x8,w11
  000f8	f100011f	 cmp         x8,#0
  000fc	5400000d	 ble         |$LN42@unz64local|
  00100	8b190108	 add         x8,x8,x25
  00104	91000d09	 add         x9,x8,#3
  00108		 |$LL4@unz64local|
  00108	aa0903ea	 mov         x10,x9
  0010c	d1000529	 sub         x9,x9,#1

; 523  :             if (((*(buf+i))==0x50) && ((*(buf+i+1))==0x4b) &&
; 524  :                 ((*(buf+i+2))==0x06) && ((*(buf+i+3))==0x07))

  00110	385fd128	 ldurb       w8,[x9,#-3]
  00114	5100056b	 sub         w11,w11,#1
  00118	7101411f	 cmp         w8,#0x50
  0011c	54000001	 bne         |$LN14@unz64local|
  00120	385fd148	 ldurb       w8,[x10,#-3]
  00124	71012d1f	 cmp         w8,#0x4B
  00128	54000001	 bne         |$LN14@unz64local|
  0012c	385ff128	 ldurb       w8,[x9,#-1]
  00130	7100191f	 cmp         w8,#6
  00134	54000001	 bne         |$LN14@unz64local|
  00138	39400128	 ldrb        w8,[x9]
  0013c	71001d1f	 cmp         w8,#7
  00140	54000000	 beq         |$LN31@unz64local|
  00144		 |$LN14@unz64local|

; 520  :             break;
; 521  : 
; 522  :         for (i=(int)uReadSize-3; (i--)>0;)

  00144	8b0902a8	 add         x8,x21,x9
  00148	f100011f	 cmp         x8,#0
  0014c	5400000d	 ble         |$LN42@unz64local|
  00150	17ffffee	 b           |$LL4@unz64local|
  00154		 |$LN31@unz64local|

; 525  :             {
; 526  :                 uPosFound = uReadPos+i;

  00154	8b2bc377	 add         x23,x27,w11,sxtw #0

; 527  :                 break;
; 528  :             }
; 529  : 
; 530  :         if (uPosFound!=0)

  00158	b5000017	 cbnz        x23,|$LN32@unz64local|
  0015c		 |$LN42@unz64local|

; 503  :     while (uBackRead<uMaxBack)

  0015c	f9400ff3	 ldr         x19,[sp,#0x18]
  00160	eb18035f	 cmp         x26,x24
  00164	5280808a	 mov         w10,#0x404
  00168	2a1303e9	 mov         w9,w19
  0016c	54000003	 blo         |$LL2@unz64local|
  00170		 |$LN32@unz64local|

; 531  :             break;
; 532  :     }
; 533  :     TRYFREE(buf);

  00170	90000008	 adrp        x8,__imp_free
  00174	f9400108	 ldr         x8,[x8,PageOffset(__imp_free)]
  00178	aa1903e0	 mov         x0,x25
  0017c	d63f0100	 blr         x8

; 534  :     if (uPosFound == 0)

  00180	b4000017	 cbz         x23,|$LN41@unz64local|

; 535  :         return 0;
; 536  : 
; 537  :     /* Zip64 end of central directory locator */
; 538  :     if (ZSEEK64(*pzlib_filefunc_def,filestream, uPosFound,ZLIB_FILEFUNC_SEEK_SET)!=0)

  00184	52800003	 mov         w3,#0
  00188	aa1703e2	 mov         x2,x23
  0018c	aa1603e1	 mov         x1,x22
  00190	aa1403e0	 mov         x0,x20
  00194	94000000	 bl          call_zseek64
  00198	35000000	 cbnz        w0,|$LN41@unz64local|

; 539  :         return 0;
; 540  : 
; 541  :     /* the signature, already checked */
; 542  :     if (unz64local_getLong(pzlib_filefunc_def,filestream,&uL)!=UNZ_OK)

  0019c	910043e2	 add         x2,sp,#0x10
  001a0	aa1603e1	 mov         x1,x22
  001a4	aa1403e0	 mov         x0,x20
  001a8	94000000	 bl          unz64local_getLong
  001ac	35000000	 cbnz        w0,|$LN41@unz64local|

; 543  :         return 0;
; 544  : 
; 545  :     /* number of the disk with the start of the zip64 end of  central directory */
; 546  :     if (unz64local_getLong(pzlib_filefunc_def,filestream,&uL)!=UNZ_OK)

  001b0	910043e2	 add         x2,sp,#0x10
  001b4	aa1603e1	 mov         x1,x22
  001b8	aa1403e0	 mov         x0,x20
  001bc	94000000	 bl          unz64local_getLong
  001c0	35000000	 cbnz        w0,|$LN41@unz64local|

; 547  :         return 0;
; 548  :     if (uL != 0)

  001c4	b94013e8	 ldr         w8,[sp,#0x10]
  001c8	35000008	 cbnz        w8,|$LN41@unz64local|

; 549  :         return 0;
; 550  : 
; 551  :     /* relative offset of the zip64 end of central directory record */
; 552  :     if (unz64local_getLong64(pzlib_filefunc_def,filestream,&relativeOffset)!=UNZ_OK)

  001cc	910083e2	 add         x2,sp,#0x20
  001d0	aa1603e1	 mov         x1,x22
  001d4	aa1403e0	 mov         x0,x20
  001d8	94000000	 bl          unz64local_getLong64
  001dc	35000000	 cbnz        w0,|$LN41@unz64local|

; 553  :         return 0;
; 554  : 
; 555  :     /* total number of disks */
; 556  :     if (unz64local_getLong(pzlib_filefunc_def,filestream,&uL)!=UNZ_OK)

  001e0	910043e2	 add         x2,sp,#0x10
  001e4	aa1603e1	 mov         x1,x22
  001e8	aa1403e0	 mov         x0,x20
  001ec	94000000	 bl          unz64local_getLong

; 557  :         return 0;
; 558  :     if (uL != 1)

  001f0	b94013e8	 ldr         w8,[sp,#0x10]
  001f4	7100001f	 cmp         w0,#0
  001f8	7a410900	 ccmpeq      w8,#1,#0
  001fc	54000001	 bne         |$LN41@unz64local|

; 559  :         return 0;
; 560  : 
; 561  :     /* Goto end of central directory record */
; 562  :     if (ZSEEK64(*pzlib_filefunc_def,filestream, relativeOffset,ZLIB_FILEFUNC_SEEK_SET)!=0)

  00200	f94013f3	 ldr         x19,[sp,#0x20]
  00204	52800003	 mov         w3,#0
  00208	aa1603e1	 mov         x1,x22
  0020c	aa1403e0	 mov         x0,x20
  00210	aa1303e2	 mov         x2,x19
  00214	94000000	 bl          call_zseek64
  00218	35000000	 cbnz        w0,|$LN41@unz64local|

; 563  :         return 0;
; 564  : 
; 565  :      /* the signature */
; 566  :     if (unz64local_getLong(pzlib_filefunc_def,filestream,&uL)!=UNZ_OK)

  0021c	910043e2	 add         x2,sp,#0x10
  00220	aa1603e1	 mov         x1,x22
  00224	aa1403e0	 mov         x0,x20
  00228	94000000	 bl          unz64local_getLong
  0022c	35000000	 cbnz        w0,|$LN41@unz64local|

; 567  :         return 0;
; 568  : 
; 569  :     if (uL != 0x06064b50)

  00230	b94013e8	 ldr         w8,[sp,#0x10]
  00234	52896a09	 mov         w9,#0x4B50
  00238	72a0c0c9	 movk        w9,#0x606,lsl #0x10

; 571  : 
; 572  :     return relativeOffset;

  0023c	aa1303e0	 mov         x0,x19
  00240	6b09011f	 cmp         w8,w9
  00244	54000000	 beq         |$LN1@unz64local|
  00248		 |$LN41@unz64local|

; 570  :         return 0;

  00248	d2800000	 mov         x0,#0
  0024c		 |$LN1@unz64local|
  0024c	a8c37bfd	 ldp         fp,lr,[sp],#0x30
  00250	f94023fb	 ldr         x27,[sp,#0x40]
  00254	a9436bf9	 ldp         x25,x26,[sp,#0x30]
  00258	a94263f7	 ldp         x23,x24,[sp,#0x20]
  0025c	a9415bf5	 ldp         x21,x22,[sp,#0x10]
  00260	a8c553f3	 ldp         x19,x20,[sp],#0x50
  00264	d65f03c0	 ret

			 ENDP  ; |unz64local_SearchCentralDir64|

; Function compile flags: /Ogtp
; File C:\Users\ws103\Desktop\zlib-1.2.11\contrib\minizip\unzip.c

	AREA	|.text$mn|, CODE, ARM64

  00000		 |unzOpenInternal| PROC

; 587  : {

  00000	a9be53f3	 stp         x19,x20,[sp,#-0x20]!
  00004	a9015bf5	 stp         x21,x22,[sp,#0x10]
  00008	a9ab7bfd	 stp         fp,lr,[sp,#-0x150]!
  0000c	910003fd	 mov         fp,sp
  00010	aa0003ec	 mov         x12,x0

; 588  :     unz64_s us;
; 589  :     unz64_s *s;
; 590  :     ZPOS64_T central_pos;
; 591  :     uLong   uL;
; 592  : 
; 593  :     uLong number_disk;          /* number of the current dist, used for
; 594  :                                    spaning ZIP, unsupported, always 0*/
; 595  :     uLong number_disk_with_CD;  /* number the the disk with central dir, used
; 596  :                                    for spaning ZIP, unsupported, always 0*/
; 597  :     ZPOS64_T number_entry_CD;      /* total number of entries in
; 598  :                                    the central dir
; 599  :                                    (same than number_entry on nospan) */
; 600  : 
; 601  :     int err=UNZ_OK;
; 602  : 
; 603  :     if (unz_copyright[0]!=' ')
; 604  :         return NULL;
; 605  : 
; 606  :     us.z_filefunc.zseek32_file = NULL;
; 607  :     us.z_filefunc.ztell32_file = NULL;

  00014	a9077fff	 stp         xzr,xzr,[sp,#0x70]

; 608  :     if (pzlib_filefunc64_32_def==NULL)

  00018	b5000001	 cbnz        x1,|$LN3@unzOpenInt|

; 609  :         fill_fopen64_filefunc(&us.z_filefunc.zfile_func64);

  0001c	9100a3e0	 add         x0,sp,#0x28
  00020	94000000	 bl          fill_fopen64_filefunc
  00024	1400000e	 b           |$LN4@unzOpenInt|
  00028		 |$LN3@unzOpenInt|

; 610  :     else
; 611  :         us.z_filefunc = *pzlib_filefunc64_32_def;

  00028	a9402428	 ldp         x8,x9,[x1]
  0002c	9100a3ed	 add         x13,sp,#0x28
  00030	a9412c2a	 ldp         x10,x11,[x1,#0x10]
  00034	a90025a8	 stp         x8,x9,[x13]
  00038	a9422428	 ldp         x8,x9,[x1,#0x20]
  0003c	a9012daa	 stp         x10,x11,[x13,#0x10]
  00040	a9432c2a	 ldp         x10,x11,[x1,#0x30]
  00044	a90225a8	 stp         x8,x9,[x13,#0x20]
  00048	a9442428	 ldp         x8,x9,[x1,#0x40]
  0004c	a9032daa	 stp         x10,x11,[x13,#0x30]
  00050	f940282a	 ldr         x10,[x1,#0x50]
  00054	a90425a8	 stp         x8,x9,[x13,#0x40]
  00058	f90029aa	 str         x10,[x13,#0x50]
  0005c		 |$LN4@unzOpenInt|

; 612  :     us.is64bitOpenFunction = is64bitOpenFunction;

  0005c	b90083e2	 str         w2,[sp,#0x80]

; 613  : 
; 614  : 
; 615  : 
; 616  :     us.filestream = ZOPEN64(us.z_filefunc,

  00060	aa0c03e1	 mov         x1,x12
  00064	528000a2	 mov         w2,#5
  00068	9100a3e0	 add         x0,sp,#0x28
  0006c	94000000	 bl          call_zopen64
  00070	aa0003f6	 mov         x22,x0
  00074	f90047f6	 str         x22,[sp,#0x88]

; 617  :                                                  path,
; 618  :                                                  ZLIB_FILEFUNC_MODE_READ |
; 619  :                                                  ZLIB_FILEFUNC_MODE_EXISTING);
; 620  :     if (us.filestream==NULL)

  00078	b4000016	 cbz         x22,|$LN39@unzOpenInt|

; 621  :         return NULL;
; 622  : 
; 623  :     central_pos = unz64local_SearchCentralDir64(&us.z_filefunc,us.filestream);

  0007c	aa1603e1	 mov         x1,x22
  00080	9100a3e0	 add         x0,sp,#0x28
  00084	94000000	 bl          unz64local_SearchCentralDir64

; 624  :     if (central_pos)

  00088	aa1603e1	 mov         x1,x22
  0008c	aa0003f5	 mov         x21,x0
  00090	9100a3e0	 add         x0,sp,#0x28
  00094	b4000015	 cbz         x21,|$LN6@unzOpenInt|

; 625  :     {
; 626  :         uLong uS;
; 627  :         ZPOS64_T uL64;
; 628  : 
; 629  :         us.isZip64 = 1;

  00098	52800028	 mov         w8,#1

; 630  : 
; 631  :         if (ZSEEK64(us.z_filefunc, us.filestream,
; 632  :                                       central_pos,ZLIB_FILEFUNC_SEEK_SET)!=0)

  0009c	52800003	 mov         w3,#0
  000a0	b90147e8	 str         w8,[sp,#0x144]
  000a4	aa1503e2	 mov         x2,x21
  000a8	94000000	 bl          call_zseek64

; 633  :         err=UNZ_ERRNO;
; 634  : 
; 635  :         /* the signature, already checked */
; 636  :         if (unz64local_getLong(&us.z_filefunc, us.filestream,&uL)!=UNZ_OK)

  000ac	910043e2	 add         x2,sp,#0x10
  000b0	7100001f	 cmp         w0,#0
  000b4	9100a3e0	 add         x0,sp,#0x28
  000b8	aa1603e1	 mov         x1,x22
  000bc	5a9f03f3	 csetmne     w19
  000c0	94000000	 bl          unz64local_getLong
  000c4	7100001f	 cmp         w0,#0
  000c8	12800008	 mov         w8,#-1

; 637  :             err=UNZ_ERRNO;
; 638  : 
; 639  :         /* size of zip64 end of central directory record */
; 640  :         if (unz64local_getLong64(&us.z_filefunc, us.filestream,&uL64)!=UNZ_OK)

  000cc	9100a3e0	 add         x0,sp,#0x28
  000d0	910083e2	 add         x2,sp,#0x20
  000d4	aa1603e1	 mov         x1,x22
  000d8	1a931113	 cselne      w19,w8,w19
  000dc	94000000	 bl          unz64local_getLong64
  000e0	7100001f	 cmp         w0,#0
  000e4	12800008	 mov         w8,#-1

; 641  :             err=UNZ_ERRNO;
; 642  : 
; 643  :         /* version made by */
; 644  :         if (unz64local_getShort(&us.z_filefunc, us.filestream,&uS)!=UNZ_OK)

  000e8	9100a3e0	 add         x0,sp,#0x28
  000ec	910083e2	 add         x2,sp,#0x20
  000f0	aa1603e1	 mov         x1,x22
  000f4	1a931113	 cselne      w19,w8,w19
  000f8	94000000	 bl          unz64local_getShort
  000fc	7100001f	 cmp         w0,#0
  00100	12800008	 mov         w8,#-1

; 645  :             err=UNZ_ERRNO;
; 646  : 
; 647  :         /* version needed to extract */
; 648  :         if (unz64local_getShort(&us.z_filefunc, us.filestream,&uS)!=UNZ_OK)

  00104	9100a3e0	 add         x0,sp,#0x28
  00108	910083e2	 add         x2,sp,#0x20
  0010c	aa1603e1	 mov         x1,x22
  00110	1a931113	 cselne      w19,w8,w19
  00114	94000000	 bl          unz64local_getShort
  00118	7100001f	 cmp         w0,#0
  0011c	12800008	 mov         w8,#-1

; 649  :             err=UNZ_ERRNO;
; 650  : 
; 651  :         /* number of this disk */
; 652  :         if (unz64local_getLong(&us.z_filefunc, us.filestream,&number_disk)!=UNZ_OK)

  00120	9100a3e0	 add         x0,sp,#0x28
  00124	910083e2	 add         x2,sp,#0x20
  00128	aa1603e1	 mov         x1,x22
  0012c	1a931113	 cselne      w19,w8,w19
  00130	94000000	 bl          unz64local_getLong
  00134	7100001f	 cmp         w0,#0
  00138	12800008	 mov         w8,#-1

; 653  :             err=UNZ_ERRNO;
; 654  : 
; 655  :         /* number of the disk with the start of the central directory */
; 656  :         if (unz64local_getLong(&us.z_filefunc, us.filestream,&number_disk_with_CD)!=UNZ_OK)

  0013c	9100a3e0	 add         x0,sp,#0x28
  00140	910063e2	 add         x2,sp,#0x18
  00144	aa1603e1	 mov         x1,x22
  00148	1a931113	 cselne      w19,w8,w19
  0014c	94000000	 bl          unz64local_getLong
  00150	7100001f	 cmp         w0,#0
  00154	12800008	 mov         w8,#-1

; 657  :             err=UNZ_ERRNO;
; 658  : 
; 659  :         /* total number of entries in the central directory on this disk */
; 660  :         if (unz64local_getLong64(&us.z_filefunc, us.filestream,&us.gi.number_entry)!=UNZ_OK)

  00158	9100a3e0	 add         x0,sp,#0x28
  0015c	910243e2	 add         x2,sp,#0x90
  00160	aa1603e1	 mov         x1,x22
  00164	1a931113	 cselne      w19,w8,w19
  00168	94000000	 bl          unz64local_getLong64

; 661  :             err=UNZ_ERRNO;
; 662  : 
; 663  :         /* total number of entries in the central directory */
; 664  :         if (unz64local_getLong64(&us.z_filefunc, us.filestream,&number_entry_CD)!=UNZ_OK)

  0016c	f94047f4	 ldr         x20,[sp,#0x88]
  00170	7100001f	 cmp         w0,#0
  00174	12800008	 mov         w8,#-1
  00178	910043e2	 add         x2,sp,#0x10
  0017c	aa1403e1	 mov         x1,x20
  00180	9100a3e0	 add         x0,sp,#0x28
  00184	1a931113	 cselne      w19,w8,w19
  00188	94000000	 bl          unz64local_getLong64

; 665  :             err=UNZ_ERRNO;
; 666  : 
; 667  :         if ((number_entry_CD!=us.gi.number_entry) ||
; 668  :             (number_disk_with_CD!=0) ||

  0018c	f9404be9	 ldr         x9,[sp,#0x90]
  00190	7100001f	 cmp         w0,#0
  00194	12800008	 mov         w8,#-1
  00198	1a93110a	 cselne      w10,w8,w19
  0019c	f9400be8	 ldr         x8,[sp,#0x10]

; 669  :             (number_disk!=0))
; 670  :             err=UNZ_BADZIPFILE;
; 671  : 
; 672  :         /* size of the central directory */
; 673  :         if (unz64local_getLong64(&us.z_filefunc, us.filestream,&us.size_central_dir)!=UNZ_OK)

  001a0	910323e2	 add         x2,sp,#0xC8
  001a4	aa1403e1	 mov         x1,x20
  001a8	9100a3e0	 add         x0,sp,#0x28
  001ac	eb09011f	 cmp         x8,x9
  001b0	b9401be9	 ldr         w9,[sp,#0x18]
  001b4	b94023e8	 ldr         w8,[sp,#0x20]
  001b8	7a400920	 ccmpeq      w9,#0,#0
  001bc	7a400900	 ccmpeq      w8,#0,#0
  001c0	12800cc9	 mov         w9,#-0x67
  001c4	1a8a1133	 cselne      w19,w9,w10
  001c8	94000000	 bl          unz64local_getLong64
  001cc	7100001f	 cmp         w0,#0
  001d0	12800008	 mov         w8,#-1
  001d4	1a931113	 cselne      w19,w8,w19

; 674  :             err=UNZ_ERRNO;
; 675  : 
; 676  :         /* offset of start of central directory with respect to the
; 677  :           starting disk number */
; 678  :         if (unz64local_getLong64(&us.z_filefunc, us.filestream,&us.offset_central_dir)!=UNZ_OK)

  001d8	910343e2	 add         x2,sp,#0xD0
  001dc	f94047e1	 ldr         x1,[sp,#0x88]
  001e0	9100a3e0	 add         x0,sp,#0x28
  001e4	94000000	 bl          unz64local_getLong64

; 679  :             err=UNZ_ERRNO;
; 680  : 
; 681  :         us.gi.size_comment = 0;

  001e8	b9009bff	 str         wzr,[sp,#0x98]

; 682  :     }

  001ec	14000051	 b           |$LN38@unzOpenInt|
  001f0		 |$LN6@unzOpenInt|

; 683  :     else
; 684  :     {
; 685  :         central_pos = unz64local_SearchCentralDir(&us.z_filefunc,us.filestream);

  001f0	94000000	 bl          unz64local_SearchCentralDir

; 686  :         if (central_pos==0)
; 687  :             err=UNZ_ERRNO;
; 688  : 
; 689  :         us.isZip64 = 0;
; 690  : 
; 691  :         if (ZSEEK64(us.z_filefunc, us.filestream,
; 692  :                                         central_pos,ZLIB_FILEFUNC_SEEK_SET)!=0)

  001f4	52800003	 mov         w3,#0
  001f8	b90147ff	 str         wzr,[sp,#0x144]
  001fc	aa0003f5	 mov         x21,x0
  00200	f10002bf	 cmp         x21,#0
  00204	aa1503e2	 mov         x2,x21
  00208	aa1603e1	 mov         x1,x22
  0020c	9100a3e0	 add         x0,sp,#0x28
  00210	5a9f13f3	 csetmeq     w19
  00214	94000000	 bl          call_zseek64
  00218	7100001f	 cmp         w0,#0
  0021c	12800008	 mov         w8,#-1

; 693  :             err=UNZ_ERRNO;
; 694  : 
; 695  :         /* the signature, already checked */
; 696  :         if (unz64local_getLong(&us.z_filefunc, us.filestream,&uL)!=UNZ_OK)

  00220	9100a3e0	 add         x0,sp,#0x28
  00224	910043e2	 add         x2,sp,#0x10
  00228	aa1603e1	 mov         x1,x22
  0022c	1a931113	 cselne      w19,w8,w19
  00230	94000000	 bl          unz64local_getLong
  00234	7100001f	 cmp         w0,#0
  00238	12800008	 mov         w8,#-1

; 697  :             err=UNZ_ERRNO;
; 698  : 
; 699  :         /* number of this disk */
; 700  :         if (unz64local_getShort(&us.z_filefunc, us.filestream,&number_disk)!=UNZ_OK)

  0023c	9100a3e0	 add         x0,sp,#0x28
  00240	910083e2	 add         x2,sp,#0x20
  00244	aa1603e1	 mov         x1,x22
  00248	1a931113	 cselne      w19,w8,w19
  0024c	94000000	 bl          unz64local_getShort
  00250	7100001f	 cmp         w0,#0
  00254	12800008	 mov         w8,#-1

; 701  :             err=UNZ_ERRNO;
; 702  : 
; 703  :         /* number of the disk with the start of the central directory */
; 704  :         if (unz64local_getShort(&us.z_filefunc, us.filestream,&number_disk_with_CD)!=UNZ_OK)

  00258	9100a3e0	 add         x0,sp,#0x28
  0025c	910063e2	 add         x2,sp,#0x18
  00260	aa1603e1	 mov         x1,x22
  00264	1a931113	 cselne      w19,w8,w19
  00268	94000000	 bl          unz64local_getShort
  0026c	7100001f	 cmp         w0,#0
  00270	12800008	 mov         w8,#-1

; 705  :             err=UNZ_ERRNO;
; 706  : 
; 707  :         /* total number of entries in the central dir on this disk */
; 708  :         if (unz64local_getShort(&us.z_filefunc, us.filestream,&uL)!=UNZ_OK)

  00274	9100a3e0	 add         x0,sp,#0x28
  00278	910043e2	 add         x2,sp,#0x10
  0027c	aa1603e1	 mov         x1,x22
  00280	1a931113	 cselne      w19,w8,w19
  00284	94000000	 bl          unz64local_getShort

; 709  :             err=UNZ_ERRNO;
; 710  :         us.gi.number_entry = uL;

  00288	b94013f4	 ldr         w20,[sp,#0x10]
  0028c	7100001f	 cmp         w0,#0
  00290	12800008	 mov         w8,#-1

; 711  : 
; 712  :         /* total number of entries in the central dir */
; 713  :         if (unz64local_getShort(&us.z_filefunc, us.filestream,&uL)!=UNZ_OK)

  00294	910043e2	 add         x2,sp,#0x10
  00298	aa1603e1	 mov         x1,x22
  0029c	f9004bf4	 str         x20,[sp,#0x90]
  002a0	9100a3e0	 add         x0,sp,#0x28
  002a4	1a931113	 cselne      w19,w8,w19
  002a8	94000000	 bl          unz64local_getShort

; 714  :             err=UNZ_ERRNO;
; 715  :         number_entry_CD = uL;
; 716  : 
; 717  :         if ((number_entry_CD!=us.gi.number_entry) ||
; 718  :             (number_disk_with_CD!=0) ||

  002ac	b9401be9	 ldr         w9,[sp,#0x18]
  002b0	7100001f	 cmp         w0,#0
  002b4	12800008	 mov         w8,#-1
  002b8	1a93110a	 cselne      w10,w8,w19
  002bc	b94013e8	 ldr         w8,[sp,#0x10]

; 719  :             (number_disk!=0))
; 720  :             err=UNZ_BADZIPFILE;
; 721  : 
; 722  :         /* size of the central directory */
; 723  :         if (unz64local_getLong(&us.z_filefunc, us.filestream,&uL)!=UNZ_OK)

  002c0	910043e2	 add         x2,sp,#0x10
  002c4	aa1603e1	 mov         x1,x22
  002c8	9100a3e0	 add         x0,sp,#0x28
  002cc	eb28429f	 cmp         x20,w8,uxtw #0
  002d0	b94023e8	 ldr         w8,[sp,#0x20]
  002d4	7a400920	 ccmpeq      w9,#0,#0
  002d8	12800cc9	 mov         w9,#-0x67
  002dc	7a400900	 ccmpeq      w8,#0,#0
  002e0	1a8a1133	 cselne      w19,w9,w10
  002e4	94000000	 bl          unz64local_getLong
  002e8	12800008	 mov         w8,#-1
  002ec	7100001f	 cmp         w0,#0
  002f0	1a931113	 cselne      w19,w8,w19

; 724  :             err=UNZ_ERRNO;
; 725  :         us.size_central_dir = uL;

  002f4	b94013e8	 ldr         w8,[sp,#0x10]

; 726  : 
; 727  :         /* offset of start of central directory with respect to the
; 728  :             starting disk number */
; 729  :         if (unz64local_getLong(&us.z_filefunc, us.filestream,&uL)!=UNZ_OK)

  002f8	910043e2	 add         x2,sp,#0x10
  002fc	aa1603e1	 mov         x1,x22
  00300	9100a3e0	 add         x0,sp,#0x28
  00304	f90067e8	 str         x8,[sp,#0xC8]
  00308	94000000	 bl          unz64local_getLong
  0030c	12800008	 mov         w8,#-1
  00310	7100001f	 cmp         w0,#0
  00314	1a931113	 cselne      w19,w8,w19

; 730  :             err=UNZ_ERRNO;
; 731  :         us.offset_central_dir = uL;

  00318	b94013e8	 ldr         w8,[sp,#0x10]

; 732  : 
; 733  :         /* zipfile comment length */
; 734  :         if (unz64local_getShort(&us.z_filefunc, us.filestream,&us.gi.size_comment)!=UNZ_OK)

  0031c	910263e2	 add         x2,sp,#0x98
  00320	aa1603e1	 mov         x1,x22
  00324	9100a3e0	 add         x0,sp,#0x28
  00328	f9006be8	 str         x8,[sp,#0xD0]
  0032c	94000000	 bl          unz64local_getShort
  00330		 |$LN38@unzOpenInt|

; 735  :             err=UNZ_ERRNO;
; 736  :     }
; 737  : 
; 738  :     if ((central_pos<us.offset_central_dir+us.size_central_dir) &&

  00330	a94ca7ea	 ldp         x10,x9,[sp,#0xC8]
  00334	12800008	 mov         w8,#-1
  00338	7100001f	 cmp         w0,#0
  0033c	1a93110b	 cselne      w11,w8,w19
  00340	8b0a0128	 add         x8,x9,x10
  00344	eb0802bf	 cmp         x21,x8

; 739  :         (err==UNZ_OK))
; 740  :         err=UNZ_BADZIPFILE;
; 741  : 
; 742  :     if (err!=UNZ_OK)

  00348	7a402960	 ccmphs      w11,#0,#0
  0034c	54000000	 beq         |$LN34@unzOpenInt|

; 743  :     {
; 744  :         ZCLOSE64(us.z_filefunc, us.filestream);

  00350	f94047e1	 ldr         x1,[sp,#0x88]
  00354	f94033e0	 ldr         x0,[sp,#0x60]
  00358	f9402be8	 ldr         x8,[sp,#0x50]
  0035c	d63f0100	 blr         x8
  00360		 |$LN39@unzOpenInt|

; 762  : }

  00360	d2800000	 mov         x0,#0
  00364	a8d57bfd	 ldp         fp,lr,[sp],#0x150
  00368	a9415bf5	 ldp         x21,x22,[sp,#0x10]
  0036c	a8c253f3	 ldp         x19,x20,[sp],#0x20
  00370	d65f03c0	 ret
  00374		 |$LN34@unzOpenInt|

; 745  :         return NULL;
; 746  :     }
; 747  : 
; 748  :     us.byte_before_the_zipfile = central_pos -

  00374	cb0902a8	 sub         x8,x21,x9

; 749  :                             (us.offset_central_dir+us.size_central_dir);
; 750  :     us.central_pos = central_pos;

  00378	f90063f5	 str         x21,[sp,#0xC0]
  0037c	cb0a0108	 sub         x8,x8,x10

; 751  :     us.pfile_in_zip_read = NULL;

  00380	f9009fff	 str         xzr,[sp,#0x138]
  00384	f90053e8	 str         x8,[sp,#0xA0]

; 752  :     us.encrypted = 0;
; 753  : 
; 754  : 
; 755  :     s=(unz64_s*)ALLOC(sizeof(unz64_s));

  00388	90000008	 adrp        x8,__imp_malloc
  0038c	f9400108	 ldr         x8,[x8,PageOffset(__imp_malloc)]
  00390	d2802400	 mov         x0,#0x120
  00394	b90143ff	 str         wzr,[sp,#0x140]
  00398	d63f0100	 blr         x8
  0039c	aa0003f3	 mov         x19,x0

; 756  :     if( s != NULL)

  003a0	b4000013	 cbz         x19,|$LN35@unzOpenInt|

; 757  :     {
; 758  :         *s=us;

  003a4	9100a3e1	 add         x1,sp,#0x28
  003a8	52802402	 mov         w2,#0x120
  003ac	aa1303e0	 mov         x0,x19
  003b0	94000000	 bl          memcpy

; 759  :         unzGoToFirstFile((unzFile)s);

  003b4	aa1303e0	 mov         x0,x19
  003b8	94000000	 bl          unzGoToFirstFile
  003bc		 |$LN35@unzOpenInt|

; 760  :     }
; 761  :     return (unzFile)s;

  003bc	aa1303e0	 mov         x0,x19
  003c0	a8d57bfd	 ldp         fp,lr,[sp],#0x150
  003c4	a9415bf5	 ldp         x21,x22,[sp,#0x10]
  003c8	a8c253f3	 ldp         x19,x20,[sp],#0x20
  003cc	d65f03c0	 ret

			 ENDP  ; |unzOpenInternal|

; Function compile flags: /Ogtp
; File C:\Users\ws103\Desktop\zlib-1.2.11\contrib\minizip\unzip.c

	AREA	|.text$mn|, CODE, ARM64

  00000		 |unzOpen2| PROC

; 767  : {

  00000		 |$LN7|
  00000	a9b97bfd	 stp         fp,lr,[sp,#-0x70]!
  00004	910003fd	 mov         fp,sp
  00008	aa0003ea	 mov         x10,x0

; 768  :     if (pzlib_filefunc32_def != NULL)

  0000c	b4000001	 cbz         x1,|$LN2@unzOpen2|

; 769  :     {
; 770  :         zlib_filefunc64_32_def zlib_filefunc64_32_def_fill;
; 771  :         fill_zlib_filefunc64_32_def_from_filefunc32(&zlib_filefunc64_32_def_fill,pzlib_filefunc32_def);

  00010	910043e0	 add         x0,sp,#0x10
  00014	94000000	 bl          fill_zlib_filefunc64_32_def_from_filefunc32

; 772  :         return unzOpenInternal(path, &zlib_filefunc64_32_def_fill, 0);

  00018	910043e1	 add         x1,sp,#0x10

; 776  : }

  0001c	52800002	 mov         w2,#0
  00020	aa0a03e0	 mov         x0,x10
  00024	94000000	 bl          unzOpenInternal
  00028	a8c77bfd	 ldp         fp,lr,[sp],#0x70
  0002c	d65f03c0	 ret
  00030		 |$LN2@unzOpen2|

; 773  :     }
; 774  :     else
; 775  :         return unzOpenInternal(path, NULL, 0);

  00030	d2800001	 mov         x1,#0

; 776  : }

  00034	52800002	 mov         w2,#0
  00038	aa0a03e0	 mov         x0,x10
  0003c	94000000	 bl          unzOpenInternal
  00040	a8c77bfd	 ldp         fp,lr,[sp],#0x70
  00044	d65f03c0	 ret

			 ENDP  ; |unzOpen2|

; Function compile flags: /Ogtp
; File C:\Users\ws103\Desktop\zlib-1.2.11\contrib\minizip\unzip.c

	AREA	|.text$mn|, CODE, ARM64

  00000		 |unzOpen2_64| PROC

; 780  : {

  00000		 |$LN7|
  00000	a9b97bfd	 stp         fp,lr,[sp,#-0x70]!
  00004	910003fd	 mov         fp,sp

; 781  :     if (pzlib_filefunc_def != NULL)

  00008	52800022	 mov         w2,#1
  0000c	b4000001	 cbz         x1,|$LN2@unzOpen2_6|

; 782  :     {
; 783  :         zlib_filefunc64_32_def zlib_filefunc64_32_def_fill;
; 784  :         zlib_filefunc64_32_def_fill.zfile_func64 = *pzlib_filefunc_def;

  00010	a9402428	 ldp         x8,x9,[x1]
  00014	910043ec	 add         x12,sp,#0x10
  00018	a9412c2a	 ldp         x10,x11,[x1,#0x10]
  0001c	a9002588	 stp         x8,x9,[x12]
  00020	a9422428	 ldp         x8,x9,[x1,#0x20]
  00024	a9012d8a	 stp         x10,x11,[x12,#0x10]
  00028	a9432c2a	 ldp         x10,x11,[x1,#0x30]

; 785  :         zlib_filefunc64_32_def_fill.ztell32_file = NULL;
; 786  :         zlib_filefunc64_32_def_fill.zseek32_file = NULL;
; 787  :         return unzOpenInternal(path, &zlib_filefunc64_32_def_fill, 1);

  0002c	910043e1	 add         x1,sp,#0x10
  00030	a9022588	 stp         x8,x9,[x12,#0x20]
  00034	a9032d8a	 stp         x10,x11,[x12,#0x30]
  00038	a905ffff	 stp         xzr,xzr,[sp,#0x58]

; 791  : }

  0003c	94000000	 bl          unzOpenInternal
  00040	a8c77bfd	 ldp         fp,lr,[sp],#0x70
  00044	d65f03c0	 ret
  00048		 |$LN2@unzOpen2_6|

; 788  :     }
; 789  :     else
; 790  :         return unzOpenInternal(path, NULL, 1);

  00048	d2800001	 mov         x1,#0

; 791  : }

  0004c	94000000	 bl          unzOpenInternal
  00050	a8c77bfd	 ldp         fp,lr,[sp],#0x70
  00054	d65f03c0	 ret

			 ENDP  ; |unzOpen2_64|

; Function compile flags: /Ogtp
; File C:\Users\ws103\Desktop\zlib-1.2.11\contrib\minizip\unzip.c

	AREA	|.text$mn|, CODE, ARM64

  00000		 |unzOpen| PROC

; 795  :     return unzOpenInternal(path, NULL, 0);

  00000	52800002	 mov         w2,#0
  00004	d2800001	 mov         x1,#0
  00008	14000000	 b           unzOpenInternal

			 ENDP  ; |unzOpen|

; Function compile flags: /Ogtp
; File C:\Users\ws103\Desktop\zlib-1.2.11\contrib\minizip\unzip.c

	AREA	|.text$mn|, CODE, ARM64

  00000		 |unzOpen64| PROC

; 800  :     return unzOpenInternal(path, NULL, 1);

  00000	52800022	 mov         w2,#1
  00004	d2800001	 mov         x1,#0
  00008	14000000	 b           unzOpenInternal

			 ENDP  ; |unzOpen64|

; Function compile flags: /Ogtp
; File C:\Users\ws103\Desktop\zlib-1.2.11\contrib\minizip\unzip.c

	AREA	|.text$mn|, CODE, ARM64

  00000		 |unzClose| PROC

; 809  : {

  00000		 |$LN7|
  00000	f81f0ff3	 str         x19,[sp,#-0x10]!
  00004	a9bf7bfd	 stp         fp,lr,[sp,#-0x10]!
  00008	910003fd	 mov         fp,sp
  0000c	aa0003f3	 mov         x19,x0

; 810  :     unz64_s* s;
; 811  :     if (file==NULL)

  00010	b5000013	 cbnz        x19,|$LN2@unzClose|

; 812  :         return UNZ_PARAMERROR;

  00014	12800ca0	 mov         w0,#-0x66
  00018	a8c17bfd	 ldp         fp,lr,[sp],#0x10
  0001c	f84107f3	 ldr         x19,[sp],#0x10
  00020	d65f03c0	 ret
  00024		 |$LN2@unzClose|

; 813  :     s=(unz64_s*)file;
; 814  : 
; 815  :     if (s->pfile_in_zip_read!=NULL)

  00024	f9408a68	 ldr         x8,[x19,#0x110]
  00028	b4000008	 cbz         x8,|$LN3@unzClose|

; 816  :         unzCloseCurrentFile(file);

  0002c	aa1303e0	 mov         x0,x19
  00030	94000000	 bl          unzCloseCurrentFile
  00034		 |$LN3@unzClose|

; 817  : 
; 818  :     ZCLOSE64(s->z_filefunc, s->filestream);

  00034	f9403261	 ldr         x1,[x19,#0x60]
  00038	f9401e60	 ldr         x0,[x19,#0x38]
  0003c	f9401668	 ldr         x8,[x19,#0x28]
  00040	d63f0100	 blr         x8

; 819  :     TRYFREE(s);

  00044	90000008	 adrp        x8,__imp_free
  00048	f9400108	 ldr         x8,[x8,PageOffset(__imp_free)]
  0004c	aa1303e0	 mov         x0,x19
  00050	d63f0100	 blr         x8

; 820  :     return UNZ_OK;

  00054	52800000	 mov         w0,#0
  00058	a8c17bfd	 ldp         fp,lr,[sp],#0x10
  0005c	f84107f3	 ldr         x19,[sp],#0x10
  00060	d65f03c0	 ret

			 ENDP  ; |unzClose|

; Function compile flags: /Ogtp
; File C:\Users\ws103\Desktop\zlib-1.2.11\contrib\minizip\unzip.c

	AREA	|.text$mn|, CODE, ARM64

  00000		 |unzGetGlobalInfo64| PROC

; 830  :     unz64_s* s;
; 831  :     if (file==NULL)

  00000	b5000000	 cbnz        x0,|$LN2@unzGetGlob|

; 832  :         return UNZ_PARAMERROR;

  00004	12800ca0	 mov         w0,#-0x66
  00008	d65f03c0	 ret
  0000c		 |$LN2@unzGetGlob|

; 833  :     s=(unz64_s*)file;
; 834  :     *pglobal_info=s->gi;

  0000c	a946a408	 ldp         x8,x9,[x0,#0x68]

; 835  :     return UNZ_OK;

  00010	52800000	 mov         w0,#0
  00014	a9002428	 stp         x8,x9,[x1]
  00018	d65f03c0	 ret

			 ENDP  ; |unzGetGlobalInfo64|

; Function compile flags: /Ogtp
; File C:\Users\ws103\Desktop\zlib-1.2.11\contrib\minizip\unzip.c

	AREA	|.text$mn|, CODE, ARM64

  00000		 |unzGetGlobalInfo| PROC

; 840  :     unz64_s* s;
; 841  :     if (file==NULL)

  00000	b5000000	 cbnz        x0,|$LN2@unzGetGlob|

; 842  :         return UNZ_PARAMERROR;

  00004	12800ca0	 mov         w0,#-0x66
  00008	d65f03c0	 ret
  0000c		 |$LN2@unzGetGlob|

; 843  :     s=(unz64_s*)file;
; 844  :     /* to do : check if number_entry is not truncated */
; 845  :     pglobal_info32->number_entry = (uLong)s->gi.number_entry;

  0000c	b9406808	 ldr         w8,[x0,#0x68]
  00010	b9000028	 str         w8,[x1]

; 846  :     pglobal_info32->size_comment = s->gi.size_comment;

  00014	b940700a	 ldr         w10,[x0,#0x70]

; 847  :     return UNZ_OK;

  00018	52800000	 mov         w0,#0
  0001c	b900042a	 str         w10,[x1,#4]
  00020	d65f03c0	 ret

			 ENDP  ; |unzGetGlobalInfo|

; Function compile flags: /Ogtp
; File C:\Users\ws103\Desktop\zlib-1.2.11\contrib\minizip\unzip.c

	AREA	|.text$mn|, CODE, ARM64

  00000		 |unz64local_DosDateToTmuDate| PROC

; 854  :     ZPOS64_T uDate;
; 855  :     uDate = (ZPOS64_T)(ulDosDate>>16);

  00000	d350fc0c	 lsr         x12,x0,#0x10

; 856  :     ptm->tm_mday = (uInt)(uDate&0x1f) ;
; 857  :     ptm->tm_mon =  (uInt)((((uDate)&0x1E0)/0x20)-1) ;

  00004	d345218a	 ubfx        x10,x12,#5,#4
  00008	5100054b	 sub         w11,w10,#1

; 858  :     ptm->tm_year = (uInt)(((uDate&0x0FE00)/0x0200)+1980) ;

  0000c	d3493d88	 ubfx        x8,x12,#9,#7
  00010	b900102b	 str         w11,[x1,#0x10]
  00014	111ef10b	 add         w11,w8,#0x7BC

; 859  : 
; 860  :     ptm->tm_hour = (uInt) ((ulDosDate &0xF800)/0x800);

  00018	d34b3c08	 ubfx        x8,x0,#0xB,#5
  0001c	b900142b	 str         w11,[x1,#0x14]
  00020	12001189	 and         w9,w12,#0x1F
  00024	29012428	 stp         w8,w9,[x1,#8]

; 861  :     ptm->tm_min =  (uInt) ((ulDosDate&0x7E0)/0x20) ;

  00028	d3452808	 ubfx        x8,x0,#5,#6

; 862  :     ptm->tm_sec =  (uInt) (2*(ulDosDate&0x1f)) ;

  0002c	531f1009	 ubfiz       w9,w0,#1,#5
  00030	29002029	 stp         w9,w8,[x1]
  00034	d65f03c0	 ret

			 ENDP  ; |unz64local_DosDateToTmuDate|

; Function compile flags: /Ogtp
; File C:\Users\ws103\Desktop\zlib-1.2.11\contrib\minizip\unzip.c

	AREA	|.text$mn|, CODE, ARM64

  00000		 |unz64local_GetCurrentFileInfoInternal| PROC

; 889  : {

  00000	a9bb53f3	 stp         x19,x20,[sp,#-0x50]!
  00004	a9015bf5	 stp         x21,x22,[sp,#0x10]
  00008	a90263f7	 stp         x23,x24,[sp,#0x20]
  0000c	a9036bf9	 stp         x25,x26,[sp,#0x30]
  00010	f90023fb	 str         x27,[sp,#0x40]
  00014	a9b47bfd	 stp         fp,lr,[sp,#-0xC0]!
  00018	910003fd	 mov         fp,sp
  0001c	aa0103f9	 mov         x25,x1
  00020	a90a8bf9	 stp         x25,x2,[sp,#0xA8]
  00024	aa0303f6	 mov         x22,x3
  00028	f9000fe5	 str         x5,[sp,#0x18]
  0002c	f90053f6	 str         x22,[sp,#0xA0]
  00030	aa0003f5	 mov         x21,x0
  00034	2a0403fa	 mov         w26,w4
  00038	f9004be7	 str         x7,[sp,#0x90]
  0003c	d3407cdb	 uxtw        x27,w6

; 890  :     unz64_s* s;
; 891  :     unz_file_info64 file_info;
; 892  :     unz_file_info64_internal file_info_internal;
; 893  :     int err=UNZ_OK;
; 894  :     uLong uMagic;
; 895  :     long lSeek=0;
; 896  :     uLong uL;
; 897  : 
; 898  :     if (file==NULL)

  00040	b5000015	 cbnz        x21,|$LN4@unz64local|

; 899  :         return UNZ_PARAMERROR;

  00044	12800ca0	 mov         w0,#-0x66
  00048	14000168	 b           |$LN1@unz64local|
  0004c		 |$LN4@unz64local|

; 900  :     s=(unz64_s*)file;
; 901  :     if (ZSEEK64(s->z_filefunc, s->filestream,
; 902  :               s->pos_in_central_dir+s->byte_before_the_zipfile,
; 903  :               ZLIB_FILEFUNC_SEEK_SET)!=0)

  0004c	f94046a9	 ldr         x9,[x21,#0x88]
  00050	52800003	 mov         w3,#0
  00054	f9403ea8	 ldr         x8,[x21,#0x78]
  00058	aa1503e0	 mov         x0,x21
  0005c	f94032a1	 ldr         x1,[x21,#0x60]
  00060	8b080122	 add         x2,x9,x8
  00064	94000000	 bl          call_zseek64
  00068	34000000	 cbz         w0,|$LN72@unz64local|

; 904  :         err=UNZ_ERRNO;

  0006c	12800013	 mov         w19,#-1

; 905  : 
; 906  : 
; 907  :     /* we check the magic */
; 908  :     if (err==UNZ_OK)

  00070	1400000e	 b           |$LN9@unz64local|
  00074		 |$LN72@unz64local|

; 909  :     {
; 910  :         if (unz64local_getLong(&s->z_filefunc, s->filestream,&uMagic) != UNZ_OK)

  00074	f94032a1	 ldr         x1,[x21,#0x60]
  00078	9100a3e2	 add         x2,sp,#0x28
  0007c	aa1503e0	 mov         x0,x21
  00080	94000000	 bl          unz64local_getLong
  00084	34000000	 cbz         w0,|$LN7@unz64local|

; 911  :             err=UNZ_ERRNO;

  00088	12800013	 mov         w19,#-1
  0008c	14000007	 b           |$LN9@unz64local|
  00090		 |$LN7@unz64local|

; 912  :         else if (uMagic!=0x02014b50)

  00090	b9402be8	 ldr         w8,[sp,#0x28]
  00094	52896a09	 mov         w9,#0x4B50
  00098	72a04029	 movk        w9,#0x201,lsl #0x10
  0009c	6b09011f	 cmp         w8,w9
  000a0	12800cc9	 mov         w9,#-0x67
  000a4	1a9f1133	 cselne      w19,w9,wzr
  000a8		 |$LN9@unz64local|

; 913  :             err=UNZ_BADZIPFILE;
; 914  :     }
; 915  : 
; 916  :     if (unz64local_getShort(&s->z_filefunc, s->filestream,&file_info.version) != UNZ_OK)

  000a8	f94032a1	 ldr         x1,[x21,#0x60]
  000ac	9100e3e2	 add         x2,sp,#0x38
  000b0	aa1503e0	 mov         x0,x21
  000b4	94000000	 bl          unz64local_getShort

; 917  :         err=UNZ_ERRNO;
; 918  : 
; 919  :     if (unz64local_getShort(&s->z_filefunc, s->filestream,&file_info.version_needed) != UNZ_OK)

  000b8	f94032a1	 ldr         x1,[x21,#0x60]
  000bc	12800008	 mov         w8,#-1
  000c0	7100001f	 cmp         w0,#0
  000c4	9100f3e2	 add         x2,sp,#0x3C
  000c8	aa1503e0	 mov         x0,x21
  000cc	1a931113	 cselne      w19,w8,w19
  000d0	94000000	 bl          unz64local_getShort

; 920  :         err=UNZ_ERRNO;
; 921  : 
; 922  :     if (unz64local_getShort(&s->z_filefunc, s->filestream,&file_info.flag) != UNZ_OK)

  000d4	f94032a1	 ldr         x1,[x21,#0x60]
  000d8	7100001f	 cmp         w0,#0
  000dc	12800008	 mov         w8,#-1
  000e0	910103e2	 add         x2,sp,#0x40
  000e4	aa1503e0	 mov         x0,x21
  000e8	1a931113	 cselne      w19,w8,w19
  000ec	94000000	 bl          unz64local_getShort

; 923  :         err=UNZ_ERRNO;
; 924  : 
; 925  :     if (unz64local_getShort(&s->z_filefunc, s->filestream,&file_info.compression_method) != UNZ_OK)

  000f0	f94032a1	 ldr         x1,[x21,#0x60]
  000f4	7100001f	 cmp         w0,#0
  000f8	12800008	 mov         w8,#-1
  000fc	910113e2	 add         x2,sp,#0x44
  00100	aa1503e0	 mov         x0,x21
  00104	1a931113	 cselne      w19,w8,w19
  00108	94000000	 bl          unz64local_getShort

; 926  :         err=UNZ_ERRNO;
; 927  : 
; 928  :     if (unz64local_getLong(&s->z_filefunc, s->filestream,&file_info.dosDate) != UNZ_OK)

  0010c	f94032a1	 ldr         x1,[x21,#0x60]
  00110	7100001f	 cmp         w0,#0
  00114	12800008	 mov         w8,#-1
  00118	910123e2	 add         x2,sp,#0x48
  0011c	aa1503e0	 mov         x0,x21
  00120	1a931113	 cselne      w19,w8,w19
  00124	94000000	 bl          unz64local_getLong
  00128	7100001f	 cmp         w0,#0

; 929  :         err=UNZ_ERRNO;
; 930  : 
; 931  :     unz64local_DosDateToTmuDate(file_info.dosDate,&file_info.tmu_date);

  0012c	b9404be0	 ldr         w0,[sp,#0x48]
  00130	12800008	 mov         w8,#-1
  00134	9101e3e1	 add         x1,sp,#0x78
  00138	1a931113	 cselne      w19,w8,w19
  0013c	94000000	 bl          unz64local_DosDateToTmuDate

; 932  : 
; 933  :     if (unz64local_getLong(&s->z_filefunc, s->filestream,&file_info.crc) != UNZ_OK)

  00140	f94032a1	 ldr         x1,[x21,#0x60]
  00144	910133e2	 add         x2,sp,#0x4C
  00148	aa1503e0	 mov         x0,x21
  0014c	94000000	 bl          unz64local_getLong

; 934  :         err=UNZ_ERRNO;
; 935  : 
; 936  :     if (unz64local_getLong(&s->z_filefunc, s->filestream,&uL) != UNZ_OK)

  00150	f94032a1	 ldr         x1,[x21,#0x60]
  00154	12800008	 mov         w8,#-1
  00158	7100001f	 cmp         w0,#0
  0015c	910043e2	 add         x2,sp,#0x10
  00160	aa1503e0	 mov         x0,x21
  00164	1a931113	 cselne      w19,w8,w19
  00168	94000000	 bl          unz64local_getLong

; 937  :         err=UNZ_ERRNO;
; 938  :     file_info.compressed_size = uL;
; 939  : 
; 940  :     if (unz64local_getLong(&s->z_filefunc, s->filestream,&uL) != UNZ_OK)

  0016c	f94032a1	 ldr         x1,[x21,#0x60]
  00170	12800008	 mov         w8,#-1
  00174	7100001f	 cmp         w0,#0
  00178	1a931113	 cselne      w19,w8,w19
  0017c	b94013e8	 ldr         w8,[sp,#0x10]
  00180	910043e2	 add         x2,sp,#0x10
  00184	aa1503e0	 mov         x0,x21
  00188	f9002be8	 str         x8,[sp,#0x50]
  0018c	94000000	 bl          unz64local_getLong
  00190	12800008	 mov         w8,#-1
  00194	7100001f	 cmp         w0,#0

; 941  :         err=UNZ_ERRNO;
; 942  :     file_info.uncompressed_size = uL;
; 943  : 
; 944  :     if (unz64local_getShort(&s->z_filefunc, s->filestream,&file_info.size_filename) != UNZ_OK)

  00198	f94032a1	 ldr         x1,[x21,#0x60]
  0019c	1a931113	 cselne      w19,w8,w19
  001a0	b94013e8	 ldr         w8,[sp,#0x10]
  001a4	910183e2	 add         x2,sp,#0x60
  001a8	aa1503e0	 mov         x0,x21
  001ac	f9002fe8	 str         x8,[sp,#0x58]
  001b0	94000000	 bl          unz64local_getShort

; 945  :         err=UNZ_ERRNO;
; 946  : 
; 947  :     if (unz64local_getShort(&s->z_filefunc, s->filestream,&file_info.size_file_extra) != UNZ_OK)

  001b4	f94032a1	 ldr         x1,[x21,#0x60]
  001b8	7100001f	 cmp         w0,#0
  001bc	12800008	 mov         w8,#-1
  001c0	910193e2	 add         x2,sp,#0x64
  001c4	aa1503e0	 mov         x0,x21
  001c8	1a931113	 cselne      w19,w8,w19
  001cc	94000000	 bl          unz64local_getShort

; 948  :         err=UNZ_ERRNO;
; 949  : 
; 950  :     if (unz64local_getShort(&s->z_filefunc, s->filestream,&file_info.size_file_comment) != UNZ_OK)

  001d0	f94032a1	 ldr         x1,[x21,#0x60]
  001d4	9101a3e2	 add         x2,sp,#0x68
  001d8	7100001f	 cmp         w0,#0
  001dc	aa1503e0	 mov         x0,x21
  001e0	12800008	 mov         w8,#-1
  001e4	1a931113	 cselne      w19,w8,w19
  001e8	94000000	 bl          unz64local_getShort

; 951  :         err=UNZ_ERRNO;
; 952  : 
; 953  :     if (unz64local_getShort(&s->z_filefunc, s->filestream,&file_info.disk_num_start) != UNZ_OK)

  001ec	f94032a1	 ldr         x1,[x21,#0x60]
  001f0	7100001f	 cmp         w0,#0
  001f4	12800008	 mov         w8,#-1
  001f8	9101b3e2	 add         x2,sp,#0x6C
  001fc	aa1503e0	 mov         x0,x21
  00200	1a931113	 cselne      w19,w8,w19
  00204	94000000	 bl          unz64local_getShort

; 954  :         err=UNZ_ERRNO;
; 955  : 
; 956  :     if (unz64local_getShort(&s->z_filefunc, s->filestream,&file_info.internal_fa) != UNZ_OK)

  00208	f94032a1	 ldr         x1,[x21,#0x60]
  0020c	7100001f	 cmp         w0,#0
  00210	12800008	 mov         w8,#-1
  00214	9101c3e2	 add         x2,sp,#0x70
  00218	aa1503e0	 mov         x0,x21
  0021c	1a931113	 cselne      w19,w8,w19
  00220	94000000	 bl          unz64local_getShort

; 957  :         err=UNZ_ERRNO;
; 958  : 
; 959  :     if (unz64local_getLong(&s->z_filefunc, s->filestream,&file_info.external_fa) != UNZ_OK)

  00224	f94032a1	 ldr         x1,[x21,#0x60]
  00228	7100001f	 cmp         w0,#0
  0022c	12800008	 mov         w8,#-1
  00230	9101d3e2	 add         x2,sp,#0x74
  00234	aa1503e0	 mov         x0,x21
  00238	1a931113	 cselne      w19,w8,w19
  0023c	94000000	 bl          unz64local_getLong

; 960  :         err=UNZ_ERRNO;
; 961  : 
; 962  :                 // relative offset of local header
; 963  :     if (unz64local_getLong(&s->z_filefunc, s->filestream,&uL) != UNZ_OK)

  00240	f94032a1	 ldr         x1,[x21,#0x60]
  00244	7100001f	 cmp         w0,#0
  00248	12800008	 mov         w8,#-1
  0024c	910043e2	 add         x2,sp,#0x10
  00250	aa1503e0	 mov         x0,x21
  00254	1a931118	 cselne      w24,w8,w19
  00258	94000000	 bl          unz64local_getLong
  0025c	b94013f3	 ldr         w19,[sp,#0x10]
  00260	b94063f7	 ldr         w23,[sp,#0x60]
  00264	f90013f3	 str         x19,[sp,#0x20]
  00268	34000000	 cbz         w0,|$LN24@unz64local|

; 964  :         err=UNZ_ERRNO;

  0026c	12800014	 mov         w20,#-1
  00270		 |$LN30@unz64local|

; 1008 :     else
; 1009 :         lSeek += file_info.size_file_extra;

  00270	b94067f6	 ldr         w22,[sp,#0x64]
  00274	0b1702c8	 add         w8,w22,w23
  00278		 |$LN79@unz64local|

; 1010 : 
; 1011 : 
; 1012 :     if ((err==UNZ_OK) && (file_info.size_file_extra != 0))

  00278	b9001be8	 str         w8,[sp,#0x18]
  0027c	35000014	 cbnz        w20,|$LN66@unz64local|
  00280	34000016	 cbz         w22,|$LN74@unz64local|

; 1013 :     {
; 1014 :                                 uLong acc = 0;
; 1015 : 
; 1016 :         // since lSeek now points to after the extra field we need to move back
; 1017 :         lSeek -= file_info.size_file_extra;

  00284	4b160108	 sub         w8,w8,w22
  00288	b9001be8	 str         w8,[sp,#0x18]
  0028c	52800017	 mov         w23,#0

; 1018 : 
; 1019 :         if (lSeek!=0)

  00290	34000008	 cbz         w8,|$LN68@unz64local|

; 1020 :         {
; 1021 :             if (ZSEEK64(s->z_filefunc, s->filestream,lSeek,ZLIB_FILEFUNC_SEEK_CUR)==0)

  00294	f94032a1	 ldr         x1,[x21,#0x60]
  00298	52800023	 mov         w3,#1
  0029c	93407d02	 sxtw        x2,w8
  002a0	aa1503e0	 mov         x0,x21
  002a4	94000000	 bl          call_zseek64
  002a8	35000000	 cbnz        w0,|$LN41@unz64local|

; 1022 :                 lSeek=0;

  002ac	b9001bff	 str         wzr,[sp,#0x18]
  002b0	14000043	 b           |$LN68@unz64local|
  002b4		 |$LN24@unz64local|

; 965  :     file_info_internal.offset_curfile = uL;
; 966  : 
; 967  :     lSeek+=file_info.size_filename;

  002b4	2a1803f4	 mov         w20,w24

; 968  :     if ((err==UNZ_OK) && (szFileName!=NULL))

  002b8	35000018	 cbnz        w24,|$LN30@unz64local|
  002bc	b4000016	 cbz         x22,|$LN73@unz64local|

; 969  :     {
; 970  :         uLong uSizeRead ;
; 971  :         if (file_info.size_filename<fileNameBufferSize)

  002c0	6b1a02ff	 cmp         w23,w26
  002c4	54000002	 bhs         |$LN26@unz64local|

; 972  :         {
; 973  :             *(szFileName+file_info.size_filename)='\0';

  002c8	38374adf	 strb        wzr,[x22,w23 uxtw #0]

; 974  :             uSizeRead = file_info.size_filename;

  002cc	2a1703f6	 mov         w22,w23

; 975  :         }

  002d0	14000002	 b           |$LN27@unz64local|
  002d4		 |$LN26@unz64local|

; 976  :         else
; 977  :             uSizeRead = fileNameBufferSize;

  002d4	2a1a03f6	 mov         w22,w26
  002d8		 |$LN27@unz64local|

; 978  : 
; 979  :         if ((file_info.size_filename>0) && (fileNameBufferSize>0))

  002d8	2a1803f4	 mov         w20,w24
  002dc	34000017	 cbz         w23,|$LN29@unz64local|
  002e0	3400001a	 cbz         w26,|$LN29@unz64local|

; 980  :             if (ZREAD64(s->z_filefunc, s->filestream,szFileName,uSizeRead)!=uSizeRead)

  002e4	7100035f	 cmp         w26,#0
  002e8	1a9f835a	 cselhi      w26,w26,wzr
  002ec	d503229f	 csdb
  002f0	f94053e2	 ldr         x2,[sp,#0xA0]
  002f4	f94032a1	 ldr         x1,[x21,#0x60]
  002f8	2a1603e3	 mov         w3,w22
  002fc	f9401ea0	 ldr         x0,[x21,#0x38]
  00300	f94006a8	 ldr         x8,[x21,#8]
  00304	d63f0100	 blr         x8
  00308	f94013f3	 ldr         x19,[sp,#0x20]
  0030c	6b16001f	 cmp         w0,w22
  00310	54000000	 beq         |$LN29@unz64local|

; 981  :                 err=UNZ_ERRNO;

  00314	12800014	 mov         w20,#-1
  00318	4b1602f7	 sub         w23,w23,w22
  0031c	17ffffd5	 b           |$LN30@unz64local|
  00320		 |$LN29@unz64local|

; 982  :         lSeek -= uSizeRead;

  00320	4b1602f7	 sub         w23,w23,w22
  00324		 |$LN73@unz64local|

; 983  :     }
; 984  : 
; 985  :     // Read extrafield
; 986  :     if ((err==UNZ_OK) && (extraField!=NULL))

  00324	f9400fe8	 ldr         x8,[sp,#0x18]
  00328	b4000008	 cbz         x8,|$LN30@unz64local|

; 987  :     {
; 988  :         ZPOS64_T uSizeRead ;
; 989  :         if (file_info.size_file_extra<extraFieldBufferSize)

  0032c	b94067f6	 ldr         w22,[sp,#0x64]
  00330	6b1b02df	 cmp         w22,w27

; 990  :             uSizeRead = file_info.size_file_extra;

  00334	aa1603f8	 mov         x24,x22

; 991  :         else
; 992  :             uSizeRead = extraFieldBufferSize;

  00338	9a982378	 cselhs      x24,x27,x24

; 993  : 
; 994  :         if (lSeek!=0)

  0033c	34000017	 cbz         w23,|$LN36@unz64local|

; 995  :         {
; 996  :             if (ZSEEK64(s->z_filefunc, s->filestream,lSeek,ZLIB_FILEFUNC_SEEK_CUR)==0)

  00340	f94032a1	 ldr         x1,[x21,#0x60]
  00344	52800023	 mov         w3,#1
  00348	93407ee2	 sxtw        x2,w23
  0034c	aa1503e0	 mov         x0,x21
  00350	94000000	 bl          call_zseek64
  00354	f9400fe8	 ldr         x8,[sp,#0x18]
  00358	35000000	 cbnz        w0,|$LN35@unz64local|

; 997  :                 lSeek=0;

  0035c	52800017	 mov         w23,#0
  00360	14000002	 b           |$LN36@unz64local|
  00364		 |$LN35@unz64local|

; 998  :             else
; 999  :                 err=UNZ_ERRNO;

  00364	12800014	 mov         w20,#-1
  00368		 |$LN36@unz64local|

; 1000 :         }
; 1001 : 
; 1002 :         if ((file_info.size_file_extra>0) && (extraFieldBufferSize>0))

  00368	710002df	 cmp         w22,#0
  0036c	7a408b64	 ccmphi      w27,#0,#4
  00370	54000009	 bls         |$LN38@unz64local|

; 1003 :             if (ZREAD64(s->z_filefunc, s->filestream,extraField,(uLong)uSizeRead)!=uSizeRead)

  00374	7100037f	 cmp         w27,#0
  00378	1a9f837b	 cselhi      w27,w27,wzr
  0037c	d503229f	 csdb
  00380	f94032a1	 ldr         x1,[x21,#0x60]
  00384	aa0803e2	 mov         x2,x8
  00388	f9401ea0	 ldr         x0,[x21,#0x38]
  0038c	f94006a8	 ldr         x8,[x21,#8]
  00390	2a1803e3	 mov         w3,w24
  00394	d63f0100	 blr         x8
  00398	12800009	 mov         w9,#-1
  0039c	b94067f6	 ldr         w22,[sp,#0x64]
  003a0	f94013f3	 ldr         x19,[sp,#0x20]
  003a4	eb20431f	 cmp         x24,w0,uxtw #0
  003a8	1a941134	 cselne      w20,w9,w20
  003ac		 |$LN38@unz64local|

; 1004 :                 err=UNZ_ERRNO;
; 1005 : 
; 1006 :         lSeek += file_info.size_file_extra - (uLong)uSizeRead;

  003ac	4b1802c8	 sub         w8,w22,w24
  003b0	0b170108	 add         w8,w8,w23

; 1007 :     }

  003b4	17ffffb1	 b           |$LN79@unz64local|
  003b8		 |$LN41@unz64local|

; 1023 :             else
; 1024 :                 err=UNZ_ERRNO;

  003b8	12800014	 mov         w20,#-1
  003bc		 |$LN68@unz64local|

; 1025 :         }
; 1026 : 
; 1027 :         while(acc < file_info.size_file_extra)

  003bc	34000016	 cbz         w22,|$LN3@unz64local|
  003c0	b9406ff8	 ldr         w24,[sp,#0x6C]
  003c4	1280001b	 mov         w27,#-1
  003c8	a94567fa	 ldp         x26,x25,[sp,#0x50]
  003cc		 |$LL2@unz64local|

; 1028 :         {
; 1029 :             uLong headerId;
; 1030 :                                                 uLong dataSize;
; 1031 : 
; 1032 :             if (unz64local_getShort(&s->z_filefunc, s->filestream,&headerId) != UNZ_OK)

  003cc	f94032a1	 ldr         x1,[x21,#0x60]
  003d0	9100b3e2	 add         x2,sp,#0x2C
  003d4	aa1503e0	 mov         x0,x21
  003d8	94000000	 bl          unz64local_getShort

; 1033 :                 err=UNZ_ERRNO;
; 1034 : 
; 1035 :             if (unz64local_getShort(&s->z_filefunc, s->filestream,&dataSize) != UNZ_OK)

  003dc	f94032a1	 ldr         x1,[x21,#0x60]
  003e0	9100c3e2	 add         x2,sp,#0x30
  003e4	7100001f	 cmp         w0,#0
  003e8	aa1503e0	 mov         x0,x21
  003ec	1a941374	 cselne      w20,w27,w20
  003f0	94000000	 bl          unz64local_getShort
  003f4	12800008	 mov         w8,#-1

; 1036 :                 err=UNZ_ERRNO;
; 1037 : 
; 1038 :             /* ZIP64 extra fields */
; 1039 :             if (headerId == 0x0001)

  003f8	b94033fb	 ldr         w27,[sp,#0x30]
  003fc	7100001f	 cmp         w0,#0
  00400	1a941114	 cselne      w20,w8,w20
  00404	b9402fe8	 ldr         w8,[sp,#0x2C]
  00408	7100051f	 cmp         w8,#1
  0040c	54000001	 bne         |$LN45@unz64local|

; 1040 :             {
; 1041 :                                                         uLong uL;
; 1042 : 
; 1043 :                                                                 if(file_info.uncompressed_size == MAXU32)

  00410	b2407fe8	 mov         x8,#0xFFFFFFFF
  00414	eb08033f	 cmp         x25,x8
  00418	54000001	 bne         |$LN48@unz64local|

; 1044 :                                                                 {
; 1045 :                                                                         if (unz64local_getLong64(&s->z_filefunc, s->filestream,&file_info.uncompressed_size) != UNZ_OK)

  0041c	f94032a1	 ldr         x1,[x21,#0x60]
  00420	910163e2	 add         x2,sp,#0x58
  00424	aa1503e0	 mov         x0,x21
  00428	94000000	 bl          unz64local_getLong64
  0042c	12800008	 mov         w8,#-1
  00430	b9406ff8	 ldr         w24,[sp,#0x6C]
  00434	7100001f	 cmp         w0,#0
  00438	b94067f6	 ldr         w22,[sp,#0x64]
  0043c	1a941114	 cselne      w20,w8,w20
  00440	a94567fa	 ldp         x26,x25,[sp,#0x50]
  00444		 |$LN48@unz64local|

; 1046 :                                                                                         err=UNZ_ERRNO;
; 1047 :                                                                 }
; 1048 : 
; 1049 :                                                                 if(file_info.compressed_size == MAXU32)

  00444	b2407fe8	 mov         x8,#0xFFFFFFFF
  00448	eb08035f	 cmp         x26,x8
  0044c	54000001	 bne         |$LN50@unz64local|

; 1050 :                                                                 {
; 1051 :                                                                         if (unz64local_getLong64(&s->z_filefunc, s->filestream,&file_info.compressed_size) != UNZ_OK)

  00450	f94032a1	 ldr         x1,[x21,#0x60]
  00454	910143e2	 add         x2,sp,#0x50
  00458	aa1503e0	 mov         x0,x21
  0045c	94000000	 bl          unz64local_getLong64
  00460	12800008	 mov         w8,#-1
  00464	b9406ff8	 ldr         w24,[sp,#0x6C]
  00468	7100001f	 cmp         w0,#0
  0046c	b94067f6	 ldr         w22,[sp,#0x64]
  00470	1a941114	 cselne      w20,w8,w20
  00474	a94567fa	 ldp         x26,x25,[sp,#0x50]
  00478		 |$LN50@unz64local|

; 1052 :                                                                                   err=UNZ_ERRNO;
; 1053 :                                                                 }
; 1054 : 
; 1055 :                                                                 if(file_info_internal.offset_curfile == MAXU32)

  00478	b2407fe8	 mov         x8,#0xFFFFFFFF
  0047c	eb08027f	 cmp         x19,x8
  00480	54000001	 bne         |$LN52@unz64local|

; 1056 :                                                                 {
; 1057 :                                                                         /* Relative Header offset */
; 1058 :                                                                         if (unz64local_getLong64(&s->z_filefunc, s->filestream,&file_info_internal.offset_curfile) != UNZ_OK)

  00484	f94032a1	 ldr         x1,[x21,#0x60]
  00488	910083e2	 add         x2,sp,#0x20
  0048c	aa1503e0	 mov         x0,x21
  00490	94000000	 bl          unz64local_getLong64
  00494	12800008	 mov         w8,#-1
  00498	f94013f3	 ldr         x19,[sp,#0x20]
  0049c	7100001f	 cmp         w0,#0
  004a0	1a941114	 cselne      w20,w8,w20
  004a4		 |$LN52@unz64local|

; 1059 :                                                                                 err=UNZ_ERRNO;
; 1060 :                                                                 }
; 1061 : 
; 1062 :                                                                 if(file_info.disk_num_start == MAXU32)

  004a4	3100071f	 cmn         w24,#1
  004a8	54000001	 bne         |$LN55@unz64local|

; 1063 :                                                                 {
; 1064 :                                                                         /* Disk Start Number */
; 1065 :                                                                         if (unz64local_getLong(&s->z_filefunc, s->filestream,&uL) != UNZ_OK)

  004ac	f94032a1	 ldr         x1,[x21,#0x60]
  004b0	910263e2	 add         x2,sp,#0x98
  004b4	aa1503e0	 mov         x0,x21
  004b8	94000000	 bl          unz64local_getLong
  004bc	34000000	 cbz         w0,|$LN55@unz64local|

; 1066 :                                                                                 err=UNZ_ERRNO;

  004c0	12800014	 mov         w20,#-1

; 1067 :                                                                 }
; 1068 : 
; 1069 :             }

  004c4	14000009	 b           |$LN55@unz64local|
  004c8		 |$LN45@unz64local|

; 1070 :             else
; 1071 :             {
; 1072 :                 if (ZSEEK64(s->z_filefunc, s->filestream,dataSize,ZLIB_FILEFUNC_SEEK_CUR)!=0)

  004c8	f94032a1	 ldr         x1,[x21,#0x60]
  004cc	52800023	 mov         w3,#1
  004d0	aa1b03e2	 mov         x2,x27
  004d4	aa1503e0	 mov         x0,x21
  004d8	94000000	 bl          call_zseek64
  004dc	12800008	 mov         w8,#-1
  004e0	7100001f	 cmp         w0,#0
  004e4	1a941114	 cselne      w20,w8,w20
  004e8		 |$LN55@unz64local|

; 1073 :                     err=UNZ_ERRNO;
; 1074 :             }
; 1075 : 
; 1076 :             acc += 2 + 2 + dataSize;

  004e8	0b170368	 add         w8,w27,w23
  004ec	11001117	 add         w23,w8,#4
  004f0	6b1602ff	 cmp         w23,w22
  004f4	1280001b	 mov         w27,#-1
  004f8	54000003	 blo         |$LL2@unz64local|
  004fc	f94057f9	 ldr         x25,[sp,#0xA8]
  00500		 |$LN3@unz64local|

; 1077 :         }
; 1078 :     }
; 1079 : 
; 1080 :     if ((err==UNZ_OK) && (szComment!=NULL))

  00500	35000014	 cbnz        w20,|$LN66@unz64local|
  00504		 |$LN74@unz64local|
  00504	f9404be9	 ldr         x9,[sp,#0x90]
  00508	b4000009	 cbz         x9,|$LN75@unz64local|

; 1081 :     {
; 1082 :         uLong uSizeRead ;
; 1083 :         if (file_info.size_file_comment<commentBufferSize)

  0050c	b9406bf7	 ldr         w23,[sp,#0x68]
  00510	b94113f6	 ldr         w22,[sp,#0x110]
  00514	6b1602ff	 cmp         w23,w22
  00518	54000002	 bhs         |$LN58@unz64local|

; 1084 :         {
; 1085 :             *(szComment+file_info.size_file_comment)='\0';

  0051c	3837493f	 strb        wzr,[x9,w23 uxtw #0]

; 1086 :             uSizeRead = file_info.size_file_comment;

  00520	2a1703f8	 mov         w24,w23

; 1087 :         }

  00524	14000002	 b           |$LN59@unz64local|
  00528		 |$LN58@unz64local|

; 1088 :         else
; 1089 :             uSizeRead = commentBufferSize;

  00528	2a1603f8	 mov         w24,w22
  0052c		 |$LN59@unz64local|

; 1090 : 
; 1091 :         if (lSeek!=0)

  0052c	b9401be8	 ldr         w8,[sp,#0x18]
  00530	34000008	 cbz         w8,|$LN62@unz64local|

; 1092 :         {
; 1093 :             if (ZSEEK64(s->z_filefunc, s->filestream,lSeek,ZLIB_FILEFUNC_SEEK_CUR)==0)

  00534	f94032a1	 ldr         x1,[x21,#0x60]
  00538	52800023	 mov         w3,#1
  0053c	93407d02	 sxtw        x2,w8
  00540	aa1503e0	 mov         x0,x21
  00544	94000000	 bl          call_zseek64
  00548	12800008	 mov         w8,#-1
  0054c	f9404be9	 ldr         x9,[sp,#0x90]
  00550	7100001f	 cmp         w0,#0
  00554	1a941114	 cselne      w20,w8,w20
  00558		 |$LN62@unz64local|

; 1094 :                 lSeek=0;
; 1095 :             else
; 1096 :                 err=UNZ_ERRNO;
; 1097 :         }
; 1098 : 
; 1099 :         if ((file_info.size_file_comment>0) && (commentBufferSize>0))

  00558	710002ff	 cmp         w23,#0
  0055c	7a408ac4	 ccmphi      w22,#0,#4
  00560	54000009	 bls         |$LN64@unz64local|

; 1100 :             if (ZREAD64(s->z_filefunc, s->filestream,szComment,uSizeRead)!=uSizeRead)

  00564	710002df	 cmp         w22,#0
  00568	1a9f82d6	 cselhi      w22,w22,wzr
  0056c	d503229f	 csdb
  00570	f94032a1	 ldr         x1,[x21,#0x60]
  00574	f9401ea0	 ldr         x0,[x21,#0x38]
  00578	2a1803e3	 mov         w3,w24
  0057c	f94006a8	 ldr         x8,[x21,#8]
  00580	aa0903e2	 mov         x2,x9
  00584	d63f0100	 blr         x8
  00588	6b18001f	 cmp         w0,w24
  0058c	54000000	 beq         |$LN78@unz64local|

; 1101 :                 err=UNZ_ERRNO;

  00590	12800014	 mov         w20,#-1

; 1102 :         lSeek+=file_info.size_file_comment - uSizeRead;
; 1103 :     }
; 1104 :     else
; 1105 :         lSeek+=file_info.size_file_comment;
; 1106 : 
; 1107 : 
; 1108 :     if ((err==UNZ_OK) && (pfile_info!=NULL))

  00594	14000014	 b           |$LN66@unz64local|
  00598		 |$LN78@unz64local|

; 1100 :             if (ZREAD64(s->z_filefunc, s->filestream,szComment,uSizeRead)!=uSizeRead)

  00598	f94013f3	 ldr         x19,[sp,#0x20]
  0059c		 |$LN64@unz64local|

; 1102 :         lSeek+=file_info.size_file_comment - uSizeRead;
; 1103 :     }
; 1104 :     else
; 1105 :         lSeek+=file_info.size_file_comment;
; 1106 : 
; 1107 : 
; 1108 :     if ((err==UNZ_OK) && (pfile_info!=NULL))

  0059c	35000014	 cbnz        w20,|$LN66@unz64local|
  005a0		 |$LN75@unz64local|
  005a0	b4000019	 cbz         x25,|$LN76@unz64local|

; 1109 :         *pfile_info=file_info;

  005a4	9100e3ec	 add         x12,sp,#0x38
  005a8	a9402588	 ldp         x8,x9,[x12]
  005ac	a9412d8a	 ldp         x10,x11,[x12,#0x10]
  005b0	a9002728	 stp         x8,x9,[x25]
  005b4	a9422588	 ldp         x8,x9,[x12,#0x20]
  005b8	a9012f2a	 stp         x10,x11,[x25,#0x10]
  005bc	a9432d8a	 ldp         x10,x11,[x12,#0x30]
  005c0	a9022728	 stp         x8,x9,[x25,#0x20]
  005c4	a9442588	 ldp         x8,x9,[x12,#0x40]
  005c8	a9032f2a	 stp         x10,x11,[x25,#0x30]
  005cc	f940298a	 ldr         x10,[x12,#0x50]
  005d0	a9042728	 stp         x8,x9,[x25,#0x40]
  005d4	f9002b2a	 str         x10,[x25,#0x50]
  005d8		 |$LN76@unz64local|

; 1110 : 
; 1111 :     if ((err==UNZ_OK) && (pfile_info_internal!=NULL))

  005d8	f9405be8	 ldr         x8,[sp,#0xB0]
  005dc	b4000008	 cbz         x8,|$LN66@unz64local|

; 1112 :         *pfile_info_internal=file_info_internal;

  005e0	f9000113	 str         x19,[x8]
  005e4		 |$LN66@unz64local|

; 1113 : 
; 1114 :     return err;

  005e4	2a1403e0	 mov         w0,w20
  005e8		 |$LN1@unz64local|
  005e8	a8cc7bfd	 ldp         fp,lr,[sp],#0xC0
  005ec	f94023fb	 ldr         x27,[sp,#0x40]
  005f0	a9436bf9	 ldp         x25,x26,[sp,#0x30]
  005f4	a94263f7	 ldp         x23,x24,[sp,#0x20]
  005f8	a9415bf5	 ldp         x21,x22,[sp,#0x10]
  005fc	a8c553f3	 ldp         x19,x20,[sp],#0x50
  00600	d65f03c0	 ret

			 ENDP  ; |unz64local_GetCurrentFileInfoInternal|

; Function compile flags: /Ogtp
; File C:\Users\ws103\Desktop\zlib-1.2.11\contrib\minizip\unzip.c

	AREA	|.text$mn|, CODE, ARM64

  00000		 |unzGetCurrentFileInfo64| PROC

; 1129 : {

  00000		 |$LN4|
  00000	a9bf7bfd	 stp         fp,lr,[sp,#-0x10]!
  00004	910003fd	 mov         fp,sp
  00008	d10043ff	 sub         sp,sp,#0x10

; 1130 :     return unz64local_GetCurrentFileInfoInternal(file,pfile_info,NULL,

  0000c	b90003e7	 str         w7,[sp]
  00010	aa0603e7	 mov         x7,x6
  00014	2a0503e6	 mov         w6,w5
  00018	aa0403e5	 mov         x5,x4
  0001c	2a0303e4	 mov         w4,w3
  00020	aa0203e3	 mov         x3,x2
  00024	d2800002	 mov         x2,#0
  00028	94000000	 bl          unz64local_GetCurrentFileInfoInternal
  0002c	910043ff	 add         sp,sp,#0x10
  00030	a8c17bfd	 ldp         fp,lr,[sp],#0x10
  00034	d65f03c0	 ret

			 ENDP  ; |unzGetCurrentFileInfo64|

; Function compile flags: /Ogtp
; File C:\Users\ws103\Desktop\zlib-1.2.11\contrib\minizip\unzip.c

	AREA	|.text$mn|, CODE, ARM64

  00000		 |unzGetCurrentFileInfo| PROC

; 1141 : {

  00000		 |$LN5|
  00000	f81f0ff3	 str         x19,[sp,#-0x10]!
  00004	a9b97bfd	 stp         fp,lr,[sp,#-0x70]!
  00008	910003fd	 mov         fp,sp
  0000c	d10043ff	 sub         sp,sp,#0x10

; 1142 :     int err;
; 1143 :     unz_file_info64 file_info64;
; 1144 :     err = unz64local_GetCurrentFileInfoInternal(file,&file_info64,NULL,

  00010	b90003e7	 str         w7,[sp]
  00014	aa0603e7	 mov         x7,x6
  00018	2a0503e6	 mov         w6,w5
  0001c	aa0403e5	 mov         x5,x4
  00020	2a0303e4	 mov         w4,w3
  00024	aa0203e3	 mov         x3,x2
  00028	aa0103f3	 mov         x19,x1
  0002c	d2800002	 mov         x2,#0
  00030	910083e1	 add         x1,sp,#0x20
  00034	94000000	 bl          unz64local_GetCurrentFileInfoInternal

; 1145 :                                                 szFileName,fileNameBufferSize,
; 1146 :                                                 extraField,extraFieldBufferSize,
; 1147 :                                                 szComment,commentBufferSize);
; 1148 :     if ((err==UNZ_OK) && (pfile_info != NULL))

  00038	35000000	 cbnz        w0,|$LN2@unzGetCurr|
  0003c	b4000013	 cbz         x19,|$LN2@unzGetCurr|

; 1149 :     {
; 1150 :         pfile_info->version = file_info64.version;

  00040	294427e8	 ldp         w8,w9,[sp,#0x20]

; 1151 :         pfile_info->version_needed = file_info64.version_needed;
; 1152 :         pfile_info->flag = file_info64.flag;
; 1153 :         pfile_info->compression_method = file_info64.compression_method;
; 1154 :         pfile_info->dosDate = file_info64.dosDate;
; 1155 :         pfile_info->crc = file_info64.crc;
; 1156 : 
; 1157 :         pfile_info->size_filename = file_info64.size_filename;
; 1158 :         pfile_info->size_file_extra = file_info64.size_file_extra;
; 1159 :         pfile_info->size_file_comment = file_info64.size_file_comment;
; 1160 : 
; 1161 :         pfile_info->disk_num_start = file_info64.disk_num_start;
; 1162 :         pfile_info->internal_fa = file_info64.internal_fa;
; 1163 :         pfile_info->external_fa = file_info64.external_fa;
; 1164 : 
; 1165 :         pfile_info->tmu_date = file_info64.tmu_date,

  00044	910183ea	 add         x10,sp,#0x60
  00048	29002668	 stp         w8,w9,[x19]
  0004c	294527e8	 ldp         w8,w9,[sp,#0x28]
  00050	29012668	 stp         w8,w9,[x19,#8]
  00054	294627e8	 ldp         w8,w9,[sp,#0x30]
  00058	29022668	 stp         w8,w9,[x19,#0x10]
  0005c	294927e8	 ldp         w8,w9,[sp,#0x48]
  00060	29042668	 stp         w8,w9,[x19,#0x20]
  00064	294a27e8	 ldp         w8,w9,[sp,#0x50]
  00068	29052668	 stp         w8,w9,[x19,#0x28]
  0006c	294b27e8	 ldp         w8,w9,[sp,#0x58]
  00070	29062668	 stp         w8,w9,[x19,#0x30]
  00074	a9402548	 ldp         x8,x9,[x10]
  00078	f940094a	 ldr         x10,[x10,#0x10]
  0007c	a903a668	 stp         x8,x9,[x19,#0x38]
  00080	b9403be8	 ldr         w8,[sp,#0x38]

; 1166 : 
; 1167 : 
; 1168 :         pfile_info->compressed_size = (uLong)file_info64.compressed_size;
; 1169 :         pfile_info->uncompressed_size = (uLong)file_info64.uncompressed_size;

  00084	b94043e9	 ldr         w9,[sp,#0x40]
  00088	f900266a	 str         x10,[x19,#0x48]
  0008c	29032668	 stp         w8,w9,[x19,#0x18]
  00090		 |$LN2@unzGetCurr|
  00090	910043ff	 add         sp,sp,#0x10
  00094	a8c77bfd	 ldp         fp,lr,[sp],#0x70
  00098	f84107f3	 ldr         x19,[sp],#0x10
  0009c	d65f03c0	 ret

			 ENDP  ; |unzGetCurrentFileInfo|

; Function compile flags: /Ogtp
; File C:\Users\ws103\Desktop\zlib-1.2.11\contrib\minizip\unzip.c

	AREA	|.text$mn|, CODE, ARM64

  00000		 |unzGoToFirstFile| PROC

; 1179 : {

  00000		 |$LN5|
  00000	f81f0ff3	 str         x19,[sp,#-0x10]!
  00004	a9bf7bfd	 stp         fp,lr,[sp,#-0x10]!
  00008	910003fd	 mov         fp,sp
  0000c	d10043ff	 sub         sp,sp,#0x10
  00010	aa0003f3	 mov         x19,x0

; 1180 :     int err=UNZ_OK;
; 1181 :     unz64_s* s;
; 1182 :     if (file==NULL)

  00014	b5000013	 cbnz        x19,|$LN2@unzGoToFir|

; 1183 :         return UNZ_PARAMERROR;

  00018	12800ca0	 mov         w0,#-0x66
  0001c	910043ff	 add         sp,sp,#0x10
  00020	a8c17bfd	 ldp         fp,lr,[sp],#0x10
  00024	f84107f3	 ldr         x19,[sp],#0x10
  00028	d65f03c0	 ret
  0002c		 |$LN2@unzGoToFir|

; 1184 :     s=(unz64_s*)file;
; 1185 :     s->pos_in_central_dir=s->offset_central_dir;

  0002c	f9405668	 ldr         x8,[x19,#0xA8]

; 1186 :     s->num_file=0;
; 1187 :     err=unz64local_GetCurrentFileInfoInternal(file,&s->cur_file_info,

  00030	d2800007	 mov         x7,#0
  00034	a908227f	 stp         xzr,x8,[x19,#0x80]
  00038	52800006	 mov         w6,#0
  0003c	b90003ff	 str         wzr,[sp]
  00040	d2800005	 mov         x5,#0
  00044	52800004	 mov         w4,#0
  00048	d2800003	 mov         x3,#0
  0004c	91042262	 add         x2,x19,#0x108
  00050	9102c261	 add         x1,x19,#0xB0
  00054	aa1303e0	 mov         x0,x19
  00058	94000000	 bl          unz64local_GetCurrentFileInfoInternal

; 1188 :                                              &s->cur_file_info_internal,
; 1189 :                                              NULL,0,NULL,0,NULL,0);
; 1190 :     s->current_file_ok = (err == UNZ_OK);

  0005c	7100001f	 cmp         w0,#0
  00060	9a9f17e8	 cseteq      x8
  00064	f9004a68	 str         x8,[x19,#0x90]
  00068	910043ff	 add         sp,sp,#0x10
  0006c	a8c17bfd	 ldp         fp,lr,[sp],#0x10
  00070	f84107f3	 ldr         x19,[sp],#0x10
  00074	d65f03c0	 ret

			 ENDP  ; |unzGoToFirstFile|

; Function compile flags: /Ogtp
; File C:\Users\ws103\Desktop\zlib-1.2.11\contrib\minizip\unzip.c

	AREA	|.text$mn|, CODE, ARM64

  00000		 |unzGoToNextFile| PROC

; 1200 : {

  00000		 |$LN11|
  00000	f81f0ff3	 str         x19,[sp,#-0x10]!
  00004	a9bf7bfd	 stp         fp,lr,[sp,#-0x10]!
  00008	910003fd	 mov         fp,sp
  0000c	d10043ff	 sub         sp,sp,#0x10
  00010	aa0003f3	 mov         x19,x0

; 1201 :     unz64_s* s;
; 1202 :     int err;
; 1203 : 
; 1204 :     if (file==NULL)

  00014	b5000013	 cbnz        x19,|$LN2@unzGoToNex|

; 1205 :         return UNZ_PARAMERROR;

  00018	12800ca0	 mov         w0,#-0x66
  0001c	910043ff	 add         sp,sp,#0x10
  00020	a8c17bfd	 ldp         fp,lr,[sp],#0x10
  00024	f84107f3	 ldr         x19,[sp],#0x10
  00028	d65f03c0	 ret
  0002c		 |$LN2@unzGoToNex|

; 1206 :     s=(unz64_s*)file;
; 1207 :     if (!s->current_file_ok)

  0002c	f9404a68	 ldr         x8,[x19,#0x90]
  00030	b4000008	 cbz         x8,|$LN9@unzGoToNex|

; 1208 :         return UNZ_END_OF_LIST_OF_FILE;
; 1209 :     if (s->gi.number_entry != 0xffff)    /* 2^16 files overflow hack */

  00034	f940366a	 ldr         x10,[x19,#0x68]
  00038	d29fffe8	 mov         x8,#0xFFFF
  0003c	eb08015f	 cmp         x10,x8
  00040	54000000	 beq         |$LN8@unzGoToNex|

; 1210 :       if (s->num_file+1==s->gi.number_entry)

  00044	f9404268	 ldr         x8,[x19,#0x80]
  00048	91000509	 add         x9,x8,#1
  0004c	eb0a013f	 cmp         x9,x10
  00050	54000000	 beq         |$LN9@unzGoToNex|
  00054		 |$LN8@unzGoToNex|

; 1212 : 
; 1213 :     s->pos_in_central_dir += SIZECENTRALDIRITEM + s->cur_file_info.size_filename +

  00054	295ba668	 ldp         w8,w9,[x19,#0xDC]

; 1214 :             s->cur_file_info.size_file_extra + s->cur_file_info.size_file_comment ;
; 1215 :     s->num_file++;
; 1216 :     err = unz64local_GetCurrentFileInfoInternal(file,&s->cur_file_info,

  00058	d2800007	 mov         x7,#0
  0005c	b90003ff	 str         wzr,[sp]
  00060	52800006	 mov         w6,#0
  00064	d2800005	 mov         x5,#0
  00068	52800004	 mov         w4,#0
  0006c	0b08012a	 add         w10,w9,w8
  00070	b940da69	 ldr         w9,[x19,#0xD8]
  00074	f9404668	 ldr         x8,[x19,#0x88]
  00078	d2800003	 mov         x3,#0
  0007c	91042262	 add         x2,x19,#0x108
  00080	9102c261	 add         x1,x19,#0xB0
  00084	0b09014a	 add         w10,w10,w9
  00088	1100b94b	 add         w11,w10,#0x2E
  0008c	f940426a	 ldr         x10,[x19,#0x80]
  00090	8b2b4109	 add         x9,x8,w11,uxtw #0
  00094	aa1303e0	 mov         x0,x19
  00098	f9004669	 str         x9,[x19,#0x88]
  0009c	91000548	 add         x8,x10,#1
  000a0	f9004268	 str         x8,[x19,#0x80]
  000a4	94000000	 bl          unz64local_GetCurrentFileInfoInternal

; 1217 :                                                &s->cur_file_info_internal,
; 1218 :                                                NULL,0,NULL,0,NULL,0);
; 1219 :     s->current_file_ok = (err == UNZ_OK);

  000a8	7100001f	 cmp         w0,#0
  000ac	9a9f17e8	 cseteq      x8
  000b0	f9004a68	 str         x8,[x19,#0x90]
  000b4	910043ff	 add         sp,sp,#0x10
  000b8	a8c17bfd	 ldp         fp,lr,[sp],#0x10
  000bc	f84107f3	 ldr         x19,[sp],#0x10
  000c0	d65f03c0	 ret
  000c4		 |$LN9@unzGoToNex|

; 1211 :         return UNZ_END_OF_LIST_OF_FILE;

  000c4	12800c60	 mov         w0,#-0x64
  000c8	910043ff	 add         sp,sp,#0x10
  000cc	a8c17bfd	 ldp         fp,lr,[sp],#0x10
  000d0	f84107f3	 ldr         x19,[sp],#0x10
  000d4	d65f03c0	 ret

			 ENDP  ; |unzGoToNextFile|

; Function compile flags: /Ogtp
; File C:\Users\ws103\Desktop\zlib-1.2.11\contrib\minizip\unzip.c

	AREA	|.text$mn|, CODE, ARM64

  00000		 |unzLocateFile| PROC

; 1233 : {

  00000		 |$LN24|
  00000	a9bd53f3	 stp         x19,x20,[sp,#-0x30]!
  00004	a9015bf5	 stp         x21,x22,[sp,#0x10]
  00008	a90263f7	 stp         x23,x24,[sp,#0x20]
  0000c	a9a97bfd	 stp         fp,lr,[sp,#-0x170]!
  00010	910003fd	 mov         fp,sp
  00014	aa0003f4	 mov         x20,x0
  00018	aa0103f5	 mov         x21,x1
  0001c	2a0203f6	 mov         w22,w2

; 1234 :     unz64_s* s;
; 1235 :     int err;
; 1236 : 
; 1237 :     /* We remember the 'current' position in the file so that we can jump
; 1238 :      * back there if we fail.
; 1239 :      */
; 1240 :     unz_file_info64 cur_file_infoSaved;
; 1241 :     unz_file_info64_internal cur_file_info_internalSaved;
; 1242 :     ZPOS64_T num_fileSaved;
; 1243 :     ZPOS64_T pos_in_central_dirSaved;
; 1244 : 
; 1245 : 
; 1246 :     if (file==NULL)

  00020	b4000014	 cbz         x20,|$LN20@unzLocateF|

; 1247 :         return UNZ_PARAMERROR;
; 1248 : 
; 1249 :     if (strlen(szFileName)>=UNZ_MAXFILENAMEINZIP)

  00024	39c002a8	 ldrsb       w8,[x21]
  00028	aa1503e9	 mov         x9,x21
  0002c	34000008	 cbz         w8,|$LN10@unzLocateF|
  00030		 |$LL11@unzLocateF|
  00030	38c01d28	 ldrsb       w8,[x9,#1]!
  00034	35000008	 cbnz        w8,|$LL11@unzLocateF|
  00038		 |$LN10@unzLocateF|
  00038	cb150128	 sub         x8,x9,x21
  0003c	f104011f	 cmp         x8,#0x100
  00040	54000002	 bhs         |$LN20@unzLocateF|

; 1251 : 
; 1252 :     s=(unz64_s*)file;

  00044	f104011f	 cmp         x8,#0x100
  00048	9a9f3108	 csello      x8,x8,xzr
  0004c	d503229f	 csdb

; 1253 :     if (!s->current_file_ok)

  00050	f9404a88	 ldr         x8,[x20,#0x90]
  00054	b5000008	 cbnz        x8,|$LN6@unzLocateF|

; 1254 :         return UNZ_END_OF_LIST_OF_FILE;

  00058	12800c60	 mov         w0,#-0x64
  0005c	a8d77bfd	 ldp         fp,lr,[sp],#0x170
  00060	a94263f7	 ldp         x23,x24,[sp,#0x20]
  00064	a9415bf5	 ldp         x21,x22,[sp,#0x10]
  00068	a8c353f3	 ldp         x19,x20,[sp],#0x30
  0006c	d65f03c0	 ret
  00070		 |$LN6@unzLocateF|

; 1255 : 
; 1256 :     /* Save the current state */
; 1257 :     num_fileSaved = s->num_file;
; 1258 :     pos_in_central_dirSaved = s->pos_in_central_dir;
; 1259 :     cur_file_infoSaved = s->cur_file_info;

  00070	a94b2688	 ldp         x8,x9,[x20,#0xB0]
  00074	910043ec	 add         x12,sp,#0x10
  00078	a94c2e8a	 ldp         x10,x11,[x20,#0xC0]

; 1260 :     cur_file_info_internalSaved = s->cur_file_info_internal;
; 1261 : 
; 1262 :     err = unzGoToFirstFile(file);

  0007c	aa1403e0	 mov         x0,x20
  00080	a9486297	 ldp         x23,x24,[x20,#0x80]
  00084	f9408693	 ldr         x19,[x20,#0x108]
  00088	a9002588	 stp         x8,x9,[x12]
  0008c	a94d2688	 ldp         x8,x9,[x20,#0xD0]
  00090	a9012d8a	 stp         x10,x11,[x12,#0x10]
  00094	a94e2e8a	 ldp         x10,x11,[x20,#0xE0]
  00098	a9022588	 stp         x8,x9,[x12,#0x20]
  0009c	a94f2688	 ldp         x8,x9,[x20,#0xF0]
  000a0	a9032d8a	 stp         x10,x11,[x12,#0x30]
  000a4	f940828a	 ldr         x10,[x20,#0x100]
  000a8	a9042588	 stp         x8,x9,[x12,#0x40]
  000ac	f900298a	 str         x10,[x12,#0x50]
  000b0	94000000	 bl          unzGoToFirstFile
  000b4		 |$LN22@unzLocateF|

; 1263 : 
; 1264 :     while (err == UNZ_OK)
; 1265 :     {
; 1266 :         char szCurrentFileName[UNZ_MAXFILENAMEINZIP+1];
; 1267 :         err = unzGetCurrentFileInfo64(file,NULL,

  000b4	35000000	 cbnz        w0,|$LN21@unzLocateF|
  000b8	52800007	 mov         w7,#0
  000bc	d2800006	 mov         x6,#0
  000c0	52800005	 mov         w5,#0
  000c4	d2800004	 mov         x4,#0
  000c8	52802003	 mov         w3,#0x100
  000cc	9101a3e2	 add         x2,sp,#0x68
  000d0	d2800001	 mov         x1,#0
  000d4	aa1403e0	 mov         x0,x20
  000d8	94000000	 bl          unzGetCurrentFileInfo64

; 1268 :                                     szCurrentFileName,sizeof(szCurrentFileName)-1,
; 1269 :                                     NULL,0,NULL,0);
; 1270 :         if (err == UNZ_OK)

  000dc	35000000	 cbnz        w0,|$LN22@unzLocateF|

; 1271 :         {
; 1272 :             if (unzStringFileNameCompare(szCurrentFileName,
; 1273 :                                             szFileName,iCaseSensitivity)==0)

  000e0	2a1603e2	 mov         w2,w22
  000e4	aa1503e1	 mov         x1,x21
  000e8	9101a3e0	 add         x0,sp,#0x68
  000ec	94000000	 bl          unzStringFileNameCompare
  000f0	34000000	 cbz         w0,|$LN14@unzLocateF|

; 1275 :             err = unzGoToNextFile(file);

  000f4	aa1403e0	 mov         x0,x20
  000f8	94000000	 bl          unzGoToNextFile
  000fc	17ffffee	 b           |$LN22@unzLocateF|
  00100		 |$LN14@unzLocateF|

; 1274 :                 return UNZ_OK;

  00100	52800000	 mov         w0,#0
  00104	a8d77bfd	 ldp         fp,lr,[sp],#0x170
  00108	a94263f7	 ldp         x23,x24,[sp,#0x20]
  0010c	a9415bf5	 ldp         x21,x22,[sp,#0x10]
  00110	a8c353f3	 ldp         x19,x20,[sp],#0x30
  00114	d65f03c0	 ret
  00118		 |$LN21@unzLocateF|

; 1276 :         }
; 1277 :     }
; 1278 : 
; 1279 :     /* We failed, so restore the state of the 'current file' to where we
; 1280 :      * were.
; 1281 :      */
; 1282 :     s->num_file = num_fileSaved ;
; 1283 :     s->pos_in_central_dir = pos_in_central_dirSaved ;
; 1284 :     s->cur_file_info = cur_file_infoSaved;

  00118	910043ec	 add         x12,sp,#0x10
  0011c	a9086297	 stp         x23,x24,[x20,#0x80]
  00120	a9402588	 ldp         x8,x9,[x12]

; 1285 :     s->cur_file_info_internal = cur_file_info_internalSaved;

  00124	f9008693	 str         x19,[x20,#0x108]
  00128	a9412d8a	 ldp         x10,x11,[x12,#0x10]
  0012c	a90b2688	 stp         x8,x9,[x20,#0xB0]
  00130	a9422588	 ldp         x8,x9,[x12,#0x20]
  00134	a90c2e8a	 stp         x10,x11,[x20,#0xC0]
  00138	a9432d8a	 ldp         x10,x11,[x12,#0x30]
  0013c	a90d2688	 stp         x8,x9,[x20,#0xD0]
  00140	a9442588	 ldp         x8,x9,[x12,#0x40]
  00144	a90e2e8a	 stp         x10,x11,[x20,#0xE0]
  00148	f940298a	 ldr         x10,[x12,#0x50]
  0014c	a90f2688	 stp         x8,x9,[x20,#0xF0]
  00150	f900828a	 str         x10,[x20,#0x100]
  00154	a8d77bfd	 ldp         fp,lr,[sp],#0x170
  00158	a94263f7	 ldp         x23,x24,[sp,#0x20]
  0015c	a9415bf5	 ldp         x21,x22,[sp,#0x10]
  00160	a8c353f3	 ldp         x19,x20,[sp],#0x30
  00164	d65f03c0	 ret
  00168		 |$LN20@unzLocateF|

; 1250 :         return UNZ_PARAMERROR;

  00168	12800ca0	 mov         w0,#-0x66
  0016c	a8d77bfd	 ldp         fp,lr,[sp],#0x170
  00170	a94263f7	 ldp         x23,x24,[sp,#0x20]
  00174	a9415bf5	 ldp         x21,x22,[sp,#0x10]
  00178	a8c353f3	 ldp         x19,x20,[sp],#0x30
  0017c	d65f03c0	 ret

			 ENDP  ; |unzLocateFile|

; Function compile flags: /Ogtp
; File C:\Users\ws103\Desktop\zlib-1.2.11\contrib\minizip\unzip.c

	AREA	|.text$mn|, CODE, ARM64

  00000		 |unzGetFilePos64| PROC

; 1310 :     unz64_s* s;
; 1311 : 
; 1312 :     if (file==NULL || file_pos==NULL)

  00000	b4000000	 cbz         x0,|$LN3@unzGetFile|
  00004	b4000001	 cbz         x1,|$LN3@unzGetFile|

; 1314 :     s=(unz64_s*)file;
; 1315 :     if (!s->current_file_ok)

  00008	f9404808	 ldr         x8,[x0,#0x90]
  0000c	b5000008	 cbnz        x8,|$LN4@unzGetFile|

; 1316 :         return UNZ_END_OF_LIST_OF_FILE;

  00010	12800c60	 mov         w0,#-0x64
  00014	d65f03c0	 ret
  00018		 |$LN4@unzGetFile|

; 1317 : 
; 1318 :     file_pos->pos_in_zip_directory  = s->pos_in_central_dir;

  00018	f9404408	 ldr         x8,[x0,#0x88]
  0001c	f9000028	 str         x8,[x1]

; 1319 :     file_pos->num_of_file           = s->num_file;

  00020	f9404009	 ldr         x9,[x0,#0x80]

; 1320 : 
; 1321 :     return UNZ_OK;

  00024	52800000	 mov         w0,#0
  00028	f9000429	 str         x9,[x1,#8]
  0002c	d65f03c0	 ret
  00030		 |$LN3@unzGetFile|

; 1313 :         return UNZ_PARAMERROR;

  00030	12800ca0	 mov         w0,#-0x66
  00034	d65f03c0	 ret

			 ENDP  ; |unzGetFilePos64|

; Function compile flags: /Ogtp
; File C:\Users\ws103\Desktop\zlib-1.2.11\contrib\minizip\unzip.c

	AREA	|.text$mn|, CODE, ARM64

  00000		 |unzGetFilePos| PROC

; 1327 : {

  00000		 |$LN5|
  00000	f81f0ff3	 str         x19,[sp,#-0x10]!
  00004	a9be7bfd	 stp         fp,lr,[sp,#-0x20]!
  00008	910003fd	 mov         fp,sp
  0000c	aa0103f3	 mov         x19,x1

; 1328 :     unz64_file_pos file_pos64;
; 1329 :     int err = unzGetFilePos64(file,&file_pos64);

  00010	910043e1	 add         x1,sp,#0x10
  00014	94000000	 bl          unzGetFilePos64

; 1330 :     if (err==UNZ_OK)

  00018	35000000	 cbnz        w0,|$LN2@unzGetFile|

; 1331 :     {
; 1332 :         file_pos->pos_in_zip_directory = (uLong)file_pos64.pos_in_zip_directory;

  0001c	b94013e8	 ldr         w8,[sp,#0x10]

; 1333 :         file_pos->num_of_file = (uLong)file_pos64.num_of_file;

  00020	b9401be9	 ldr         w9,[sp,#0x18]
  00024	29002668	 stp         w8,w9,[x19]
  00028		 |$LN2@unzGetFile|
  00028	a8c27bfd	 ldp         fp,lr,[sp],#0x20
  0002c	f84107f3	 ldr         x19,[sp],#0x10
  00030	d65f03c0	 ret

			 ENDP  ; |unzGetFilePos|

; Function compile flags: /Ogtp
; File C:\Users\ws103\Desktop\zlib-1.2.11\contrib\minizip\unzip.c

	AREA	|.text$mn|, CODE, ARM64

  00000		 |unzGoToFilePos64| PROC

; 1339 : {

  00000		 |$LN6|
  00000	f81f0ff3	 str         x19,[sp,#-0x10]!
  00004	a9bf7bfd	 stp         fp,lr,[sp,#-0x10]!
  00008	910003fd	 mov         fp,sp
  0000c	d10043ff	 sub         sp,sp,#0x10
  00010	aa0003f3	 mov         x19,x0

; 1340 :     unz64_s* s;
; 1341 :     int err;
; 1342 : 
; 1343 :     if (file==NULL || file_pos==NULL)

  00014	b4000013	 cbz         x19,|$LN3@unzGoToFil|
  00018	b4000001	 cbz         x1,|$LN3@unzGoToFil|

; 1345 :     s=(unz64_s*)file;
; 1346 : 
; 1347 :     /* jump to the right spot */
; 1348 :     s->pos_in_central_dir = file_pos->pos_in_zip_directory;

  0001c	f9400028	 ldr         x8,[x1]

; 1349 :     s->num_file           = file_pos->num_of_file;
; 1350 : 
; 1351 :     /* set the current file */
; 1352 :     err = unz64local_GetCurrentFileInfoInternal(file,&s->cur_file_info,

  00020	d2800007	 mov         x7,#0
  00024	b90003ff	 str         wzr,[sp]
  00028	52800006	 mov         w6,#0
  0002c	d2800005	 mov         x5,#0
  00030	52800004	 mov         w4,#0
  00034	f9004668	 str         x8,[x19,#0x88]
  00038	f9400429	 ldr         x9,[x1,#8]
  0003c	d2800003	 mov         x3,#0
  00040	91042262	 add         x2,x19,#0x108
  00044	9102c261	 add         x1,x19,#0xB0
  00048	f9004269	 str         x9,[x19,#0x80]
  0004c	94000000	 bl          unz64local_GetCurrentFileInfoInternal

; 1353 :                                                &s->cur_file_info_internal,
; 1354 :                                                NULL,0,NULL,0,NULL,0);
; 1355 :     /* return results */
; 1356 :     s->current_file_ok = (err == UNZ_OK);

  00050	7100001f	 cmp         w0,#0
  00054	9a9f17e8	 cseteq      x8
  00058	f9004a68	 str         x8,[x19,#0x90]
  0005c	910043ff	 add         sp,sp,#0x10
  00060	a8c17bfd	 ldp         fp,lr,[sp],#0x10
  00064	f84107f3	 ldr         x19,[sp],#0x10
  00068	d65f03c0	 ret
  0006c		 |$LN3@unzGoToFil|

; 1344 :         return UNZ_PARAMERROR;

  0006c	12800ca0	 mov         w0,#-0x66
  00070	910043ff	 add         sp,sp,#0x10
  00074	a8c17bfd	 ldp         fp,lr,[sp],#0x10
  00078	f84107f3	 ldr         x19,[sp],#0x10
  0007c	d65f03c0	 ret

			 ENDP  ; |unzGoToFilePos64|

; Function compile flags: /Ogtp
; File C:\Users\ws103\Desktop\zlib-1.2.11\contrib\minizip\unzip.c

	AREA	|.text$mn|, CODE, ARM64

  00000		 |unzGoToFilePos| PROC

; 1363 : {

  00000		 |$LN5|
  00000	a9be7bfd	 stp         fp,lr,[sp,#-0x20]!
  00004	910003fd	 mov         fp,sp

; 1364 :     unz64_file_pos file_pos64;
; 1365 :     if (file_pos == NULL)

  00008	b5000001	 cbnz        x1,|$LN2@unzGoToFil|

; 1366 :         return UNZ_PARAMERROR;

  0000c	12800ca0	 mov         w0,#-0x66
  00010	a8c27bfd	 ldp         fp,lr,[sp],#0x20
  00014	d65f03c0	 ret
  00018		 |$LN2@unzGoToFil|

; 1367 : 
; 1368 :     file_pos64.pos_in_zip_directory = file_pos->pos_in_zip_directory;

  00018	29402428	 ldp         w8,w9,[x1]

; 1369 :     file_pos64.num_of_file = file_pos->num_of_file;
; 1370 :     return unzGoToFilePos64(file,&file_pos64);

  0001c	910043e1	 add         x1,sp,#0x10
  00020	a90127e8	 stp         x8,x9,[sp,#0x10]
  00024	94000000	 bl          unzGoToFilePos64
  00028	a8c27bfd	 ldp         fp,lr,[sp],#0x20
  0002c	d65f03c0	 ret

			 ENDP  ; |unzGoToFilePos|

; Function compile flags: /Ogtp
; File C:\Users\ws103\Desktop\zlib-1.2.11\contrib\minizip\unzip.c

	AREA	|.text$mn|, CODE, ARM64

  00000		 |unz64local_CheckCurrentFileCoherencyHeader| PROC

; 1388 : {

  00000	a9bd53f3	 stp         x19,x20,[sp,#-0x30]!
  00004	a9015bf5	 stp         x21,x22,[sp,#0x10]
  00008	a90263f7	 stp         x23,x24,[sp,#0x20]
  0000c	a9be7bfd	 stp         fp,lr,[sp,#-0x20]!
  00010	910003fd	 mov         fp,sp
  00014	aa0003f4	 mov         x20,x0

; 1389 :     uLong uMagic,uData,uFlags;
; 1390 :     uLong size_filename;
; 1391 :     uLong size_extra_field;
; 1392 :     int err=UNZ_OK;
; 1393 : 
; 1394 :     *piSizeVar = 0;
; 1395 :     *poffset_local_extrafield = 0;
; 1396 :     *psize_local_extrafield = 0;
; 1397 : 
; 1398 :     if (ZSEEK64(s->z_filefunc, s->filestream,s->cur_file_info_internal.offset_curfile +
; 1399 :                                 s->byte_before_the_zipfile,ZLIB_FILEFUNC_SEEK_SET)!=0)

  00018	f9403e89	 ldr         x9,[x20,#0x78]
  0001c	aa0103f6	 mov         x22,x1
  00020	f9408688	 ldr         x8,[x20,#0x108]
  00024	aa0203f7	 mov         x23,x2
  00028	b90002df	 str         wzr,[x22]
  0002c	f9403281	 ldr         x1,[x20,#0x60]
  00030	aa0303f8	 mov         x24,x3
  00034	f90002ff	 str         xzr,[x23]
  00038	52800003	 mov         w3,#0
  0003c	b900031f	 str         wzr,[x24]
  00040	8b080122	 add         x2,x9,x8
  00044	94000000	 bl          call_zseek64
  00048	34000000	 cbz         w0,|$LN2@unz64local|

; 1400 :         return UNZ_ERRNO;

  0004c	12800000	 mov         w0,#-1
  00050	a8c27bfd	 ldp         fp,lr,[sp],#0x20
  00054	a94263f7	 ldp         x23,x24,[sp,#0x20]
  00058	a9415bf5	 ldp         x21,x22,[sp,#0x10]
  0005c	a8c353f3	 ldp         x19,x20,[sp],#0x30
  00060	d65f03c0	 ret
  00064		 |$LN2@unz64local|

; 1401 : 
; 1402 : 
; 1403 :     if (err==UNZ_OK)
; 1404 :     {
; 1405 :         if (unz64local_getLong(&s->z_filefunc, s->filestream,&uMagic) != UNZ_OK)

  00064	f9403281	 ldr         x1,[x20,#0x60]
  00068	910043e2	 add         x2,sp,#0x10
  0006c	aa1403e0	 mov         x0,x20
  00070	94000000	 bl          unz64local_getLong
  00074	34000000	 cbz         w0,|$LN4@unz64local|

; 1406 :             err=UNZ_ERRNO;

  00078	12800013	 mov         w19,#-1
  0007c	14000007	 b           |$LN6@unz64local|
  00080		 |$LN4@unz64local|

; 1407 :         else if (uMagic!=0x04034b50)

  00080	b94013e8	 ldr         w8,[sp,#0x10]
  00084	52896a09	 mov         w9,#0x4B50
  00088	72a08069	 movk        w9,#0x403,lsl #0x10
  0008c	6b09011f	 cmp         w8,w9
  00090	12800cc9	 mov         w9,#-0x67
  00094	1a9f1133	 cselne      w19,w9,wzr
  00098		 |$LN6@unz64local|

; 1408 :             err=UNZ_BADZIPFILE;
; 1409 :     }
; 1410 : 
; 1411 :     if (unz64local_getShort(&s->z_filefunc, s->filestream,&uData) != UNZ_OK)

  00098	f9403281	 ldr         x1,[x20,#0x60]
  0009c	910043e2	 add         x2,sp,#0x10
  000a0	aa1403e0	 mov         x0,x20
  000a4	94000000	 bl          unz64local_getShort

; 1412 :         err=UNZ_ERRNO;
; 1413 : /*
; 1414 :     else if ((err==UNZ_OK) && (uData!=s->cur_file_info.wVersion))
; 1415 :         err=UNZ_BADZIPFILE;
; 1416 : */
; 1417 :     if (unz64local_getShort(&s->z_filefunc, s->filestream,&uFlags) != UNZ_OK)

  000a8	f9403281	 ldr         x1,[x20,#0x60]
  000ac	12800008	 mov         w8,#-1
  000b0	7100001f	 cmp         w0,#0
  000b4	910053e2	 add         x2,sp,#0x14
  000b8	aa1403e0	 mov         x0,x20
  000bc	1a931113	 cselne      w19,w8,w19
  000c0	94000000	 bl          unz64local_getShort

; 1418 :         err=UNZ_ERRNO;
; 1419 : 
; 1420 :     if (unz64local_getShort(&s->z_filefunc, s->filestream,&uData) != UNZ_OK)

  000c4	f9403281	 ldr         x1,[x20,#0x60]
  000c8	7100001f	 cmp         w0,#0
  000cc	12800008	 mov         w8,#-1
  000d0	910043e2	 add         x2,sp,#0x10
  000d4	aa1403e0	 mov         x0,x20
  000d8	1a931113	 cselne      w19,w8,w19
  000dc	94000000	 bl          unz64local_getShort
  000e0	34000000	 cbz         w0,|$LN9@unz64local|

; 1421 :         err=UNZ_ERRNO;

  000e4	12800013	 mov         w19,#-1
  000e8	1400000c	 b           |$LN12@unz64local|
  000ec		 |$LN9@unz64local|

; 1422 :     else if ((err==UNZ_OK) && (uData!=s->cur_file_info.compression_method))

  000ec	35000013	 cbnz        w19,|$LN12@unz64local|
  000f0	b940be89	 ldr         w9,[x20,#0xBC]
  000f4	b94013e8	 ldr         w8,[sp,#0x10]
  000f8	6b09011f	 cmp         w8,w9
  000fc	54000000	 beq         |$LN28@unz64local|

; 1423 :         err=UNZ_BADZIPFILE;

  00100	12800cd3	 mov         w19,#-0x67

; 1424 : 
; 1425 :     if ((err==UNZ_OK) && (s->cur_file_info.compression_method!=0) &&
; 1426 : /* #ifdef HAVE_BZIP2 */
; 1427 :                          (s->cur_file_info.compression_method!=Z_BZIP2ED) &&

  00104	14000005	 b           |$LN12@unz64local|
  00108		 |$LN28@unz64local|
  00108	721c753f	 tst         w9,#0xFFFFFFF3
  0010c	7a440924	 ccmpeq      w9,#4,#4
  00110	12800cc8	 mov         w8,#-0x67
  00114	1a930113	 cseleq      w19,w8,w19
  00118		 |$LN12@unz64local|

; 1428 : /* #endif */
; 1429 :                          (s->cur_file_info.compression_method!=Z_DEFLATED))
; 1430 :         err=UNZ_BADZIPFILE;
; 1431 : 
; 1432 :     if (unz64local_getLong(&s->z_filefunc, s->filestream,&uData) != UNZ_OK) /* date/time */

  00118	f9403281	 ldr         x1,[x20,#0x60]
  0011c	910043e2	 add         x2,sp,#0x10
  00120	aa1403e0	 mov         x0,x20
  00124	94000000	 bl          unz64local_getLong

; 1433 :         err=UNZ_ERRNO;
; 1434 : 
; 1435 :     if (unz64local_getLong(&s->z_filefunc, s->filestream,&uData) != UNZ_OK) /* crc */

  00128	f9403281	 ldr         x1,[x20,#0x60]
  0012c	12800008	 mov         w8,#-1
  00130	7100001f	 cmp         w0,#0
  00134	910043e2	 add         x2,sp,#0x10
  00138	aa1403e0	 mov         x0,x20
  0013c	1a931113	 cselne      w19,w8,w19
  00140	94000000	 bl          unz64local_getLong
  00144	b94017f5	 ldr         w21,[sp,#0x14]
  00148	34000000	 cbz         w0,|$LN14@unz64local|

; 1436 :         err=UNZ_ERRNO;

  0014c	12800013	 mov         w19,#-1
  00150	14000009	 b           |$LN16@unz64local|
  00154		 |$LN14@unz64local|

; 1437 :     else if ((err==UNZ_OK) && (uData!=s->cur_file_info.crc) && ((uFlags & 8)==0))

  00154	35000013	 cbnz        w19,|$LN16@unz64local|
  00158	b940c689	 ldr         w9,[x20,#0xC4]
  0015c	b94013e8	 ldr         w8,[sp,#0x10]
  00160	6b09011f	 cmp         w8,w9
  00164	54000000	 beq         |$LN16@unz64local|
  00168	721d02bf	 tst         w21,#8
  0016c	12800cc8	 mov         w8,#-0x67
  00170	1a930113	 cseleq      w19,w8,w19
  00174		 |$LN16@unz64local|

; 1438 :         err=UNZ_BADZIPFILE;
; 1439 : 
; 1440 :     if (unz64local_getLong(&s->z_filefunc, s->filestream,&uData) != UNZ_OK) /* size compr */

  00174	f9403281	 ldr         x1,[x20,#0x60]
  00178	910043e2	 add         x2,sp,#0x10
  0017c	aa1403e0	 mov         x0,x20
  00180	94000000	 bl          unz64local_getLong
  00184	34000000	 cbz         w0,|$LN17@unz64local|

; 1441 :         err=UNZ_ERRNO;

  00188	12800013	 mov         w19,#-1
  0018c	1400000b	 b           |$LN19@unz64local|
  00190		 |$LN17@unz64local|

; 1442 :     else if (uData != 0xFFFFFFFF && (err==UNZ_OK) && (uData!=s->cur_file_info.compressed_size) && ((uFlags & 8)==0))

  00190	b94013e9	 ldr         w9,[sp,#0x10]
  00194	3100053f	 cmn         w9,#1
  00198	7a401a60	 ccmpne      w19,#0,#0
  0019c	54000001	 bne         |$LN19@unz64local|
  001a0	f9406688	 ldr         x8,[x20,#0xC8]
  001a4	eb29411f	 cmp         x8,w9,uxtw #0
  001a8	54000000	 beq         |$LN19@unz64local|
  001ac	721d02bf	 tst         w21,#8
  001b0	12800cc8	 mov         w8,#-0x67
  001b4	1a930113	 cseleq      w19,w8,w19
  001b8		 |$LN19@unz64local|

; 1443 :         err=UNZ_BADZIPFILE;
; 1444 : 
; 1445 :     if (unz64local_getLong(&s->z_filefunc, s->filestream,&uData) != UNZ_OK) /* size uncompr */

  001b8	f9403281	 ldr         x1,[x20,#0x60]
  001bc	910043e2	 add         x2,sp,#0x10
  001c0	aa1403e0	 mov         x0,x20
  001c4	94000000	 bl          unz64local_getLong
  001c8	34000000	 cbz         w0,|$LN20@unz64local|

; 1446 :         err=UNZ_ERRNO;

  001cc	12800013	 mov         w19,#-1
  001d0	1400000b	 b           |$LN22@unz64local|
  001d4		 |$LN20@unz64local|

; 1447 :     else if (uData != 0xFFFFFFFF && (err==UNZ_OK) && (uData!=s->cur_file_info.uncompressed_size) && ((uFlags & 8)==0))

  001d4	b94013e9	 ldr         w9,[sp,#0x10]
  001d8	3100053f	 cmn         w9,#1
  001dc	7a401a60	 ccmpne      w19,#0,#0
  001e0	54000001	 bne         |$LN22@unz64local|
  001e4	f9406a88	 ldr         x8,[x20,#0xD0]
  001e8	eb29411f	 cmp         x8,w9,uxtw #0
  001ec	54000000	 beq         |$LN22@unz64local|
  001f0	721d02bf	 tst         w21,#8
  001f4	12800cc8	 mov         w8,#-0x67
  001f8	1a930113	 cseleq      w19,w8,w19
  001fc		 |$LN22@unz64local|

; 1448 :         err=UNZ_BADZIPFILE;
; 1449 : 
; 1450 :     if (unz64local_getShort(&s->z_filefunc, s->filestream,&size_filename) != UNZ_OK)

  001fc	f9403281	 ldr         x1,[x20,#0x60]
  00200	910053e2	 add         x2,sp,#0x14
  00204	aa1403e0	 mov         x0,x20
  00208	94000000	 bl          unz64local_getShort
  0020c	b94017f5	 ldr         w21,[sp,#0x14]
  00210	34000000	 cbz         w0,|$LN23@unz64local|

; 1451 :         err=UNZ_ERRNO;

  00214	12800013	 mov         w19,#-1
  00218	14000006	 b           |$LN25@unz64local|
  0021c		 |$LN23@unz64local|

; 1452 :     else if ((err==UNZ_OK) && (size_filename!=s->cur_file_info.size_filename))

  0021c	35000013	 cbnz        w19,|$LN25@unz64local|
  00220	b940da88	 ldr         w8,[x20,#0xD8]
  00224	12800cc9	 mov         w9,#-0x67
  00228	6b0802bf	 cmp         w21,w8
  0022c	1a931133	 cselne      w19,w9,w19
  00230		 |$LN25@unz64local|

; 1453 :         err=UNZ_BADZIPFILE;
; 1454 : 
; 1455 :     *piSizeVar += (uInt)size_filename;

  00230	b94002c8	 ldr         w8,[x22]

; 1456 : 
; 1457 :     if (unz64local_getShort(&s->z_filefunc, s->filestream,&size_extra_field) != UNZ_OK)

  00234	910053e2	 add         x2,sp,#0x14
  00238	f9403281	 ldr         x1,[x20,#0x60]
  0023c	aa1403e0	 mov         x0,x20
  00240	0b150109	 add         w9,w8,w21
  00244	b90002c9	 str         w9,[x22]
  00248	94000000	 bl          unz64local_getShort
  0024c	12800008	 mov         w8,#-1
  00250	7100001f	 cmp         w0,#0

; 1458 :         err=UNZ_ERRNO;
; 1459 :     *poffset_local_extrafield= s->cur_file_info_internal.offset_curfile +
; 1460 :                                     SIZEZIPLOCALHEADER + size_filename;
; 1461 :     *psize_local_extrafield = (uInt)size_extra_field;

  00254	b94017eb	 ldr         w11,[sp,#0x14]
  00258	1a931100	 cselne      w0,w8,w19
  0025c	f9408688	 ldr         x8,[x20,#0x108]
  00260	b900030b	 str         w11,[x24]
  00264	8b354109	 add         x9,x8,w21,uxtw #0

; 1462 : 
; 1463 :     *piSizeVar += (uInt)size_extra_field;

  00268	b94002c8	 ldr         w8,[x22]
  0026c	9100792a	 add         x10,x9,#0x1E
  00270	f90002ea	 str         x10,[x23]
  00274	0b0b0109	 add         w9,w8,w11
  00278	b90002c9	 str         w9,[x22]
  0027c	a8c27bfd	 ldp         fp,lr,[sp],#0x20
  00280	a94263f7	 ldp         x23,x24,[sp,#0x20]
  00284	a9415bf5	 ldp         x21,x22,[sp,#0x10]
  00288	a8c353f3	 ldp         x19,x20,[sp],#0x30
  0028c	d65f03c0	 ret

			 ENDP  ; |unz64local_CheckCurrentFileCoherencyHeader|

; Function compile flags: /Ogtp
; File C:\Users\ws103\Desktop\zlib-1.2.11\contrib\minizip\unzip.c

	AREA	|.text$mn|, CODE, ARM64

  00000		 |unzOpenCurrentFile3| PROC

; 1474 : {

  00000		 |$LN29|
  00000	a9bd53f3	 stp         x19,x20,[sp,#-0x30]!
  00004	a9015bf5	 stp         x21,x22,[sp,#0x10]
  00008	f90013f7	 str         x23,[sp,#0x20]
  0000c	a9be7bfd	 stp         fp,lr,[sp,#-0x20]!
  00010	910003fd	 mov         fp,sp
  00014	aa0003f4	 mov         x20,x0
  00018	aa0103f7	 mov         x23,x1
  0001c	aa0203f5	 mov         x21,x2
  00020	2a0303f6	 mov         w22,w3

; 1475 :     int err=UNZ_OK;
; 1476 :     uInt iSizeVar;
; 1477 :     unz64_s* s;
; 1478 :     file_in_zip64_read_info_s* pfile_in_zip_read_info;
; 1479 :     ZPOS64_T offset_local_extrafield;  /* offset of the local extra field */
; 1480 :     uInt  size_local_extrafield;    /* size of the local extra field */
; 1481 : #    ifndef NOUNCRYPT
; 1482 :     char source[12];
; 1483 : #    else
; 1484 :     if (password != NULL)

  00024	b5000004	 cbnz        x4,|$LN25@unzOpenCur|

; 1485 :         return UNZ_PARAMERROR;
; 1486 : #    endif
; 1487 : 
; 1488 :     if (file==NULL)

  00028	b4000014	 cbz         x20,|$LN25@unzOpenCur|

; 1489 :         return UNZ_PARAMERROR;
; 1490 :     s=(unz64_s*)file;
; 1491 :     if (!s->current_file_ok)

  0002c	f9404a88	 ldr         x8,[x20,#0x90]
  00030	b4000008	 cbz         x8,|$LN25@unzOpenCur|

; 1493 : 
; 1494 :     if (s->pfile_in_zip_read != NULL)

  00034	f9408a88	 ldr         x8,[x20,#0x110]
  00038	b4000008	 cbz         x8,|$LN7@unzOpenCur|

; 1495 :         unzCloseCurrentFile(file);

  0003c	94000000	 bl          unzCloseCurrentFile
  00040		 |$LN7@unzOpenCur|

; 1496 : 
; 1497 :     if (unz64local_CheckCurrentFileCoherencyHeader(s,&iSizeVar, &offset_local_extrafield,&size_local_extrafield)!=UNZ_OK)

  00040	910043e3	 add         x3,sp,#0x10
  00044	910063e2	 add         x2,sp,#0x18
  00048	910053e1	 add         x1,sp,#0x14
  0004c	aa1403e0	 mov         x0,x20
  00050	94000000	 bl          unz64local_CheckCurrentFileCoherencyHeader
  00054	34000000	 cbz         w0,|$LN8@unzOpenCur|

; 1498 :         return UNZ_BADZIPFILE;

  00058	12800cc0	 mov         w0,#-0x67
  0005c	a8c27bfd	 ldp         fp,lr,[sp],#0x20
  00060	f94013f7	 ldr         x23,[sp,#0x20]
  00064	a9415bf5	 ldp         x21,x22,[sp,#0x10]
  00068	a8c353f3	 ldp         x19,x20,[sp],#0x30
  0006c	d65f03c0	 ret
  00070		 |$LN8@unzOpenCur|

; 1499 : 
; 1500 :     pfile_in_zip_read_info = (file_in_zip64_read_info_s*)ALLOC(sizeof(file_in_zip64_read_info_s));

  00070	90000008	 adrp        x8,__imp_malloc
  00074	f9400108	 ldr         x8,[x8,PageOffset(__imp_malloc)]
  00078	d2802400	 mov         x0,#0x120
  0007c	d63f0100	 blr         x8
  00080	aa0003f3	 mov         x19,x0

; 1501 :     if (pfile_in_zip_read_info==NULL)

  00084	b4000013	 cbz         x19,|$LN27@unzOpenCur|

; 1502 :         return UNZ_INTERNALERROR;
; 1503 : 
; 1504 :     pfile_in_zip_read_info->read_buffer=(char*)ALLOC(UNZ_BUFSIZE);

  00088	90000008	 adrp        x8,__imp_malloc
  0008c	f9400108	 ldr         x8,[x8,PageOffset(__imp_malloc)]
  00090	d2880000	 mov         x0,#0x4000
  00094	d63f0100	 blr         x8

; 1505 :     pfile_in_zip_read_info->offset_local_extrafield = offset_local_extrafield;

  00098	f9400fe8	 ldr         x8,[sp,#0x18]

; 1506 :     pfile_in_zip_read_info->size_local_extrafield = size_local_extrafield;
; 1507 :     pfile_in_zip_read_info->pos_local_extrafield=0;

  0009c	f900427f	 str         xzr,[x19,#0x80]
  000a0	b94013e9	 ldr         w9,[sp,#0x10]

; 1508 :     pfile_in_zip_read_info->raw=raw;

  000a4	b9011a76	 str         w22,[x19,#0x118]
  000a8	f9000260	 str         x0,[x19]
  000ac	f9003a68	 str         x8,[x19,#0x70]
  000b0	b9007a69	 str         w9,[x19,#0x78]

; 1509 : 
; 1510 :     if (pfile_in_zip_read_info->read_buffer==NULL)

  000b4	b5000000	 cbnz        x0,|$LN10@unzOpenCur|

; 1511 :     {
; 1512 :         TRYFREE(pfile_in_zip_read_info);

  000b8	90000008	 adrp        x8,__imp_free
  000bc	f9400108	 ldr         x8,[x8,PageOffset(__imp_free)]
  000c0	aa1303e0	 mov         x0,x19
  000c4	d63f0100	 blr         x8
  000c8		 |$LN27@unzOpenCur|

; 1639 : }

  000c8	12800ce0	 mov         w0,#-0x68
  000cc	a8c27bfd	 ldp         fp,lr,[sp],#0x20
  000d0	f94013f7	 ldr         x23,[sp,#0x20]
  000d4	a9415bf5	 ldp         x21,x22,[sp,#0x10]
  000d8	a8c353f3	 ldp         x19,x20,[sp],#0x30
  000dc	d65f03c0	 ret
  000e0		 |$LN10@unzOpenCur|

; 1513 :         return UNZ_INTERNALERROR;
; 1514 :     }
; 1515 : 
; 1516 :     pfile_in_zip_read_info->stream_initialised=0;

  000e0	b9006a7f	 str         wzr,[x19,#0x68]

; 1517 : 
; 1518 :     if (method!=NULL)

  000e4	b4000017	 cbz         x23,|$LN12@unzOpenCur|

; 1519 :         *method = (int)s->cur_file_info.compression_method;

  000e8	b940be88	 ldr         w8,[x20,#0xBC]
  000ec	b90002e8	 str         w8,[x23]
  000f0		 |$LN12@unzOpenCur|

; 1520 : 
; 1521 :     if (level!=NULL)

  000f0	5280002c	 mov         w12,#1
  000f4	b4000015	 cbz         x21,|$LN2@unzOpenCur|

; 1522 :     {
; 1523 :         *level = 6;

  000f8	528000c8	 mov         w8,#6
  000fc	b90002a8	 str         w8,[x21]

; 1524 :         switch (s->cur_file_info.flag & 0x06)

  00100	b940ba88	 ldr         w8,[x20,#0xB8]
  00104	121f0509	 and         w9,w8,#6
  00108	7100093f	 cmp         w9,#2
  0010c	54000000	 beq         |$LN16@unzOpenCur|
  00110	7100113f	 cmp         w9,#4
  00114	54000000	 beq         |$LN15@unzOpenCur|
  00118	7100193f	 cmp         w9,#6
  0011c	54000001	 bne         |$LN2@unzOpenCur|

; 1525 :         {
; 1526 :           case 6 : *level = 1; break;

  00120	b90002ac	 str         w12,[x21]
  00124	14000005	 b           |$LN2@unzOpenCur|
  00128		 |$LN15@unzOpenCur|

; 1527 :           case 4 : *level = 2; break;

  00128	52800048	 mov         w8,#2
  0012c	14000002	 b           |$LN26@unzOpenCur|
  00130		 |$LN16@unzOpenCur|

; 1528 :           case 2 : *level = 9; break;

  00130	52800128	 mov         w8,#9
  00134		 |$LN26@unzOpenCur|

; 1529 :         }
; 1530 :     }
; 1531 : 
; 1532 :     if ((s->cur_file_info.compression_method!=0) &&
; 1533 : /* #ifdef HAVE_BZIP2 */
; 1534 :         (s->cur_file_info.compression_method!=Z_BZIP2ED) &&
; 1535 : /* #endif */
; 1536 :         (s->cur_file_info.compression_method!=Z_DEFLATED))
; 1537 : 
; 1538 :         err=UNZ_BADZIPFILE;
; 1539 : 
; 1540 :     pfile_in_zip_read_info->crc32_wait=s->cur_file_info.crc;

  00134	b90002a8	 str         w8,[x21]
  00138		 |$LN2@unzOpenCur|
  00138	b940c688	 ldr         w8,[x20,#0xC4]

; 1541 :     pfile_in_zip_read_info->crc32=0;

  0013c	2912227f	 stp         wzr,w8,[x19,#0x90]

; 1542 :     pfile_in_zip_read_info->total_out_64=0;

  00140	f900467f	 str         xzr,[x19,#0x88]

; 1543 :     pfile_in_zip_read_info->compression_method = s->cur_file_info.compression_method;

  00144	b940be88	 ldr         w8,[x20,#0xBC]
  00148	b9010a68	 str         w8,[x19,#0x108]

; 1544 :     pfile_in_zip_read_info->filestream=s->filestream;

  0014c	f9403289	 ldr         x9,[x20,#0x60]
  00150	f9008269	 str         x9,[x19,#0x100]

; 1545 :     pfile_in_zip_read_info->z_filefunc=s->z_filefunc;

  00154	a9402a88	 ldp         x8,x10,[x20]
  00158	a90aaa68	 stp         x8,x10,[x19,#0xA8]
  0015c	a9412e89	 ldp         x9,x11,[x20,#0x10]
  00160	a90bae69	 stp         x9,x11,[x19,#0xB8]
  00164	a9422a88	 ldp         x8,x10,[x20,#0x20]
  00168	a90caa68	 stp         x8,x10,[x19,#0xC8]
  0016c	a9432e89	 ldp         x9,x11,[x20,#0x30]
  00170	a90dae69	 stp         x9,x11,[x19,#0xD8]
  00174	a9442a88	 ldp         x8,x10,[x20,#0x40]
  00178	a90eaa68	 stp         x8,x10,[x19,#0xE8]
  0017c	f9402a89	 ldr         x9,[x20,#0x50]
  00180	f9007e69	 str         x9,[x19,#0xF8]

; 1546 :     pfile_in_zip_read_info->byte_before_the_zipfile=s->byte_before_the_zipfile;

  00184	f9403e88	 ldr         x8,[x20,#0x78]

; 1547 : 
; 1548 :     pfile_in_zip_read_info->stream.total_out = 0;

  00188	b900267f	 str         wzr,[x19,#0x24]
  0018c	f9008a68	 str         x8,[x19,#0x110]

; 1549 : 
; 1550 :     if ((s->cur_file_info.compression_method==Z_BZIP2ED) && (!raw))

  00190	b940be89	 ldr         w9,[x20,#0xBC]
  00194	7100313f	 cmp         w9,#0xC
  00198	54000001	 bne         |$LN18@unzOpenCur|
  0019c	35000016	 cbnz        w22,|$LN22@unzOpenCur|

; 1551 :     {
; 1552 : #ifdef HAVE_BZIP2
; 1553 :       pfile_in_zip_read_info->bstream.bzalloc = (void *(*) (void *, int, int))0;
; 1554 :       pfile_in_zip_read_info->bstream.bzfree = (free_func)0;
; 1555 :       pfile_in_zip_read_info->bstream.opaque = (voidpf)0;
; 1556 :       pfile_in_zip_read_info->bstream.state = (voidpf)0;
; 1557 : 
; 1558 :       pfile_in_zip_read_info->stream.zalloc = (alloc_func)0;
; 1559 :       pfile_in_zip_read_info->stream.zfree = (free_func)0;
; 1560 :       pfile_in_zip_read_info->stream.opaque = (voidpf)0;
; 1561 :       pfile_in_zip_read_info->stream.next_in = (voidpf)0;
; 1562 :       pfile_in_zip_read_info->stream.avail_in = 0;
; 1563 : 
; 1564 :       err=BZ2_bzDecompressInit(&pfile_in_zip_read_info->bstream, 0, 0);
; 1565 :       if (err == Z_OK)
; 1566 :         pfile_in_zip_read_info->stream_initialised=Z_BZIP2ED;
; 1567 :       else
; 1568 :       {
; 1569 :         TRYFREE(pfile_in_zip_read_info);
; 1570 :         return err;
; 1571 :       }
; 1572 : #else
; 1573 :       pfile_in_zip_read_info->raw=1;

  001a0	b9011a6c	 str         w12,[x19,#0x118]
  001a4		 |$LN22@unzOpenCur|

; 1591 :       }
; 1592 :         /* windowBits is passed < 0 to tell that there is no zlib header.
; 1593 :          * Note that in this case inflate *requires* an extra "dummy" byte
; 1594 :          * after the compressed stream in order to complete decompression and
; 1595 :          * return Z_STREAM_END.
; 1596 :          * In unzip, i don't wait absolutely Z_STREAM_END because I known the
; 1597 :          * size of both compressed and uncompressed data
; 1598 :          */
; 1599 :     }
; 1600 :     pfile_in_zip_read_info->rest_read_compressed =

  001a4	f9406688	 ldr         x8,[x20,#0xC8]

; 1601 :             s->cur_file_info.compressed_size ;
; 1602 :     pfile_in_zip_read_info->rest_read_uncompressed =
; 1603 :             s->cur_file_info.uncompressed_size ;
; 1604 : 
; 1605 : 
; 1606 :     pfile_in_zip_read_info->pos_in_zipfile =
; 1607 :             s->cur_file_info_internal.offset_curfile + SIZEZIPLOCALHEADER +
; 1608 :               iSizeVar;
; 1609 : 
; 1610 :     pfile_in_zip_read_info->stream.avail_in = (uInt)0;
; 1611 : 
; 1612 :     s->pfile_in_zip_read = pfile_in_zip_read_info;
; 1613 :                 s->encrypted = 0;
; 1614 : 
; 1615 : #    ifndef NOUNCRYPT
; 1616 :     if (password != NULL)
; 1617 :     {
; 1618 :         int i;
; 1619 :         s->pcrc_32_tab = get_crc_table();
; 1620 :         init_keys(password,s->keys,s->pcrc_32_tab);
; 1621 :         if (ZSEEK64(s->z_filefunc, s->filestream,
; 1622 :                   s->pfile_in_zip_read->pos_in_zipfile +
; 1623 :                      s->pfile_in_zip_read->byte_before_the_zipfile,
; 1624 :                   SEEK_SET)!=0)
; 1625 :             return UNZ_INTERNALERROR;
; 1626 :         if(ZREAD64(s->z_filefunc, s->filestream,source, 12)<12)
; 1627 :             return UNZ_INTERNALERROR;
; 1628 : 
; 1629 :         for (i = 0; i<12; i++)
; 1630 :             zdecode(s->keys,s->pcrc_32_tab,source[i]);
; 1631 : 
; 1632 :         s->pfile_in_zip_read->pos_in_zipfile+=12;
; 1633 :         s->encrypted=1;
; 1634 :     }
; 1635 : #    endif
; 1636 : 
; 1637 : 
; 1638 :     return UNZ_OK;

  001a8	52800000	 mov         w0,#0
  001ac	b94017ea	 ldr         w10,[sp,#0x14]
  001b0	f9004e68	 str         x8,[x19,#0x98]
  001b4	f9406a89	 ldr         x9,[x20,#0xD0]
  001b8	f9005269	 str         x9,[x19,#0xA0]
  001bc	f9408688	 ldr         x8,[x20,#0x108]
  001c0	b900127f	 str         wzr,[x19,#0x10]
  001c4	8b2a4109	 add         x9,x8,w10,uxtw #0
  001c8	9100792a	 add         x10,x9,#0x1E
  001cc	f900326a	 str         x10,[x19,#0x60]
  001d0	f9008a93	 str         x19,[x20,#0x110]
  001d4	b9011a9f	 str         wzr,[x20,#0x118]
  001d8	a8c27bfd	 ldp         fp,lr,[sp],#0x20
  001dc	f94013f7	 ldr         x23,[sp,#0x20]
  001e0	a9415bf5	 ldp         x21,x22,[sp,#0x10]
  001e4	a8c353f3	 ldp         x19,x20,[sp],#0x30
  001e8	d65f03c0	 ret
  001ec		 |$LN18@unzOpenCur|

; 1574 : #endif
; 1575 :     }
; 1576 :     else if ((s->cur_file_info.compression_method==Z_DEFLATED) && (!raw))

  001ec	7100213f	 cmp         w9,#8
  001f0	7a400ac0	 ccmpeq      w22,#0,#0
  001f4	54000001	 bne         |$LN22@unzOpenCur|

; 1577 :     {
; 1578 :       pfile_in_zip_read_info->stream.zalloc = (alloc_func)0;
; 1579 :       pfile_in_zip_read_info->stream.zfree = (free_func)0;
; 1580 :       pfile_in_zip_read_info->stream.opaque = (voidpf)0;
; 1581 :       pfile_in_zip_read_info->stream.next_in = 0;
; 1582 :       pfile_in_zip_read_info->stream.avail_in = 0;
; 1583 : 
; 1584 :       err=inflateInit2(&pfile_in_zip_read_info->stream, -MAX_WBITS);

  001f8	90000008	 adrp        x8,|??_C@_06CJNJFBNP@1?42?411@|
  001fc	91000102	 add         x2,x8,PageOffset(|??_C@_06CJNJFBNP@1?42?411@|)
  00200	a903fe7f	 stp         xzr,xzr,[x19,#0x38]
  00204	52800b03	 mov         w3,#0x58
  00208	f900267f	 str         xzr,[x19,#0x48]
  0020c	128001c1	 mov         w1,#-0xF
  00210	f900067f	 str         xzr,[x19,#8]
  00214	91002260	 add         x0,x19,#8
  00218	b900127f	 str         wzr,[x19,#0x10]
  0021c	94000000	 bl          inflateInit2_
  00220	2a0003f5	 mov         w21,w0

; 1585 :       if (err == Z_OK)

  00224	35000015	 cbnz        w21,|$LN21@unzOpenCur|

; 1586 :         pfile_in_zip_read_info->stream_initialised=Z_DEFLATED;

  00228	52800108	 mov         w8,#8
  0022c	b9006a68	 str         w8,[x19,#0x68]
  00230	17ffffdd	 b           |$LN22@unzOpenCur|
  00234		 |$LN21@unzOpenCur|

; 1587 :       else
; 1588 :       {
; 1589 :         TRYFREE(pfile_in_zip_read_info);

  00234	90000008	 adrp        x8,__imp_free
  00238	f9400108	 ldr         x8,[x8,PageOffset(__imp_free)]
  0023c	aa1303e0	 mov         x0,x19
  00240	d63f0100	 blr         x8

; 1590 :         return err;

  00244	2a1503e0	 mov         w0,w21
  00248	a8c27bfd	 ldp         fp,lr,[sp],#0x20
  0024c	f94013f7	 ldr         x23,[sp,#0x20]
  00250	a9415bf5	 ldp         x21,x22,[sp,#0x10]
  00254	a8c353f3	 ldp         x19,x20,[sp],#0x30
  00258	d65f03c0	 ret
  0025c		 |$LN25@unzOpenCur|

; 1492 :         return UNZ_PARAMERROR;

  0025c	12800ca0	 mov         w0,#-0x66
  00260	a8c27bfd	 ldp         fp,lr,[sp],#0x20
  00264	f94013f7	 ldr         x23,[sp,#0x20]
  00268	a9415bf5	 ldp         x21,x22,[sp,#0x10]
  0026c	a8c353f3	 ldp         x19,x20,[sp],#0x30
  00270	d65f03c0	 ret

			 ENDP  ; |unzOpenCurrentFile3|

; Function compile flags: /Ogtp
; File C:\Users\ws103\Desktop\zlib-1.2.11\contrib\minizip\unzip.c

	AREA	|.text$mn|, CODE, ARM64

  00000		 |unzOpenCurrentFile| PROC

; 1643 :     return unzOpenCurrentFile3(file, NULL, NULL, 0, NULL);

  00000	d2800004	 mov         x4,#0
  00004	52800003	 mov         w3,#0
  00008	d2800002	 mov         x2,#0
  0000c	d2800001	 mov         x1,#0
  00010	14000000	 b           unzOpenCurrentFile3

			 ENDP  ; |unzOpenCurrentFile|

; Function compile flags: /Ogtp
; File C:\Users\ws103\Desktop\zlib-1.2.11\contrib\minizip\unzip.c

	AREA	|.text$mn|, CODE, ARM64

  00000		 |unzOpenCurrentFilePassword| PROC

; 1648 :     return unzOpenCurrentFile3(file, NULL, NULL, 0, password);

  00000	aa0103e4	 mov         x4,x1
  00004	d2800001	 mov         x1,#0
  00008	52800003	 mov         w3,#0
  0000c	d2800002	 mov         x2,#0
  00010	14000000	 b           unzOpenCurrentFile3

			 ENDP  ; |unzOpenCurrentFilePassword|

; Function compile flags: /Ogtp
; File C:\Users\ws103\Desktop\zlib-1.2.11\contrib\minizip\unzip.c

	AREA	|.text$mn|, CODE, ARM64

  00000		 |unzOpenCurrentFile2| PROC

; 1653 :     return unzOpenCurrentFile3(file, method, level, raw, NULL);

  00000	d2800004	 mov         x4,#0
  00004	14000000	 b           unzOpenCurrentFile3

			 ENDP  ; |unzOpenCurrentFile2|

; Function compile flags: /Ogtp
; File C:\Users\ws103\Desktop\zlib-1.2.11\contrib\minizip\unzip.c

	AREA	|.text$mn|, CODE, ARM64

  00000		 |unzGetCurrentFileZStreamPos64| PROC

; 1660 :     unz64_s* s;
; 1661 :     file_in_zip64_read_info_s* pfile_in_zip_read_info;
; 1662 :     s=(unz64_s*)file;
; 1663 :     if (file==NULL)

  00000	b4000000	 cbz         x0,|$LN5@unzGetCurr|

; 1664 :         return 0; //UNZ_PARAMERROR;
; 1665 :     pfile_in_zip_read_info=s->pfile_in_zip_read;

  00004	f9408808	 ldr         x8,[x0,#0x110]

; 1666 :     if (pfile_in_zip_read_info==NULL)

  00008	b4000008	 cbz         x8,|$LN5@unzGetCurr|

; 1668 :     return pfile_in_zip_read_info->pos_in_zipfile +

  0000c	f9408909	 ldr         x9,[x8,#0x110]
  00010	f9403108	 ldr         x8,[x8,#0x60]
  00014	8b080120	 add         x0,x9,x8
  00018	d65f03c0	 ret
  0001c		 |$LN5@unzGetCurr|

; 1667 :         return 0; //UNZ_PARAMERROR;

  0001c	d2800000	 mov         x0,#0
  00020	d65f03c0	 ret

			 ENDP  ; |unzGetCurrentFileZStreamPos64|

; Function compile flags: /Ogtp
; File C:\Users\ws103\Desktop\zlib-1.2.11\contrib\minizip\unzip.c

	AREA	|.text$mn|, CODE, ARM64

  00000		 |unzReadCurrentFile| PROC

; 1685 : {

  00000		 |$LN53|
  00000	a9bc53f3	 stp         x19,x20,[sp,#-0x40]!
  00004	a9015bf5	 stp         x21,x22,[sp,#0x10]
  00008	a90263f7	 stp         x23,x24,[sp,#0x20]
  0000c	f9001bf9	 str         x25,[sp,#0x30]
  00010	a9bf7bfd	 stp         fp,lr,[sp,#-0x10]!
  00014	910003fd	 mov         fp,sp

; 1686 :     int err=UNZ_OK;
; 1687 :     uInt iRead = 0;

  00018	52800019	 mov         w25,#0

; 1688 :     unz64_s* s;
; 1689 :     file_in_zip64_read_info_s* pfile_in_zip_read_info;
; 1690 :     if (file==NULL)

  0001c	b4000000	 cbz         x0,|$LN50@unzReadCur|

; 1691 :         return UNZ_PARAMERROR;
; 1692 :     s=(unz64_s*)file;
; 1693 :     pfile_in_zip_read_info=s->pfile_in_zip_read;

  00020	f9408815	 ldr         x21,[x0,#0x110]

; 1694 : 
; 1695 :     if (pfile_in_zip_read_info==NULL)

  00024	b4000015	 cbz         x21,|$LN50@unzReadCur|

; 1697 : 
; 1698 : 
; 1699 :     if (pfile_in_zip_read_info->read_buffer == NULL)

  00028	f94002a8	 ldr         x8,[x21]
  0002c	b5000008	 cbnz        x8,|$LN9@unzReadCur|

; 1700 :         return UNZ_END_OF_LIST_OF_FILE;

  00030	12800c60	 mov         w0,#-0x64
  00034	140000ac	 b           |$LN1@unzReadCur|
  00038		 |$LN9@unzReadCur|

; 1701 :     if (len==0)

  00038	34000002	 cbz         w2,|$LN33@unzReadCur|

; 1702 :         return 0;
; 1703 : 
; 1704 :     pfile_in_zip_read_info->stream.next_out = (Bytef*)buf;
; 1705 : 
; 1706 :     pfile_in_zip_read_info->stream.avail_out = (uInt)len;
; 1707 : 
; 1708 :     if ((len>pfile_in_zip_read_info->rest_read_uncompressed) &&

  0003c	f94052aa	 ldr         x10,[x21,#0xA0]
  00040	f9000ea1	 str         x1,[x21,#0x18]
  00044	2a0203e9	 mov         w9,w2
  00048	b90022a2	 str         w2,[x21,#0x20]
  0004c	eb22415f	 cmp         x10,w2,uxtw #0
  00050	54000002	 bhs         |$LN11@unzReadCur|
  00054	b9411aa8	 ldr         w8,[x21,#0x118]
  00058	35000008	 cbnz        w8,|$LN11@unzReadCur|

; 1709 :         (!(pfile_in_zip_read_info->raw)))
; 1710 :         pfile_in_zip_read_info->stream.avail_out =

  0005c	2a0a03e9	 mov         w9,w10
  00060	b90022a9	 str         w9,[x21,#0x20]
  00064		 |$LN11@unzReadCur|

; 1711 :             (uInt)pfile_in_zip_read_info->rest_read_uncompressed;
; 1712 : 
; 1713 :     if ((len>pfile_in_zip_read_info->rest_read_compressed+
; 1714 :            pfile_in_zip_read_info->stream.avail_in) &&

  00064	b94012aa	 ldr         w10,[x21,#0x10]
  00068	f9404eab	 ldr         x11,[x21,#0x98]
  0006c	8b2a4168	 add         x8,x11,w10,uxtw #0
  00070	eb22411f	 cmp         x8,w2,uxtw #0
  00074	54000002	 bhs         |$LN31@unzReadCur|
  00078	b9411aa8	 ldr         w8,[x21,#0x118]
  0007c	34000008	 cbz         w8,|$LN31@unzReadCur|

; 1715 :          (pfile_in_zip_read_info->raw))
; 1716 :         pfile_in_zip_read_info->stream.avail_out =

  00080	0b0a0169	 add         w9,w11,w10
  00084	b90022a9	 str         w9,[x21,#0x20]
  00088		 |$LN31@unzReadCur|

; 1717 :             (uInt)pfile_in_zip_read_info->rest_read_compressed+
; 1718 :             pfile_in_zip_read_info->stream.avail_in;
; 1719 : 
; 1720 :     while (pfile_in_zip_read_info->stream.avail_out>0)

  00088	34000009	 cbz         w9,|$LN38@unzReadCur|
  0008c		 |$LL2@unzReadCur|

; 1721 :     {
; 1722 :         if ((pfile_in_zip_read_info->stream.avail_in==0) &&

  0008c	b94012b3	 ldr         w19,[x21,#0x10]
  00090	35000013	 cbnz        w19,|$LN13@unzReadCur|
  00094	f9404ea8	 ldr         x8,[x21,#0x98]
  00098	52800013	 mov         w19,#0
  0009c	b4000008	 cbz         x8,|$LN13@unzReadCur|

; 1723 :             (pfile_in_zip_read_info->rest_read_compressed>0))
; 1724 :         {
; 1725 :             uInt uReadThis = UNZ_BUFSIZE;

  000a0	52880013	 mov         w19,#0x4000

; 1726 :             if (pfile_in_zip_read_info->rest_read_compressed<uReadThis)

  000a4	f140111f	 cmp         x8,#4,lsl #0xC
  000a8	54000002	 bhs         |$LN49@unzReadCur|

; 1727 :                 uReadThis = (uInt)pfile_in_zip_read_info->rest_read_compressed;

  000ac	2a0803f3	 mov         w19,w8

; 1728 :             if (uReadThis == 0)

  000b0	34000013	 cbz         w19,|$LN33@unzReadCur|
  000b4		 |$LN49@unzReadCur|

; 1730 :             if (ZSEEK64(pfile_in_zip_read_info->z_filefunc,
; 1731 :                       pfile_in_zip_read_info->filestream,
; 1732 :                       pfile_in_zip_read_info->pos_in_zipfile +
; 1733 :                          pfile_in_zip_read_info->byte_before_the_zipfile,
; 1734 :                          ZLIB_FILEFUNC_SEEK_SET)!=0)

  000b4	f9408aa9	 ldr         x9,[x21,#0x110]
  000b8	52800003	 mov         w3,#0
  000bc	f94032a8	 ldr         x8,[x21,#0x60]
  000c0	9102a2a0	 add         x0,x21,#0xA8
  000c4	f94082a1	 ldr         x1,[x21,#0x100]
  000c8	8b080122	 add         x2,x9,x8
  000cc	94000000	 bl          call_zseek64
  000d0	35000000	 cbnz        w0,|$LN35@unzReadCur|

; 1735 :                 return UNZ_ERRNO;
; 1736 :             if (ZREAD64(pfile_in_zip_read_info->z_filefunc,
; 1737 :                       pfile_in_zip_read_info->filestream,
; 1738 :                       pfile_in_zip_read_info->read_buffer,
; 1739 :                       uReadThis)!=uReadThis)

  000d4	f94002a2	 ldr         x2,[x21]
  000d8	2a1303e3	 mov         w3,w19
  000dc	f94082a1	 ldr         x1,[x21,#0x100]
  000e0	f94072a0	 ldr         x0,[x21,#0xE0]
  000e4	f9405aa8	 ldr         x8,[x21,#0xB0]
  000e8	d63f0100	 blr         x8
  000ec	6b13001f	 cmp         w0,w19
  000f0	54000001	 bne         |$LN35@unzReadCur|

; 1741 : 
; 1742 : 
; 1743 : #            ifndef NOUNCRYPT
; 1744 :             if(s->encrypted)
; 1745 :             {
; 1746 :                 uInt i;
; 1747 :                 for(i=0;i<uReadThis;i++)
; 1748 :                   pfile_in_zip_read_info->read_buffer[i] =
; 1749 :                       zdecode(s->keys,s->pcrc_32_tab,
; 1750 :                               pfile_in_zip_read_info->read_buffer[i]);
; 1751 :             }
; 1752 : #            endif
; 1753 : 
; 1754 : 
; 1755 :             pfile_in_zip_read_info->pos_in_zipfile += uReadThis;

  000f4	f94032a8	 ldr         x8,[x21,#0x60]

; 1756 : 
; 1757 :             pfile_in_zip_read_info->rest_read_compressed-=uReadThis;
; 1758 : 
; 1759 :             pfile_in_zip_read_info->stream.next_in =
; 1760 :                 (Bytef*)pfile_in_zip_read_info->read_buffer;
; 1761 :             pfile_in_zip_read_info->stream.avail_in = (uInt)uReadThis;

  000f8	b90012b3	 str         w19,[x21,#0x10]
  000fc	f9404eaa	 ldr         x10,[x21,#0x98]
  00100	8b334109	 add         x9,x8,w19,uxtw #0
  00104	cb334148	 sub         x8,x10,w19,uxtw #0
  00108	f90032a9	 str         x9,[x21,#0x60]
  0010c	f94002a9	 ldr         x9,[x21]
  00110	f9004ea8	 str         x8,[x21,#0x98]
  00114	f90006a9	 str         x9,[x21,#8]
  00118		 |$LN13@unzReadCur|

; 1762 :         }
; 1763 : 
; 1764 :         if ((pfile_in_zip_read_info->compression_method==0) || (pfile_in_zip_read_info->raw))

  00118	b9410aa9	 ldr         w9,[x21,#0x108]
  0011c	34000009	 cbz         w9,|$LN20@unzReadCur|
  00120	b9411aa8	 ldr         w8,[x21,#0x118]
  00124	35000008	 cbnz        w8,|$LN20@unzReadCur|

; 1794 :         }
; 1795 :         else if (pfile_in_zip_read_info->compression_method==Z_BZIP2ED)

  00128	7100313f	 cmp         w9,#0xC
  0012c	54000000	 beq         |$LN28@unzReadCur|

; 1796 :         {
; 1797 : #ifdef HAVE_BZIP2
; 1798 :             uLong uTotalOutBefore,uTotalOutAfter;
; 1799 :             const Bytef *bufBefore;
; 1800 :             uLong uOutThis;
; 1801 : 
; 1802 :             pfile_in_zip_read_info->bstream.next_in        = (char*)pfile_in_zip_read_info->stream.next_in;
; 1803 :             pfile_in_zip_read_info->bstream.avail_in       = pfile_in_zip_read_info->stream.avail_in;
; 1804 :             pfile_in_zip_read_info->bstream.total_in_lo32  = pfile_in_zip_read_info->stream.total_in;
; 1805 :             pfile_in_zip_read_info->bstream.total_in_hi32  = 0;
; 1806 :             pfile_in_zip_read_info->bstream.next_out       = (char*)pfile_in_zip_read_info->stream.next_out;
; 1807 :             pfile_in_zip_read_info->bstream.avail_out      = pfile_in_zip_read_info->stream.avail_out;
; 1808 :             pfile_in_zip_read_info->bstream.total_out_lo32 = pfile_in_zip_read_info->stream.total_out;
; 1809 :             pfile_in_zip_read_info->bstream.total_out_hi32 = 0;
; 1810 : 
; 1811 :             uTotalOutBefore = pfile_in_zip_read_info->bstream.total_out_lo32;
; 1812 :             bufBefore = (const Bytef *)pfile_in_zip_read_info->bstream.next_out;
; 1813 : 
; 1814 :             err=BZ2_bzDecompress(&pfile_in_zip_read_info->bstream);
; 1815 : 
; 1816 :             uTotalOutAfter = pfile_in_zip_read_info->bstream.total_out_lo32;
; 1817 :             uOutThis = uTotalOutAfter-uTotalOutBefore;
; 1818 : 
; 1819 :             pfile_in_zip_read_info->total_out_64 = pfile_in_zip_read_info->total_out_64 + uOutThis;
; 1820 : 
; 1821 :             pfile_in_zip_read_info->crc32 = crc32(pfile_in_zip_read_info->crc32,bufBefore, (uInt)(uOutThis));
; 1822 :             pfile_in_zip_read_info->rest_read_uncompressed -= uOutThis;
; 1823 :             iRead += (uInt)(uTotalOutAfter - uTotalOutBefore);
; 1824 : 
; 1825 :             pfile_in_zip_read_info->stream.next_in   = (Bytef*)pfile_in_zip_read_info->bstream.next_in;
; 1826 :             pfile_in_zip_read_info->stream.avail_in  = pfile_in_zip_read_info->bstream.avail_in;
; 1827 :             pfile_in_zip_read_info->stream.total_in  = pfile_in_zip_read_info->bstream.total_in_lo32;
; 1828 :             pfile_in_zip_read_info->stream.next_out  = (Bytef*)pfile_in_zip_read_info->bstream.next_out;
; 1829 :             pfile_in_zip_read_info->stream.avail_out = pfile_in_zip_read_info->bstream.avail_out;
; 1830 :             pfile_in_zip_read_info->stream.total_out = pfile_in_zip_read_info->bstream.total_out_lo32;
; 1831 : 
; 1832 :             if (err==BZ_STREAM_END)
; 1833 :               return (iRead==0) ? UNZ_EOF : iRead;
; 1834 :             if (err!=BZ_OK)
; 1835 :               break;
; 1836 : #endif
; 1837 :         } // end Z_BZIP2ED
; 1838 :         else
; 1839 :         {
; 1840 :             ZPOS64_T uTotalOutBefore,uTotalOutAfter;
; 1841 :             const Bytef *bufBefore;
; 1842 :             ZPOS64_T uOutThis;
; 1843 :             int flush=Z_SYNC_FLUSH;
; 1844 : 
; 1845 :             uTotalOutBefore = pfile_in_zip_read_info->stream.total_out;
; 1846 :             bufBefore = pfile_in_zip_read_info->stream.next_out;
; 1847 : 
; 1848 :             /*
; 1849 :             if ((pfile_in_zip_read_info->rest_read_uncompressed ==
; 1850 :                      pfile_in_zip_read_info->stream.avail_out) &&
; 1851 :                 (pfile_in_zip_read_info->rest_read_compressed == 0))
; 1852 :                 flush = Z_FINISH;
; 1853 :             */
; 1854 :             err=inflate(&pfile_in_zip_read_info->stream,flush);

  00130	52800041	 mov         w1,#2
  00134	b94026b7	 ldr         w23,[x21,#0x24]
  00138	910022a0	 add         x0,x21,#8
  0013c	f9400eb8	 ldr         x24,[x21,#0x18]
  00140	94000000	 bl          inflate
  00144	2a0003f6	 mov         w22,w0

; 1855 : 
; 1856 :             if ((err>=0) && (pfile_in_zip_read_info->stream.msg!=NULL))

  00148	37f80016	 tbnz        x22,#0x1F,|$LN26@unzReadCur|
  0014c	f94016a8	 ldr         x8,[x21,#0x28]
  00150	12800049	 mov         w9,#-3
  00154	f100011f	 cmp         x8,#0
  00158	1a961136	 cselne      w22,w9,w22
  0015c		 |$LN26@unzReadCur|

; 1857 :               err = Z_DATA_ERROR;
; 1858 : 
; 1859 :             uTotalOutAfter = pfile_in_zip_read_info->stream.total_out;

  0015c	b94026b4	 ldr         w20,[x21,#0x24]

; 1860 :             uOutThis = uTotalOutAfter-uTotalOutBefore;
; 1861 : 
; 1862 :             pfile_in_zip_read_info->total_out_64 = pfile_in_zip_read_info->total_out_64 + uOutThis;
; 1863 : 
; 1864 :             pfile_in_zip_read_info->crc32 =

  00160	aa1803e1	 mov         x1,x24
  00164	f94046a9	 ldr         x9,[x21,#0x88]
  00168	b94092a0	 ldr         w0,[x21,#0x90]
  0016c	cb374293	 sub         x19,x20,w23,uxtw #0
  00170	8b130128	 add         x8,x9,x19
  00174	2a1303e2	 mov         w2,w19
  00178	f90046a8	 str         x8,[x21,#0x88]
  0017c	94000000	 bl          crc32

; 1865 :                 crc32(pfile_in_zip_read_info->crc32,bufBefore,
; 1866 :                         (uInt)(uOutThis));
; 1867 : 
; 1868 :             pfile_in_zip_read_info->rest_read_uncompressed -=

  00180	f94052a8	 ldr         x8,[x21,#0xA0]

; 1869 :                 uOutThis;
; 1870 : 
; 1871 :             iRead += (uInt)(uTotalOutAfter - uTotalOutBefore);

  00184	4b17028a	 sub         w10,w20,w23
  00188	b90092a0	 str         w0,[x21,#0x90]
  0018c	0b190159	 add         w25,w10,w25

; 1872 : 
; 1873 :             if (err==Z_STREAM_END)

  00190	710006df	 cmp         w22,#1
  00194	cb130109	 sub         x9,x8,x19
  00198	f90052a9	 str         x9,[x21,#0xA0]
  0019c	54000000	 beq         |$LN38@unzReadCur|

; 1874 :                 return (iRead==0) ? UNZ_EOF : iRead;
; 1875 :             if (err!=Z_OK)

  001a0	34000016	 cbz         w22,|$LN28@unzReadCur|

; 1876 :                 break;
; 1877 :         }
; 1878 :     }
; 1879 : 
; 1880 :     if (err==Z_OK)
; 1881 :         return iRead;
; 1882 :     return err;

  001a4	2a1603e0	 mov         w0,w22
  001a8	1400004f	 b           |$LN1@unzReadCur|
  001ac		 |$LN20@unzReadCur|

; 1765 :         {
; 1766 :             uInt uDoCopy,i ;
; 1767 : 
; 1768 :             if ((pfile_in_zip_read_info->stream.avail_in == 0) &&

  001ac	35000013	 cbnz        w19,|$LN21@unzReadCur|
  001b0	f9404ea8	 ldr         x8,[x21,#0x98]
  001b4	b4000008	 cbz         x8,|$LN38@unzReadCur|
  001b8		 |$LN21@unzReadCur|

; 1769 :                 (pfile_in_zip_read_info->rest_read_compressed == 0))
; 1770 :                 return (iRead==0) ? UNZ_EOF : iRead;
; 1771 : 
; 1772 :             if (pfile_in_zip_read_info->stream.avail_out <

  001b8	b94022a8	 ldr         w8,[x21,#0x20]

; 1773 :                             pfile_in_zip_read_info->stream.avail_in)
; 1774 :                 uDoCopy = pfile_in_zip_read_info->stream.avail_out ;
; 1775 :             else
; 1776 :                 uDoCopy = pfile_in_zip_read_info->stream.avail_in ;
; 1777 : 
; 1778 :             for (i=0;i<uDoCopy;i++)

  001bc	5280000d	 mov         w13,#0
  001c0	6b13011f	 cmp         w8,w19
  001c4	1a882274	 cselhs      w20,w19,w8
  001c8	7100129f	 cmp         w20,#4
  001cc	54000003	 blo         |$LC43@unzReadCur|

; 1769 :                 (pfile_in_zip_read_info->rest_read_compressed == 0))
; 1770 :                 return (iRead==0) ? UNZ_EOF : iRead;
; 1771 : 
; 1772 :             if (pfile_in_zip_read_info->stream.avail_out <

  001d0	51000e8f	 sub         w15,w20,#3
  001d4	5280004e	 mov         w14,#2

; 1773 :                             pfile_in_zip_read_info->stream.avail_in)
; 1774 :                 uDoCopy = pfile_in_zip_read_info->stream.avail_out ;
; 1775 :             else
; 1776 :                 uDoCopy = pfile_in_zip_read_info->stream.avail_in ;
; 1777 : 
; 1778 :             for (i=0;i<uDoCopy;i++)

  001d8		 |$LL44@unzReadCur|

; 1779 :                 *(pfile_in_zip_read_info->stream.next_out+i) =

  001d8	f94006a8	 ldr         x8,[x21,#8]
  001dc	510005cb	 sub         w11,w14,#1
  001e0	f9400ea9	 ldr         x9,[x21,#0x18]
  001e4	110005cc	 add         w12,w14,#1
  001e8	386d4908	 ldrb        w8,[x8,w13 uxtw #0]
  001ec	382d4928	 strb        w8,[x9,w13 uxtw #0]
  001f0	f94006aa	 ldr         x10,[x21,#8]
  001f4	110011ad	 add         w13,w13,#4
  001f8	f9400ea9	 ldr         x9,[x21,#0x18]
  001fc	6b0f01bf	 cmp         w13,w15
  00200	386b4948	 ldrb        w8,[x10,w11 uxtw #0]
  00204	382b4928	 strb        w8,[x9,w11 uxtw #0]
  00208	f94006ab	 ldr         x11,[x21,#8]
  0020c	f9400eaa	 ldr         x10,[x21,#0x18]
  00210	386e4968	 ldrb        w8,[x11,w14 uxtw #0]
  00214	382e4948	 strb        w8,[x10,w14 uxtw #0]
  00218	f94006a9	 ldr         x9,[x21,#8]
  0021c	110011ce	 add         w14,w14,#4
  00220	f9400eaa	 ldr         x10,[x21,#0x18]
  00224	386c4928	 ldrb        w8,[x9,w12 uxtw #0]
  00228	382c4948	 strb        w8,[x10,w12 uxtw #0]
  0022c	54000003	 blo         |$LL44@unzReadCur|
  00230		 |$LC43@unzReadCur|

; 1773 :                             pfile_in_zip_read_info->stream.avail_in)
; 1774 :                 uDoCopy = pfile_in_zip_read_info->stream.avail_out ;
; 1775 :             else
; 1776 :                 uDoCopy = pfile_in_zip_read_info->stream.avail_in ;
; 1777 : 
; 1778 :             for (i=0;i<uDoCopy;i++)

  00230	6b1401bf	 cmp         w13,w20
  00234	54000002	 bhs         |$LN42@unzReadCur|
  00238		 |$LC6@unzReadCur|

; 1779 :                 *(pfile_in_zip_read_info->stream.next_out+i) =

  00238	f94006a8	 ldr         x8,[x21,#8]
  0023c	f9400ea9	 ldr         x9,[x21,#0x18]
  00240	386d4908	 ldrb        w8,[x8,w13 uxtw #0]
  00244	382d4928	 strb        w8,[x9,w13 uxtw #0]
  00248	110005ad	 add         w13,w13,#1
  0024c	6b1401bf	 cmp         w13,w20
  00250	54000003	 blo         |$LC6@unzReadCur|
  00254		 |$LN42@unzReadCur|

; 1780 :                         *(pfile_in_zip_read_info->stream.next_in+i);
; 1781 : 
; 1782 :             pfile_in_zip_read_info->total_out_64 = pfile_in_zip_read_info->total_out_64 + uDoCopy;

  00254	f94046a8	 ldr         x8,[x21,#0x88]

; 1783 : 
; 1784 :             pfile_in_zip_read_info->crc32 = crc32(pfile_in_zip_read_info->crc32,

  00258	2a1403e2	 mov         w2,w20
  0025c	f9400eb3	 ldr         x19,[x21,#0x18]
  00260	b94092a0	 ldr         w0,[x21,#0x90]
  00264	8b344109	 add         x9,x8,w20,uxtw #0
  00268	aa1303e1	 mov         x1,x19
  0026c	f90046a9	 str         x9,[x21,#0x88]
  00270	94000000	 bl          crc32

; 1785 :                                 pfile_in_zip_read_info->stream.next_out,
; 1786 :                                 uDoCopy);
; 1787 :             pfile_in_zip_read_info->rest_read_uncompressed-=uDoCopy;

  00274	f94052a8	 ldr         x8,[x21,#0xA0]

; 1788 :             pfile_in_zip_read_info->stream.avail_in -= uDoCopy;

  00278	b94012aa	 ldr         w10,[x21,#0x10]
  0027c	b90092a0	 str         w0,[x21,#0x90]

; 1789 :             pfile_in_zip_read_info->stream.avail_out -= uDoCopy;
; 1790 :             pfile_in_zip_read_info->stream.next_out += uDoCopy;
; 1791 :             pfile_in_zip_read_info->stream.next_in += uDoCopy;
; 1792 :             pfile_in_zip_read_info->stream.total_out += uDoCopy;
; 1793 :             iRead += uDoCopy;

  00280	0b190299	 add         w25,w20,w25
  00284	cb344109	 sub         x9,x8,w20,uxtw #0
  00288	4b140148	 sub         w8,w10,w20
  0028c	f90052a9	 str         x9,[x21,#0xA0]
  00290	b94022a9	 ldr         w9,[x21,#0x20]
  00294	b90012a8	 str         w8,[x21,#0x10]
  00298	8b344268	 add         x8,x19,w20,uxtw #0
  0029c	f9000ea8	 str         x8,[x21,#0x18]
  002a0	b94026a8	 ldr         w8,[x21,#0x24]
  002a4	4b14012a	 sub         w10,w9,w20
  002a8	f94006a9	 ldr         x9,[x21,#8]
  002ac	b90022aa	 str         w10,[x21,#0x20]
  002b0	8b34412a	 add         x10,x9,w20,uxtw #0
  002b4	0b080289	 add         w9,w20,w8
  002b8	b90026a9	 str         w9,[x21,#0x24]
  002bc	f90006aa	 str         x10,[x21,#8]
  002c0		 |$LN28@unzReadCur|

; 1717 :             (uInt)pfile_in_zip_read_info->rest_read_compressed+
; 1718 :             pfile_in_zip_read_info->stream.avail_in;
; 1719 : 
; 1720 :     while (pfile_in_zip_read_info->stream.avail_out>0)

  002c0	b94022a8	 ldr         w8,[x21,#0x20]
  002c4	35000008	 cbnz        w8,|$LL2@unzReadCur|
  002c8		 |$LN38@unzReadCur|

; 1883 : }

  002c8	2a1903e0	 mov         w0,w25
  002cc	14000006	 b           |$LN1@unzReadCur|
  002d0		 |$LN35@unzReadCur|

; 1740 :                 return UNZ_ERRNO;

  002d0	12800000	 mov         w0,#-1
  002d4	14000004	 b           |$LN1@unzReadCur|
  002d8		 |$LN33@unzReadCur|

; 1729 :                 return UNZ_EOF;

  002d8	52800000	 mov         w0,#0
  002dc	14000002	 b           |$LN1@unzReadCur|
  002e0		 |$LN50@unzReadCur|

; 1696 :         return UNZ_PARAMERROR;

  002e0	12800ca0	 mov         w0,#-0x66
  002e4		 |$LN1@unzReadCur|
  002e4	a8c17bfd	 ldp         fp,lr,[sp],#0x10
  002e8	f9401bf9	 ldr         x25,[sp,#0x30]
  002ec	a94263f7	 ldp         x23,x24,[sp,#0x20]
  002f0	a9415bf5	 ldp         x21,x22,[sp,#0x10]
  002f4	a8c453f3	 ldp         x19,x20,[sp],#0x40
  002f8	d65f03c0	 ret

			 ENDP  ; |unzReadCurrentFile|

; Function compile flags: /Ogtp
; File C:\Users\ws103\Desktop\zlib-1.2.11\contrib\minizip\unzip.c

	AREA	|.text$mn|, CODE, ARM64

  00000		 |unztell| PROC

; 1891 :     unz64_s* s;
; 1892 :     file_in_zip64_read_info_s* pfile_in_zip_read_info;
; 1893 :     if (file==NULL)

  00000	b4000000	 cbz         x0,|$LN5@unztell|

; 1894 :         return UNZ_PARAMERROR;
; 1895 :     s=(unz64_s*)file;
; 1896 :     pfile_in_zip_read_info=s->pfile_in_zip_read;

  00004	f9408808	 ldr         x8,[x0,#0x110]

; 1897 : 
; 1898 :     if (pfile_in_zip_read_info==NULL)

  00008	b4000008	 cbz         x8,|$LN5@unztell|

; 1900 : 
; 1901 :     return (z_off_t)pfile_in_zip_read_info->stream.total_out;

  0000c	b9402500	 ldr         w0,[x8,#0x24]
  00010	d65f03c0	 ret
  00014		 |$LN5@unztell|

; 1899 :         return UNZ_PARAMERROR;

  00014	12800ca0	 mov         w0,#-0x66
  00018	d65f03c0	 ret

			 ENDP  ; |unztell|

; Function compile flags: /Ogtp
; File C:\Users\ws103\Desktop\zlib-1.2.11\contrib\minizip\unzip.c

	AREA	|.text$mn|, CODE, ARM64

  00000		 |unztell64| PROC

; 1906 : 
; 1907 :     unz64_s* s;
; 1908 :     file_in_zip64_read_info_s* pfile_in_zip_read_info;
; 1909 :     if (file==NULL)

  00000	b4000000	 cbz         x0,|$LN5@unztell64|

; 1910 :         return (ZPOS64_T)-1;
; 1911 :     s=(unz64_s*)file;
; 1912 :     pfile_in_zip_read_info=s->pfile_in_zip_read;

  00004	f9408808	 ldr         x8,[x0,#0x110]

; 1913 : 
; 1914 :     if (pfile_in_zip_read_info==NULL)

  00008	b4000008	 cbz         x8,|$LN5@unztell64|

; 1916 : 
; 1917 :     return pfile_in_zip_read_info->total_out_64;

  0000c	f9404500	 ldr         x0,[x8,#0x88]
  00010	d65f03c0	 ret
  00014		 |$LN5@unztell64|

; 1915 :         return (ZPOS64_T)-1;

  00014	92800000	 mov         x0,#-1
  00018	d65f03c0	 ret

			 ENDP  ; |unztell64|

; Function compile flags: /Ogtp
; File C:\Users\ws103\Desktop\zlib-1.2.11\contrib\minizip\unzip.c

	AREA	|.text$mn|, CODE, ARM64

  00000		 |unzeof| PROC

; 1926 :     unz64_s* s;
; 1927 :     file_in_zip64_read_info_s* pfile_in_zip_read_info;
; 1928 :     if (file==NULL)

  00000	b4000000	 cbz         x0,|$LN7@unzeof|

; 1929 :         return UNZ_PARAMERROR;
; 1930 :     s=(unz64_s*)file;
; 1931 :     pfile_in_zip_read_info=s->pfile_in_zip_read;

  00004	f9408808	 ldr         x8,[x0,#0x110]

; 1932 : 
; 1933 :     if (pfile_in_zip_read_info==NULL)

  00008	b4000008	 cbz         x8,|$LN7@unzeof|

; 1935 : 
; 1936 :     if (pfile_in_zip_read_info->rest_read_uncompressed == 0)

  0000c	f9405108	 ldr         x8,[x8,#0xA0]
  00010	f100011f	 cmp         x8,#0
  00014	1a9f17e0	 cseteq      w0
  00018	d65f03c0	 ret
  0001c		 |$LN7@unzeof|

; 1934 :         return UNZ_PARAMERROR;

  0001c	12800ca0	 mov         w0,#-0x66
  00020	d65f03c0	 ret

			 ENDP  ; |unzeof|

; Function compile flags: /Ogtp
; File C:\Users\ws103\Desktop\zlib-1.2.11\contrib\minizip\unzip.c

	AREA	|.text$mn|, CODE, ARM64

  00000		 |unzGetLocalExtrafield| PROC

; 1957 : {

  00000		 |$LN14|
  00000	a9be53f3	 stp         x19,x20,[sp,#-0x20]!
  00004	f9000bf5	 str         x21,[sp,#0x10]
  00008	a9bf7bfd	 stp         fp,lr,[sp,#-0x10]!
  0000c	910003fd	 mov         fp,sp
  00010	aa0103f5	 mov         x21,x1
  00014	2a0203f3	 mov         w19,w2

; 1958 :     unz64_s* s;
; 1959 :     file_in_zip64_read_info_s* pfile_in_zip_read_info;
; 1960 :     uInt read_now;
; 1961 :     ZPOS64_T size_to_read;
; 1962 : 
; 1963 :     if (file==NULL)

  00018	b4000000	 cbz         x0,|$LN12@unzGetLoca|

; 1964 :         return UNZ_PARAMERROR;
; 1965 :     s=(unz64_s*)file;
; 1966 :     pfile_in_zip_read_info=s->pfile_in_zip_read;

  0001c	f9408814	 ldr         x20,[x0,#0x110]

; 1967 : 
; 1968 :     if (pfile_in_zip_read_info==NULL)

  00020	b4000014	 cbz         x20,|$LN12@unzGetLoca|

; 1970 : 
; 1971 :     size_to_read = (pfile_in_zip_read_info->size_local_extrafield -

  00024	f940428a	 ldr         x10,[x20,#0x80]
  00028	b9407a88	 ldr         w8,[x20,#0x78]
  0002c	cb0a0109	 sub         x9,x8,x10

; 1972 :                 pfile_in_zip_read_info->pos_local_extrafield);
; 1973 : 
; 1974 :     if (buf==NULL)

  00030	b5000015	 cbnz        x21,|$LN4@unzGetLoca|

; 1975 :         return (int)size_to_read;

  00034	2a0903e0	 mov         w0,w9
  00038	a8c17bfd	 ldp         fp,lr,[sp],#0x10
  0003c	f9400bf5	 ldr         x21,[sp,#0x10]
  00040	a8c253f3	 ldp         x19,x20,[sp],#0x20
  00044	d65f03c0	 ret
  00048		 |$LN4@unzGetLoca|

; 1976 : 
; 1977 :     if (len>size_to_read)

  00048	eb33413f	 cmp         x9,w19,uxtw #0
  0004c	54000002	 bhs         |$LN6@unzGetLoca|

; 1978 :         read_now = (uInt)size_to_read;

  00050	2a0903f3	 mov         w19,w9
  00054		 |$LN6@unzGetLoca|

; 1979 :     else
; 1980 :         read_now = (uInt)len ;
; 1981 : 
; 1982 :     if (read_now==0)

  00054	35000013	 cbnz        w19,|$LN7@unzGetLoca|

; 1983 :         return 0;

  00058	52800000	 mov         w0,#0
  0005c	a8c17bfd	 ldp         fp,lr,[sp],#0x10
  00060	f9400bf5	 ldr         x21,[sp,#0x10]
  00064	a8c253f3	 ldp         x19,x20,[sp],#0x20
  00068	d65f03c0	 ret
  0006c		 |$LN7@unzGetLoca|

; 1984 : 
; 1985 :     if (ZSEEK64(pfile_in_zip_read_info->z_filefunc,
; 1986 :               pfile_in_zip_read_info->filestream,
; 1987 :               pfile_in_zip_read_info->offset_local_extrafield +
; 1988 :               pfile_in_zip_read_info->pos_local_extrafield,
; 1989 :               ZLIB_FILEFUNC_SEEK_SET)!=0)

  0006c	f9403a88	 ldr         x8,[x20,#0x70]
  00070	52800003	 mov         w3,#0
  00074	f9408281	 ldr         x1,[x20,#0x100]
  00078	9102a280	 add         x0,x20,#0xA8
  0007c	8b0a0102	 add         x2,x8,x10
  00080	94000000	 bl          call_zseek64
  00084	35000000	 cbnz        w0,|$LN11@unzGetLoca|

; 1990 :         return UNZ_ERRNO;
; 1991 : 
; 1992 :     if (ZREAD64(pfile_in_zip_read_info->z_filefunc,
; 1993 :               pfile_in_zip_read_info->filestream,
; 1994 :               buf,read_now)!=read_now)

  00088	f9408281	 ldr         x1,[x20,#0x100]
  0008c	2a1303e3	 mov         w3,w19
  00090	f9407280	 ldr         x0,[x20,#0xE0]
  00094	aa1503e2	 mov         x2,x21
  00098	f9405a88	 ldr         x8,[x20,#0xB0]
  0009c	d63f0100	 blr         x8
  000a0	6b13001f	 cmp         w0,w19

; 1996 : 
; 1997 :     return (int)read_now;

  000a4	1a800260	 cseleq      w0,w19,w0
  000a8	54000000	 beq         |$LN1@unzGetLoca|
  000ac		 |$LN11@unzGetLoca|

; 1995 :         return UNZ_ERRNO;

  000ac	12800000	 mov         w0,#-1
  000b0	a8c17bfd	 ldp         fp,lr,[sp],#0x10
  000b4	f9400bf5	 ldr         x21,[sp,#0x10]
  000b8	a8c253f3	 ldp         x19,x20,[sp],#0x20
  000bc	d65f03c0	 ret
  000c0		 |$LN12@unzGetLoca|

; 1969 :         return UNZ_PARAMERROR;

  000c0	12800ca0	 mov         w0,#-0x66
  000c4		 |$LN1@unzGetLoca|
  000c4	a8c17bfd	 ldp         fp,lr,[sp],#0x10
  000c8	f9400bf5	 ldr         x21,[sp,#0x10]
  000cc	a8c253f3	 ldp         x19,x20,[sp],#0x20
  000d0	d65f03c0	 ret

			 ENDP  ; |unzGetLocalExtrafield|

; Function compile flags: /Ogtp
; File C:\Users\ws103\Desktop\zlib-1.2.11\contrib\minizip\unzip.c

	AREA	|.text$mn|, CODE, ARM64

  00000		 |unzCloseCurrentFile| PROC

; 2005 : {

  00000		 |$LN12|
  00000	a9be53f3	 stp         x19,x20,[sp,#-0x20]!
  00004	f9000bf5	 str         x21,[sp,#0x10]
  00008	a9bf7bfd	 stp         fp,lr,[sp,#-0x10]!
  0000c	910003fd	 mov         fp,sp
  00010	aa0003f4	 mov         x20,x0

; 2006 :     int err=UNZ_OK;

  00014	52800015	 mov         w21,#0

; 2007 : 
; 2008 :     unz64_s* s;
; 2009 :     file_in_zip64_read_info_s* pfile_in_zip_read_info;
; 2010 :     if (file==NULL)

  00018	b4000014	 cbz         x20,|$LN10@unzCloseCu|

; 2011 :         return UNZ_PARAMERROR;
; 2012 :     s=(unz64_s*)file;
; 2013 :     pfile_in_zip_read_info=s->pfile_in_zip_read;

  0001c	f9408a93	 ldr         x19,[x20,#0x110]

; 2014 : 
; 2015 :     if (pfile_in_zip_read_info==NULL)

  00020	b4000013	 cbz         x19,|$LN10@unzCloseCu|

; 2017 : 
; 2018 : 
; 2019 :     if ((pfile_in_zip_read_info->rest_read_uncompressed == 0) &&

  00024	f9405268	 ldr         x8,[x19,#0xA0]
  00028	b5000008	 cbnz        x8,|$LN5@unzCloseCu|
  0002c	b9411a68	 ldr         w8,[x19,#0x118]
  00030	35000008	 cbnz        w8,|$LN5@unzCloseCu|

; 2020 :         (!pfile_in_zip_read_info->raw))
; 2021 :     {
; 2022 :         if (pfile_in_zip_read_info->crc32 != pfile_in_zip_read_info->crc32_wait)

  00034	29522668	 ldp         w8,w9,[x19,#0x90]
  00038	12800d0a	 mov         w10,#-0x69
  0003c	6b09011f	 cmp         w8,w9
  00040	1a9f1155	 cselne      w21,w10,wzr
  00044		 |$LN5@unzCloseCu|

; 2023 :             err=UNZ_CRCERROR;
; 2024 :     }
; 2025 : 
; 2026 : 
; 2027 :     TRYFREE(pfile_in_zip_read_info->read_buffer);

  00044	f9400260	 ldr         x0,[x19]
  00048	b4000000	 cbz         x0,|$LN6@unzCloseCu|
  0004c	90000008	 adrp        x8,__imp_free
  00050	f9400108	 ldr         x8,[x8,PageOffset(__imp_free)]
  00054	d63f0100	 blr         x8
  00058		 |$LN6@unzCloseCu|

; 2028 :     pfile_in_zip_read_info->read_buffer = NULL;
; 2029 :     if (pfile_in_zip_read_info->stream_initialised == Z_DEFLATED)

  00058	b9406a68	 ldr         w8,[x19,#0x68]
  0005c	f900027f	 str         xzr,[x19]
  00060	7100211f	 cmp         w8,#8
  00064	54000001	 bne         |$LN7@unzCloseCu|

; 2030 :         inflateEnd(&pfile_in_zip_read_info->stream);

  00068	91002260	 add         x0,x19,#8
  0006c	94000000	 bl          inflateEnd
  00070		 |$LN7@unzCloseCu|

; 2031 : #ifdef HAVE_BZIP2
; 2032 :     else if (pfile_in_zip_read_info->stream_initialised == Z_BZIP2ED)
; 2033 :         BZ2_bzDecompressEnd(&pfile_in_zip_read_info->bstream);
; 2034 : #endif
; 2035 : 
; 2036 : 
; 2037 :     pfile_in_zip_read_info->stream_initialised = 0;
; 2038 :     TRYFREE(pfile_in_zip_read_info);

  00070	90000008	 adrp        x8,__imp_free
  00074	f9400108	 ldr         x8,[x8,PageOffset(__imp_free)]
  00078	b9006a7f	 str         wzr,[x19,#0x68]
  0007c	aa1303e0	 mov         x0,x19
  00080	d63f0100	 blr         x8

; 2039 : 
; 2040 :     s->pfile_in_zip_read=NULL;

  00084	f9008a9f	 str         xzr,[x20,#0x110]

; 2041 : 
; 2042 :     return err;

  00088	2a1503e0	 mov         w0,w21
  0008c	a8c17bfd	 ldp         fp,lr,[sp],#0x10
  00090	f9400bf5	 ldr         x21,[sp,#0x10]
  00094	a8c253f3	 ldp         x19,x20,[sp],#0x20
  00098	d65f03c0	 ret
  0009c		 |$LN10@unzCloseCu|

; 2016 :         return UNZ_PARAMERROR;

  0009c	12800ca0	 mov         w0,#-0x66
  000a0	a8c17bfd	 ldp         fp,lr,[sp],#0x10
  000a4	f9400bf5	 ldr         x21,[sp,#0x10]
  000a8	a8c253f3	 ldp         x19,x20,[sp],#0x20
  000ac	d65f03c0	 ret

			 ENDP  ; |unzCloseCurrentFile|

; Function compile flags: /Ogtp
; File C:\Users\ws103\Desktop\zlib-1.2.11\contrib\minizip\unzip.c

	AREA	|.text$mn|, CODE, ARM64

  00000		 |unzGetGlobalComment| PROC

; 2052 : {

  00000		 |$LN11|
  00000	a9be53f3	 stp         x19,x20,[sp,#-0x20]!
  00004	a9015bf5	 stp         x21,x22,[sp,#0x10]
  00008	a9bf7bfd	 stp         fp,lr,[sp,#-0x10]!
  0000c	910003fd	 mov         fp,sp
  00010	aa0003f3	 mov         x19,x0
  00014	aa0103f5	 mov         x21,x1
  00018	2a0203f6	 mov         w22,w2

; 2053 :     unz64_s* s;
; 2054 :     uLong uReadThis ;
; 2055 :     if (file==NULL)

  0001c	b5000013	 cbnz        x19,|$LN2@unzGetGlob|

; 2056 :         return (int)UNZ_PARAMERROR;

  00020	12800ca0	 mov         w0,#-0x66
  00024	a8c17bfd	 ldp         fp,lr,[sp],#0x10
  00028	a9415bf5	 ldp         x21,x22,[sp,#0x10]
  0002c	a8c253f3	 ldp         x19,x20,[sp],#0x20
  00030	d65f03c0	 ret
  00034		 |$LN2@unzGetGlob|

; 2057 :     s=(unz64_s*)file;
; 2058 : 
; 2059 :     uReadThis = uSizeBuf;
; 2060 :     if (uReadThis>s->gi.size_comment)

  00034	b9407268	 ldr         w8,[x19,#0x70]

; 2061 :         uReadThis = s->gi.size_comment;
; 2062 : 
; 2063 :     if (ZSEEK64(s->z_filefunc,s->filestream,s->central_pos+22,ZLIB_FILEFUNC_SEEK_SET)!=0)

  00038	52800003	 mov         w3,#0
  0003c	f9403261	 ldr         x1,[x19,#0x60]
  00040	aa1303e0	 mov         x0,x19
  00044	6b0802df	 cmp         w22,w8
  00048	1a968114	 cselhi      w20,w8,w22
  0004c	f9404e68	 ldr         x8,[x19,#0x98]
  00050	91005902	 add         x2,x8,#0x16
  00054	94000000	 bl          call_zseek64
  00058	35000000	 cbnz        w0,|$LN9@unzGetGlob|

; 2064 :         return UNZ_ERRNO;
; 2065 : 
; 2066 :     if (uReadThis>0)

  0005c	34000014	 cbz         w20,|$LN6@unzGetGlob|

; 2067 :     {
; 2068 :       *szComment='\0';

  00060	7100029f	 cmp         w20,#0
  00064	1a9f8294	 cselhi      w20,w20,wzr
  00068	d503229f	 csdb
  0006c	390002bf	 strb        wzr,[x21]

; 2069 :       if (ZREAD64(s->z_filefunc,s->filestream,szComment,uReadThis)!=uReadThis)

  00070	f9403261	 ldr         x1,[x19,#0x60]
  00074	2a1403e3	 mov         w3,w20
  00078	f9401e60	 ldr         x0,[x19,#0x38]
  0007c	aa1503e2	 mov         x2,x21
  00080	f9400668	 ldr         x8,[x19,#8]
  00084	d63f0100	 blr         x8
  00088	6b14001f	 cmp         w0,w20
  0008c	54000001	 bne         |$LN9@unzGetGlob|
  00090		 |$LN6@unzGetGlob|

; 2071 :     }
; 2072 : 
; 2073 :     if ((szComment != NULL) && (uSizeBuf > s->gi.size_comment))

  00090	b4000015	 cbz         x21,|$LN7@unzGetGlob|
  00094	b9407268	 ldr         w8,[x19,#0x70]
  00098	6b0802df	 cmp         w22,w8
  0009c	54000009	 bls         |$LN7@unzGetGlob|

; 2074 :         *(szComment+s->gi.size_comment)='\0';

  000a0	38284abf	 strb        wzr,[x21,w8 uxtw #0]
  000a4		 |$LN7@unzGetGlob|

; 2075 :     return (int)uReadThis;

  000a4	2a1403e0	 mov         w0,w20
  000a8	a8c17bfd	 ldp         fp,lr,[sp],#0x10
  000ac	a9415bf5	 ldp         x21,x22,[sp,#0x10]
  000b0	a8c253f3	 ldp         x19,x20,[sp],#0x20
  000b4	d65f03c0	 ret
  000b8		 |$LN9@unzGetGlob|

; 2070 :         return UNZ_ERRNO;

  000b8	12800000	 mov         w0,#-1
  000bc	a8c17bfd	 ldp         fp,lr,[sp],#0x10
  000c0	a9415bf5	 ldp         x21,x22,[sp,#0x10]
  000c4	a8c253f3	 ldp         x19,x20,[sp],#0x20
  000c8	d65f03c0	 ret

			 ENDP  ; |unzGetGlobalComment|

; Function compile flags: /Ogtp
; File C:\Users\ws103\Desktop\zlib-1.2.11\contrib\minizip\unzip.c

	AREA	|.text$mn|, CODE, ARM64

  00000		 |unzGetOffset64| PROC

; 2081 :     unz64_s* s;
; 2082 : 
; 2083 :     if (file==NULL)

  00000	b4000000	 cbz         x0,|$LN7@unzGetOffs|

; 2084 :           return 0; //UNZ_PARAMERROR;
; 2085 :     s=(unz64_s*)file;
; 2086 :     if (!s->current_file_ok)

  00004	f9404808	 ldr         x8,[x0,#0x90]
  00008	b4000008	 cbz         x8,|$LN7@unzGetOffs|

; 2087 :       return 0;
; 2088 :     if (s->gi.number_entry != 0 && s->gi.number_entry != 0xffff)

  0000c	f9403409	 ldr         x9,[x0,#0x68]
  00010	b4000009	 cbz         x9,|$LN5@unzGetOffs|
  00014	d29fffe8	 mov         x8,#0xFFFF
  00018	eb08013f	 cmp         x9,x8
  0001c	54000000	 beq         |$LN5@unzGetOffs|

; 2089 :       if (s->num_file==s->gi.number_entry)

  00020	f9404008	 ldr         x8,[x0,#0x80]
  00024	eb09011f	 cmp         x8,x9
  00028	54000000	 beq         |$LN7@unzGetOffs|
  0002c		 |$LN5@unzGetOffs|

; 2091 :     return s->pos_in_central_dir;

  0002c	f9404400	 ldr         x0,[x0,#0x88]
  00030	d65f03c0	 ret
  00034		 |$LN7@unzGetOffs|

; 2090 :          return 0;

  00034	d2800000	 mov         x0,#0
  00038	d65f03c0	 ret

			 ENDP  ; |unzGetOffset64|

; Function compile flags: /Ogtp
; File C:\Users\ws103\Desktop\zlib-1.2.11\contrib\minizip\unzip.c

	AREA	|.text$mn|, CODE, ARM64

  00000		 |unzGetOffset| PROC

; 2095 : {

  00000		 |$LN5|
  00000	a9bf7bfd	 stp         fp,lr,[sp,#-0x10]!
  00004	910003fd	 mov         fp,sp

; 2096 :     ZPOS64_T offset64;
; 2097 : 
; 2098 :     if (file==NULL)

  00008	b5000000	 cbnz        x0,|$LN2@unzGetOffs|

; 2099 :           return 0; //UNZ_PARAMERROR;

  0000c	52800000	 mov         w0,#0
  00010	a8c17bfd	 ldp         fp,lr,[sp],#0x10
  00014	d65f03c0	 ret
  00018		 |$LN2@unzGetOffs|

; 2100 :     offset64 = unzGetOffset64(file);

  00018	94000000	 bl          unzGetOffset64

; 2101 :     return (uLong)offset64;

  0001c	2a0003e0	 mov         w0,w0
  00020	a8c17bfd	 ldp         fp,lr,[sp],#0x10
  00024	d65f03c0	 ret

			 ENDP  ; |unzGetOffset|

; Function compile flags: /Ogtp
; File C:\Users\ws103\Desktop\zlib-1.2.11\contrib\minizip\unzip.c

	AREA	|.text$mn|, CODE, ARM64

  00000		 |unzSetOffset64| PROC

; 2105 : {

  00000		 |$LN5|
  00000	f81f0ff3	 str         x19,[sp,#-0x10]!
  00004	a9bf7bfd	 stp         fp,lr,[sp,#-0x10]!
  00008	910003fd	 mov         fp,sp
  0000c	d10043ff	 sub         sp,sp,#0x10
  00010	aa0003f3	 mov         x19,x0

; 2106 :     unz64_s* s;
; 2107 :     int err;
; 2108 : 
; 2109 :     if (file==NULL)

  00014	b5000013	 cbnz        x19,|$LN2@unzSetOffs|

; 2110 :         return UNZ_PARAMERROR;

  00018	12800ca0	 mov         w0,#-0x66
  0001c	910043ff	 add         sp,sp,#0x10
  00020	a8c17bfd	 ldp         fp,lr,[sp],#0x10
  00024	f84107f3	 ldr         x19,[sp],#0x10
  00028	d65f03c0	 ret
  0002c		 |$LN2@unzSetOffs|

; 2111 :     s=(unz64_s*)file;
; 2112 : 
; 2113 :     s->pos_in_central_dir = pos;
; 2114 :     s->num_file = s->gi.number_entry;      /* hack */

  0002c	f9403668	 ldr         x8,[x19,#0x68]
  00030	a9080668	 stp         x8,x1,[x19,#0x80]

; 2115 :     err = unz64local_GetCurrentFileInfoInternal(file,&s->cur_file_info,

  00034	d2800007	 mov         x7,#0
  00038	52800006	 mov         w6,#0
  0003c	b90003ff	 str         wzr,[sp]
  00040	d2800005	 mov         x5,#0
  00044	52800004	 mov         w4,#0
  00048	d2800003	 mov         x3,#0
  0004c	91042262	 add         x2,x19,#0x108
  00050	9102c261	 add         x1,x19,#0xB0
  00054	aa1303e0	 mov         x0,x19
  00058	94000000	 bl          unz64local_GetCurrentFileInfoInternal

; 2116 :                                               &s->cur_file_info_internal,
; 2117 :                                               NULL,0,NULL,0,NULL,0);
; 2118 :     s->current_file_ok = (err == UNZ_OK);

  0005c	7100001f	 cmp         w0,#0
  00060	9a9f17e8	 cseteq      x8
  00064	f9004a68	 str         x8,[x19,#0x90]
  00068	910043ff	 add         sp,sp,#0x10
  0006c	a8c17bfd	 ldp         fp,lr,[sp],#0x10
  00070	f84107f3	 ldr         x19,[sp],#0x10
  00074	d65f03c0	 ret

			 ENDP  ; |unzSetOffset64|

; Function compile flags: /Ogtp
; File C:\Users\ws103\Desktop\zlib-1.2.11\contrib\minizip\unzip.c

	AREA	|.text$mn|, CODE, ARM64

  00000		 |unzSetOffset| PROC

; 2124 :     return unzSetOffset64(file,pos);

  00000	d3407c21	 uxtw        x1,w1
  00004	14000000	 b           unzSetOffset64

			 ENDP  ; |unzSetOffset|

	END
