; Listing generated by Microsoft (R) Optimizing Compiler Version 19.28.29335.0 

	TTL	c:\users\ws103\desktop\zlib-1.2.11\contrib\minizip\zip.c
	ARM64

	AREA	|.drectve|, DRECTVE

	EXPORT	|??_C@_01JOAMLHOP@?9@| [ DATA ]		; `string'
	EXPORT	|zip_copyright| [ DATA ]
	IMPORT	|__imp__time64|
	IMPORT	|__imp_rand|
	IMPORT	|__imp_srand|

	AREA	|.rdata|, DATA, READONLY
|??_C@_01JOAMLHOP@?9@| DCB "-", 0x0			; `string'
	%	15
|zip_copyright| DCB " zip 1.01 Copyright 1998-2004 Gilles Vollant - http:"
	DCB	"//www.winimage.com/zLibDll", 0x0
	EXPORT	|zipRemoveExtraInfoBlock|
	EXPORT	|zipClose|
	EXPORT	|Write_GlobalComment|
	EXPORT	|Write_EndOfCentralDirectoryRecord|
	EXPORT	|Write_Zip64EndOfCentralDirectoryRecord|
	EXPORT	|Write_Zip64EndOfCentralDirectoryLocator|
	EXPORT	|zipCloseFileInZip|
	EXPORT	|zipCloseFileInZipRaw64|
	EXPORT	|zipCloseFileInZipRaw|
	EXPORT	|zipWriteInFileInZip|
	EXPORT	|zipOpenNewFileInZip|
	EXPORT	|zipOpenNewFileInZip64|
	EXPORT	|zipOpenNewFileInZip2_64|
	EXPORT	|zipOpenNewFileInZip2|
	EXPORT	|zipOpenNewFileInZip3_64|
	EXPORT	|zipOpenNewFileInZip3|
	EXPORT	|zipOpenNewFileInZip4|
	EXPORT	|zipOpenNewFileInZip4_64|
	EXPORT	|Write_LocalFileHeader|
	EXPORT	|zipOpen64|
	EXPORT	|zipOpen|
	EXPORT	|zipOpen2_64|
	EXPORT	|zipOpen2|
	EXPORT	|zipOpen3|
	EXPORT	|LoadCentralDirectoryRecord|

	AREA	|.bss|, NOINIT
|?calls@?1??crypthead@@9@9| % 0x4			; `crypthead'::`2'::calls

	AREA	|.pdata|, PDATA
|$pdata$zipRemoveExtraInfoBlock| DCD imagerel |$LN18|
	DCD	0x2e8011d
	;Flags[SingleProEpi] functionLength[284] RegF[0] RegI[8] H[0] frameChainReturn[Chained] frameSize[80]

	AREA	|.pdata|, PDATA
|$pdata$zipClose| DCD imagerel |$LN26|
	DCD	0x2e701a5
	;Flags[SingleProEpi] functionLength[420] RegF[0] RegI[7] H[0] frameChainReturn[Chained] frameSize[80]

	AREA	|.pdata|, PDATA
|$pdata$Write_GlobalComment| DCD imagerel |$LN13|
	DCD	0x1e400a1
	;Flags[SingleProEpi] functionLength[160] RegF[0] RegI[4] H[0] frameChainReturn[Chained] frameSize[48]

	AREA	|.pdata|, PDATA
|$pdata$Write_EndOfCentralDirectoryRecord| DCD imagerel |$LN17|
	DCD	0x1e40131
	;Flags[SingleProEpi] functionLength[304] RegF[0] RegI[4] H[0] frameChainReturn[Chained] frameSize[48]

	AREA	|.pdata|, PDATA
|$pdata$Write_Zip64EndOfCentralDirectoryRecord| DCD imagerel |$LN13|
	DCD	0x1e40125
	;Flags[SingleProEpi] functionLength[292] RegF[0] RegI[4] H[0] frameChainReturn[Chained] frameSize[48]

	AREA	|.pdata|, PDATA
|$pdata$Write_Zip64EndOfCentralDirectoryLocator| DCD imagerel |$LN7|
	DCD	0x1620085
	;Flags[SingleProEpi] functionLength[132] RegF[0] RegI[2] H[0] frameChainReturn[Chained] frameSize[32]

	AREA	|.pdata|, PDATA
|$pdata$zipCloseFileInZipRaw64| DCD imagerel |$LN57|
	DCD	0x2e804fd
	;Flags[SingleProEpi] functionLength[1276] RegF[0] RegI[8] H[0] frameChainReturn[Chained] frameSize[80]

	AREA	|.pdata|, PDATA
|$pdata$zipWriteInFileInZip| DCD imagerel |$LN34|
	DCD	imagerel |$unwind$zipWriteInFileInZip|

	AREA	|.pdata|, PDATA
|$pdata$zip64FlushWriteBuffer| DCD imagerel |zip64FlushWriteBuffer|
	DCD	0x16100c9
	;Flags[SingleProEpi] functionLength[200] RegF[0] RegI[1] H[0] frameChainReturn[Chained] frameSize[32]

	AREA	|.pdata|, PDATA
|$pdata$zipOpenNewFileInZip| DCD imagerel |$LN4|
	DCD	0xe00059
	;Flags[SingleProEpi] functionLength[88] RegF[0] RegI[0] H[0] frameChainReturn[Chained] frameSize[16]

	AREA	|.pdata|, PDATA
|$pdata$zipOpenNewFileInZip64| DCD imagerel |$LN4|
	DCD	0xe0005d
	;Flags[SingleProEpi] functionLength[92] RegF[0] RegI[0] H[0] frameChainReturn[Chained] frameSize[16]

	AREA	|.pdata|, PDATA
|$pdata$zipOpenNewFileInZip2_64| DCD imagerel |$LN4|
	DCD	0xe00061
	;Flags[SingleProEpi] functionLength[96] RegF[0] RegI[0] H[0] frameChainReturn[Chained] frameSize[16]

	AREA	|.pdata|, PDATA
|$pdata$zipOpenNewFileInZip2| DCD imagerel |$LN4|
	DCD	0xe0005d
	;Flags[SingleProEpi] functionLength[92] RegF[0] RegI[0] H[0] frameChainReturn[Chained] frameSize[16]

	AREA	|.pdata|, PDATA
|$pdata$zipOpenNewFileInZip3_64| DCD imagerel |$LN4|
	DCD	0xe0006d
	;Flags[SingleProEpi] functionLength[108] RegF[0] RegI[0] H[0] frameChainReturn[Chained] frameSize[16]

	AREA	|.pdata|, PDATA
|$pdata$zipOpenNewFileInZip3| DCD imagerel |$LN4|
	DCD	0xe00069
	;Flags[SingleProEpi] functionLength[104] RegF[0] RegI[0] H[0] frameChainReturn[Chained] frameSize[16]

	AREA	|.pdata|, PDATA
|$pdata$zipOpenNewFileInZip4| DCD imagerel |$LN4|
	DCD	0xe00071
	;Flags[SingleProEpi] functionLength[112] RegF[0] RegI[0] H[0] frameChainReturn[Chained] frameSize[16]

	AREA	|.pdata|, PDATA
|$pdata$zipOpenNewFileInZip4_64| DCD imagerel |$LN81|
	DCD	0x4690579
	;Flags[SingleProEpi] functionLength[1400] RegF[0] RegI[9] H[0] frameChainReturn[Chained] frameSize[128]

	AREA	|.pdata|, PDATA
|$pdata$Write_LocalFileHeader| DCD imagerel |$LN34|
	DCD	0x2e70295
	;Flags[SingleProEpi] functionLength[660] RegF[0] RegI[7] H[0] frameChainReturn[Chained] frameSize[80]

	AREA	|.pdata|, PDATA
|$pdata$zipOpen2_64| DCD imagerel |$LN7|
	DCD	imagerel |$unwind$zipOpen2_64|

	AREA	|.pdata|, PDATA
|$pdata$zipOpen2| DCD imagerel |$LN7|
	DCD	imagerel |$unwind$zipOpen2|

	AREA	|.pdata|, PDATA
|$pdata$zipOpen3| DCD imagerel |$LN16|
	DCD	imagerel |$unwind$zipOpen3|

	AREA	|.pdata|, PDATA
|$pdata$LoadCentralDirectoryRecord| DCD imagerel |$LN59|
	DCD	0x5690455
	;Flags[SingleProEpi] functionLength[1108] RegF[0] RegI[9] H[0] frameChainReturn[Chained] frameSize[160]

	AREA	|.pdata|, PDATA
|$pdata$zip64local_SearchCentralDir64| DCD imagerel |zip64local_SearchCentralDir64|
	DCD	0x4690269
	;Flags[SingleProEpi] functionLength[616] RegF[0] RegI[9] H[0] frameChainReturn[Chained] frameSize[128]

	AREA	|.pdata|, PDATA
|$pdata$zip64local_SearchCentralDir| DCD imagerel |zip64local_SearchCentralDir|
	DCD	0x3e901a9
	;Flags[SingleProEpi] functionLength[424] RegF[0] RegI[9] H[0] frameChainReturn[Chained] frameSize[112]

	AREA	|.pdata|, PDATA
|$pdata$zip64local_getLong64| DCD imagerel |zip64local_getLong64|
	DCD	imagerel |$unwind$zip64local_getLong64|

	AREA	|.pdata|, PDATA
|$pdata$zip64local_getLong| DCD imagerel |zip64local_getLong|
	DCD	imagerel |$unwind$zip64local_getLong|

	AREA	|.pdata|, PDATA
|$pdata$zip64local_getShort| DCD imagerel |zip64local_getShort|
	DCD	imagerel |$unwind$zip64local_getShort|

	AREA	|.pdata|, PDATA
|$pdata$zip64local_getByte| DCD imagerel |zip64local_getByte|
	DCD	imagerel |$unwind$zip64local_getByte|

	AREA	|.pdata|, PDATA
|$pdata$zip64local_putValue| DCD imagerel |zip64local_putValue|
	DCD	0x26300d5
	;Flags[SingleProEpi] functionLength[212] RegF[0] RegI[3] H[0] frameChainReturn[Chained] frameSize[64]

	AREA	|.pdata|, PDATA
|$pdata$add_data_in_datablock| DCD imagerel |add_data_in_datablock|
	DCD	imagerel |$unwind$add_data_in_datablock|

	AREA	|.pdata|, PDATA
|$pdata$free_linkedlist| DCD imagerel |free_linkedlist|
	DCD	0x1610029
	;Flags[SingleProEpi] functionLength[40] RegF[0] RegI[1] H[0] frameChainReturn[Chained] frameSize[32]

	AREA	|.pdata|, PDATA
|$pdata$free_datablock| DCD imagerel |free_datablock|
	DCD	0x1620035
	;Flags[SingleProEpi] functionLength[52] RegF[0] RegI[2] H[0] frameChainReturn[Chained] frameSize[32]

	AREA	|.pdata|, PDATA
|$pdata$allocate_new_datablock| DCD imagerel |allocate_new_datablock|
	DCD	0xe00031
	;Flags[SingleProEpi] functionLength[48] RegF[0] RegI[0] H[0] frameChainReturn[Chained] frameSize[16]

	AREA	|.pdata|, PDATA
|$pdata$crypthead| DCD imagerel |crypthead|
	DCD	0x3680169
	;Flags[SingleProEpi] functionLength[360] RegF[0] RegI[8] H[0] frameChainReturn[Chained] frameSize[96]

	AREA	|.pdata|, PDATA
|$pdata$init_keys| DCD imagerel |init_keys|
	DCD	0xe00055
	;Flags[SingleProEpi] functionLength[84] RegF[0] RegI[0] H[0] frameChainReturn[Chained] frameSize[16]

	AREA	|.xdata|, DATA
|$unwind$add_data_in_datablock| DCD 0x10800033
	DCD	0x40002a
	DCD	0x40002f
	DCD	0x82c881e1
	DCD	0xe3e3e424
	;Code Words[2], Epilog Count[2], E[0], X[0], Function Length[51]=204 bytes
	;Epilog Start Index[1], Epilog Start Offset[42]=168 bytes
	;Epilog Start Index[1], Epilog Start Offset[47]=188 bytes
	;set_fp
	;save_fplr_x
	;save_regp
	;save_r19r20_x
	;end
	;nop
	;nop

	AREA	|.xdata|, DATA
|$unwind$zip64local_getByte| DCD 0x1080001e
	DCD	0x400011
	DCD	0x40001a
	DCD	0x82d083e1
	DCD	0xe3e3e424
	;Code Words[2], Epilog Count[2], E[0], X[0], Function Length[30]=120 bytes
	;Epilog Start Index[1], Epilog Start Offset[17]=68 bytes
	;Epilog Start Index[1], Epilog Start Offset[26]=104 bytes
	;set_fp
	;save_fplr_x
	;save_reg
	;save_r19r20_x
	;end
	;nop
	;nop

	AREA	|.xdata|, DATA
|$unwind$zip64local_getShort| DCD 0x1080001e
	DCD	0x400014
	DCD	0x40001a
	DCD	0x82c883e1
	DCD	0xe3e3e424
	;Code Words[2], Epilog Count[2], E[0], X[0], Function Length[30]=120 bytes
	;Epilog Start Index[1], Epilog Start Offset[20]=80 bytes
	;Epilog Start Index[1], Epilog Start Offset[26]=104 bytes
	;set_fp
	;save_fplr_x
	;save_regp
	;save_r19r20_x
	;end
	;nop
	;nop

	AREA	|.xdata|, DATA
|$unwind$zip64local_getLong| DCD 0x1080002d
	DCD	0x400023
	DCD	0x400029
	DCD	0x82c883e1
	DCD	0xe3e3e424
	;Code Words[2], Epilog Count[2], E[0], X[0], Function Length[45]=180 bytes
	;Epilog Start Index[1], Epilog Start Offset[35]=140 bytes
	;Epilog Start Index[1], Epilog Start Offset[41]=164 bytes
	;set_fp
	;save_fplr_x
	;save_regp
	;save_r19r20_x
	;end
	;nop
	;nop

	AREA	|.xdata|, DATA
|$unwind$zip64local_getLong64| DCD 0x1080004f
	DCD	0x400045
	DCD	0x40004b
	DCD	0x82c883e1
	DCD	0xe3e3e424
	;Code Words[2], Epilog Count[2], E[0], X[0], Function Length[79]=316 bytes
	;Epilog Start Index[1], Epilog Start Offset[69]=276 bytes
	;Epilog Start Index[1], Epilog Start Offset[75]=300 bytes
	;set_fp
	;save_fplr_x
	;save_regp
	;save_r19r20_x
	;end
	;nop
	;nop

	AREA	|.xdata|, DATA
|$unwind$zipOpen3| DCD 0x1820006f
	DCD	0xc806d1e1
	DCD	0x8702c884
	DCD	0xe3e3e3e4
	;Code Words[3], Epilog Start Index[0], E[1], X[0], Function Length[111]=444 bytes
	;set_fp
	;save_reg
	;save_regp
	;save_regp
	;save_fplr_x
	;end
	;nop
	;nop
	;nop

	AREA	|.xdata|, DATA
|$unwind$zipOpen2| DCD 0x8800014
	DCD	0x40000c
	DCD	0x400012
	DCD	0xe3e48de1
	;Code Words[1], Epilog Count[2], E[0], X[0], Function Length[20]=80 bytes
	;Epilog Start Index[1], Epilog Start Offset[12]=48 bytes
	;Epilog Start Index[1], Epilog Start Offset[18]=72 bytes
	;set_fp
	;save_fplr_x
	;end
	;nop

	AREA	|.xdata|, DATA
|$unwind$zipOpen2_64| DCD 0x8800015
	DCD	0x40000f
	DCD	0x400013
	DCD	0xe3e48de1
	;Code Words[1], Epilog Count[2], E[0], X[0], Function Length[21]=84 bytes
	;Epilog Start Index[1], Epilog Start Offset[15]=60 bytes
	;Epilog Start Index[1], Epilog Start Offset[19]=76 bytes
	;set_fp
	;save_fplr_x
	;end
	;nop

	AREA	|.xdata|, DATA
|$unwind$zipWriteInFileInZip| DCD 0x1080007a
	DCD	0x400032
	DCD	0x400075
	DCD	0x4d181e1
	DCD	0xe42682c8
	;Code Words[2], Epilog Count[2], E[0], X[0], Function Length[122]=488 bytes
	;Epilog Start Index[1], Epilog Start Offset[50]=200 bytes
	;Epilog Start Index[1], Epilog Start Offset[117]=468 bytes
	;set_fp
	;save_fplr_x
	;save_reg
	;save_regp
	;save_r19r20_x
	;end
; Function compile flags: /Ogtp
; File C:\Program Files (x86)\Windows Kits\10\Include\10.0.19041.0\ucrt\time.h

	AREA	|.text$mn|, CODE, ARM64

  00000		 |time|	 PROC

; 522  :             return _time64(_Time);

  00000	90000008	 adrp        x8,__imp__time64
  00004	f9400108	 ldr         x8,[x8,PageOffset(__imp__time64)]
  00008	d2800000	 mov         x0,#0
  0000c	d61f0100	 br          x8

			 ENDP  ; |time|

; Function compile flags: /Ogtp
; File C:\Users\ws103\Desktop\zlib-1.2.11\contrib\minizip\crypt.h

	AREA	|.text$mn|, CODE, ARM64

  00000		 |decrypt_byte| PROC

; 37   :     unsigned temp;  /* POTENTIAL BUG:  temp*(temp^1) may overflow in an
; 38   :                      * unpredictable manner on 16-bit systems; not a problem
; 39   :                      * with any known compiler so far, though */
; 40   : 
; 41   :     temp = ((unsigned)(*(pkeys+2)) & 0xffff) | 2;

  00000	b9400808	 ldr         w8,[x0,#8]
  00004	529fffa9	 mov         w9,#0xFFFD
  00008	0a090108	 and         w8,w8,w9
  0000c	321f010a	 orr         w10,w8,#2

; 42   :     return (int)(((temp * (temp ^ 1)) >> 8) & 0xff);

  00010	52000149	 eor         w9,w10,#1
  00014	1b0a7d28	 mul         w8,w9,w10
  00018	53083d00	 ubfx        w0,w8,#8,#8
  0001c	d65f03c0	 ret

			 ENDP  ; |decrypt_byte|

; Function compile flags: /Ogtp
; File C:\Users\ws103\Desktop\zlib-1.2.11\contrib\minizip\crypt.h

	AREA	|.text$mn|, CODE, ARM64

  00000		 |update_keys| PROC

; 50   :     (*(pkeys+0)) = CRC32((*(pkeys+0)), c);

  00000	b940000b	 ldr         w11,[x0]
  00004	93407c48	 sxtw        x8,w2
  00008	93407d69	 sxtw        x9,w11
  0000c	ca080129	 eor         x9,x9,x8
  00010	92401d2a	 and         x10,x9,#0xFF
  00014	b86a7828	 ldr         w8,[x1,x10 lsl #2]
  00018	4a4b2109	 eor         w9,w8,w11,lsr #8

; 51   :     (*(pkeys+1)) += (*(pkeys+0)) & 0xff;
; 52   :     (*(pkeys+1)) = (*(pkeys+1)) * 134775813L + 1;

  0001c	b9400408	 ldr         w8,[x0,#4]
  00020	529080ab	 mov         w11,#0x8405
  00024	72a1010b	 movk        w11,#0x808,lsl #0x10
  00028	b9000009	 str         w9,[x0]
  0002c	12001d29	 and         w9,w9,#0xFF
  00030	0b08012a	 add         w10,w9,w8
  00034	1b0b7d49	 mul         w9,w10,w11

; 53   :     {
; 54   :       register int keyshift = (int)((*(pkeys+1)) >> 24);

  00038	b940080b	 ldr         w11,[x0,#8]
  0003c	11000528	 add         w8,w9,#1
  00040	b9000408	 str         w8,[x0,#4]
  00044	aa0803e9	 mov         x9,x8
  00048	93407d68	 sxtw        x8,w11

; 55   :       (*(pkeys+2)) = CRC32((*(pkeys+2)), keyshift);

  0004c	ca496109	 eor         x9,x8,x9,lsr #0x18
  00050	92401d2a	 and         x10,x9,#0xFF
  00054	b86a7828	 ldr         w8,[x1,x10 lsl #2]
  00058	4a4b2109	 eor         w9,w8,w11,lsr #8
  0005c	b9000809	 str         w9,[x0,#8]

; 56   :     }
; 57   :     return c;

  00060	2a0203e0	 mov         w0,w2
  00064	d65f03c0	 ret

			 ENDP  ; |update_keys|

; Function compile flags: /Ogtp
; File C:\Users\ws103\Desktop\zlib-1.2.11\contrib\minizip\crypt.h

	AREA	|.text$mn|, CODE, ARM64

  00000		 |init_keys| PROC

; 66   : {

  00000	a9bf7bfd	 stp         fp,lr,[sp,#-0x10]!
  00004	910003fd	 mov         fp,sp
  00008	aa0103ed	 mov         x13,x1

; 67   :     *(pkeys+0) = 305419896L;

  0000c	528acf08	 mov         w8,#0x5678
  00010	72a24688	 movk        w8,#0x1234,lsl #0x10
  00014	b90001a8	 str         w8,[x13]

; 68   :     *(pkeys+1) = 591751049L;

  00018	528cf129	 mov         w9,#0x6789
  0001c	72a468a9	 movk        w9,#0x2345,lsl #0x10

; 69   :     *(pkeys+2) = 878082192L;

  00020	528f1208	 mov         w8,#0x7890
  00024	72a68ac8	 movk        w8,#0x3456,lsl #0x10
  00028	2900a1a9	 stp         w9,w8,[x13,#4]
  0002c	aa0003ec	 mov         x12,x0
  00030	aa0203e1	 mov         x1,x2

; 70   :     while (*passwd != '\0') {

  00034	39c00182	 ldrsb       w2,[x12]
  00038	34000002	 cbz         w2,|$LN3@init_keys|
  0003c		 |$LL2@init_keys|

; 71   :         update_keys(pkeys,pcrc_32_tab,(int)*passwd);

  0003c	aa0d03e0	 mov         x0,x13
  00040	94000000	 bl          update_keys
  00044	38c01d82	 ldrsb       w2,[x12,#1]!
  00048	35000002	 cbnz        w2,|$LL2@init_keys|
  0004c		 |$LN3@init_keys|
  0004c	a8c17bfd	 ldp         fp,lr,[sp],#0x10
  00050	d65f03c0	 ret

			 ENDP  ; |init_keys|

; Function compile flags: /Ogtp
; File C:\Users\ws103\Desktop\zlib-1.2.11\contrib\minizip\crypt.h
; File C:\Program Files (x86)\Windows Kits\10\Include\10.0.19041.0\ucrt\time.h
; File C:\Users\ws103\Desktop\zlib-1.2.11\contrib\minizip\crypt.h

	AREA	|.text$mn|, CODE, ARM64

  00000		 |crypthead| PROC

; 96   : {

  00000	a9bc53f3	 stp         x19,x20,[sp,#-0x40]!
  00004	a9015bf5	 stp         x21,x22,[sp,#0x10]
  00008	a90263f7	 stp         x23,x24,[sp,#0x20]
  0000c	a9036bf9	 stp         x25,x26,[sp,#0x30]
  00010	a9be7bfd	 stp         fp,lr,[sp,#-0x20]!
  00014	910003fd	 mov         fp,sp

; 97   :     int n;                       /* index in random header */
; 98   :     int t;                       /* temporary */
; 99   :     int c;                       /* random byte */
; 100  :     unsigned char header[RAND_HEAD_LEN-2]; /* random header */
; 101  :     static unsigned calls = 0;   /* ensure different random header each time */
; 102  : 
; 103  :     if (bufSize<RAND_HEAD_LEN)
; 104  :       return 0;
; 105  : 
; 106  :     /* First generate RAND_HEAD_LEN-2 random bytes. We encrypt the
; 107  :      * output of rand() to get less predictability, since rand() is
; 108  :      * often poorly implemented.
; 109  :      */
; 110  :     if (++calls == 1)

  00018	9000000a	 adrp        x10,|?calls@?1??crypthead@@9@9|
  0001c	b9400148	 ldr         w8,[x10,PageOffset(|?calls@?1??crypthead@@9@9|)]
  00020	aa0003f6	 mov         x22,x0
  00024	aa0103f7	 mov         x23,x1
  00028	11000509	 add         w9,w8,#1
  0002c	aa0303f3	 mov         x19,x3
  00030	b9000149	 str         w9,[x10,PageOffset(|?calls@?1??crypthead@@9@9|)]
  00034	7100053f	 cmp         w9,#1
  00038	aa0403f4	 mov         x20,x4
  0003c	2a0503f8	 mov         w24,w5
  00040	54000001	 bne         |$LN9@crypthead|
; File C:\Program Files (x86)\Windows Kits\10\Include\10.0.19041.0\ucrt\time.h

; 522  :             return _time64(_Time);

  00044	90000008	 adrp        x8,__imp__time64
  00048	f9400108	 ldr         x8,[x8,PageOffset(__imp__time64)]
  0004c	d2800000	 mov         x0,#0
  00050	d63f0100	 blr         x8
; File C:\Users\ws103\Desktop\zlib-1.2.11\contrib\minizip\crypt.h

; 112  :         srand((unsigned)(time(NULL) ^ ZCR_SEED2));

  00054	9000000a	 adrp        x10,__imp_srand
  00058	f9400148	 ldr         x8,[x10,PageOffset(__imp_srand)]
  0005c	529cc9c9	 mov         w9,#0xE64E
  00060	72b76809	 movk        w9,#0xBB40,lsl #0x10
  00064	4a090000	 eor         w0,w0,w9
  00068	d63f0100	 blr         x8
  0006c		 |$LN9@crypthead|

; 113  :     }
; 114  :     init_keys(passwd, pkeys, pcrc_32_tab);

  0006c	aa1403e2	 mov         x2,x20
  00070	aa1303e1	 mov         x1,x19
  00074	aa1603e0	 mov         x0,x22
  00078	94000000	 bl          init_keys
  0007c	d2800015	 mov         x21,#0
  00080	90000019	 adrp        x25,__imp_rand
  00084	910043fa	 add         x26,sp,#0x10
  00088		 |$LL4@crypthead|

; 115  :     for (n = 0; n < RAND_HEAD_LEN-2; n++)
; 116  :     {
; 117  :         c = (rand() >> 7) & 0xff;

  00088	f9400328	 ldr         x8,[x25,PageOffset(__imp_rand)]
  0008c	d63f0100	 blr         x8
  00090	53073802	 ubfx        w2,w0,#7,#8

; 118  :         header[n] = (unsigned char)zencode(pkeys, pcrc_32_tab, c, t);

  00094	aa1303e0	 mov         x0,x19
  00098	94000000	 bl          decrypt_byte
  0009c	aa1403e1	 mov         x1,x20
  000a0	2a0003ec	 mov         w12,w0
  000a4	aa1303e0	 mov         x0,x19
  000a8	94000000	 bl          update_keys
  000ac	4a02018c	 eor         w12,w12,w2
  000b0	383a6aac	 strb        w12,[x21,x26]
  000b4	910006b5	 add         x21,x21,#1
  000b8	f1002abf	 cmp         x21,#0xA
  000bc	5400000b	 blt         |$LL4@crypthead|

; 119  :     }
; 120  :     /* Encrypt random header (last two bytes is high word of crc) */
; 121  :     init_keys(passwd, pkeys, pcrc_32_tab);

  000c0	aa1403e2	 mov         x2,x20
  000c4	aa1303e1	 mov         x1,x19
  000c8	aa1603e0	 mov         x0,x22
  000cc	94000000	 bl          init_keys
  000d0	910043ef	 add         x15,sp,#0x10
  000d4	cb1701ef	 sub         x15,x15,x23
  000d8	aa1703ee	 mov         x14,x23
  000dc	d280014d	 mov         x13,#0xA
  000e0		 |$LL7@crypthead|

; 122  :     for (n = 0; n < RAND_HEAD_LEN-2; n++)
; 123  :     {
; 124  :         buf[n] = (unsigned char)zencode(pkeys, pcrc_32_tab, header[n], t);

  000e0	aa1303e0	 mov         x0,x19
  000e4	94000000	 bl          decrypt_byte
  000e8	386e69e2	 ldrb        w2,[x15,x14]
  000ec	aa1403e1	 mov         x1,x20
  000f0	2a0003ec	 mov         w12,w0
  000f4	aa1303e0	 mov         x0,x19
  000f8	94000000	 bl          update_keys
  000fc	4a0c004c	 eor         w12,w2,w12
  00100	380015cc	 strb        w12,[x14],#1
  00104	d10005ad	 sub         x13,x13,#1
  00108	b500000d	 cbnz        x13,|$LL7@crypthead|

; 125  :     }
; 126  :     buf[n++] = (unsigned char)zencode(pkeys, pcrc_32_tab, (int)(crcForCrypting >> 16) & 0xff, t);

  0010c	aa1303e0	 mov         x0,x19
  00110	94000000	 bl          decrypt_byte
  00114	53105f02	 ubfx        w2,w24,#0x10,#8
  00118	2a0003ec	 mov         w12,w0
  0011c	aa1303e0	 mov         x0,x19
  00120	94000000	 bl          update_keys
  00124	4a58418c	 eor         w12,w12,w24,lsr #0x10

; 127  :     buf[n++] = (unsigned char)zencode(pkeys, pcrc_32_tab, (int)(crcForCrypting >> 24) & 0xff, t);

  00128	aa1303e0	 mov         x0,x19
  0012c	39002aec	 strb        w12,[x23,#0xA]
  00130	94000000	 bl          decrypt_byte
  00134	53187f02	 lsr         w2,w24,#0x18
  00138	2a0003ec	 mov         w12,w0
  0013c	aa1303e0	 mov         x0,x19
  00140	94000000	 bl          update_keys
  00144	4a58618c	 eor         w12,w12,w24,lsr #0x18

; 128  :     return n;

  00148	52800180	 mov         w0,#0xC
  0014c	39002eec	 strb        w12,[x23,#0xB]
  00150	a8c27bfd	 ldp         fp,lr,[sp],#0x20
  00154	a9436bf9	 ldp         x25,x26,[sp,#0x30]
  00158	a94263f7	 ldp         x23,x24,[sp,#0x20]
  0015c	a9415bf5	 ldp         x21,x22,[sp,#0x10]
  00160	a8c453f3	 ldp         x19,x20,[sp],#0x40
  00164	d65f03c0	 ret

			 ENDP  ; |crypthead|

; Function compile flags: /Ogtp
; File C:\Users\ws103\Desktop\zlib-1.2.11\contrib\minizip\zip.c

	AREA	|.text$mn|, CODE, ARM64

  00000		 |allocate_new_datablock| PROC

; 190  : {

  00000	a9bf7bfd	 stp         fp,lr,[sp,#-0x10]!
  00004	910003fd	 mov         fp,sp

; 191  :     linkedlist_datablock_internal* ldi;
; 192  :     ldi = (linkedlist_datablock_internal*)

  00008	90000008	 adrp        x8,__imp_malloc
  0000c	f9400108	 ldr         x8,[x8,PageOffset(__imp_malloc)]
  00010	d2820100	 mov         x0,#0x1008
  00014	d63f0100	 blr         x8

; 193  :                  ALLOC(sizeof(linkedlist_datablock_internal));
; 194  :     if (ldi!=NULL)

  00018	b4000000	 cbz         x0,|$LN2@allocate_n|

; 195  :     {
; 196  :         ldi->next_datablock = NULL ;
; 197  :         ldi->filled_in_this_block = 0 ;
; 198  :         ldi->avail_in_this_block = SIZEDATA_INDATABLOCK ;

  0001c	5281fe08	 mov         w8,#0xFF0
  00020	f900001f	 str         xzr,[x0]
  00024	29017c08	 stp         w8,wzr,[x0,#8]
  00028		 |$LN2@allocate_n|
  00028	a8c17bfd	 ldp         fp,lr,[sp],#0x10
  0002c	d65f03c0	 ret

			 ENDP  ; |allocate_new_datablock|

; Function compile flags: /Ogtp
; File C:\Users\ws103\Desktop\zlib-1.2.11\contrib\minizip\zip.c

	AREA	|.text$mn|, CODE, ARM64

  00000		 |free_datablock| PROC

; 204  : {

  00000	a9bf53f3	 stp         x19,x20,[sp,#-0x10]!
  00004	a9bf7bfd	 stp         fp,lr,[sp,#-0x10]!
  00008	910003fd	 mov         fp,sp

; 205  :     while (ldi!=NULL)

  0000c	b4000000	 cbz         x0,|$LN3@free_datab|
  00010	90000014	 adrp        x20,__imp_free
  00014		 |$LL2@free_datab|

; 206  :     {
; 207  :         linkedlist_datablock_internal* ldinext = ldi->next_datablock;
; 208  :         TRYFREE(ldi);

  00014	f9400288	 ldr         x8,[x20,PageOffset(__imp_free)]
  00018	f9400013	 ldr         x19,[x0]
  0001c	d63f0100	 blr         x8

; 209  :         ldi = ldinext;

  00020	aa1303e0	 mov         x0,x19
  00024	b5000013	 cbnz        x19,|$LL2@free_datab|
  00028		 |$LN3@free_datab|
  00028	a8c17bfd	 ldp         fp,lr,[sp],#0x10
  0002c	a8c153f3	 ldp         x19,x20,[sp],#0x10
  00030	d65f03c0	 ret

			 ENDP  ; |free_datablock|

; Function compile flags: /Ogtp
; File C:\Users\ws103\Desktop\zlib-1.2.11\contrib\minizip\zip.c

	AREA	|.text$mn|, CODE, ARM64

  00000		 |init_linkedlist| PROC

; 215  :     ll->first_block = ll->last_block = NULL;

  00000	a9007c1f	 stp         xzr,xzr,[x0]
  00004	d65f03c0	 ret

			 ENDP  ; |init_linkedlist|

; Function compile flags: /Ogtp
; File C:\Users\ws103\Desktop\zlib-1.2.11\contrib\minizip\zip.c

	AREA	|.text$mn|, CODE, ARM64

  00000		 |free_linkedlist| PROC

; 219  : {

  00000	f81f0ff3	 str         x19,[sp,#-0x10]!
  00004	a9bf7bfd	 stp         fp,lr,[sp,#-0x10]!
  00008	910003fd	 mov         fp,sp
  0000c	aa0003f3	 mov         x19,x0

; 220  :     free_datablock(ll->first_block);

  00010	f9400260	 ldr         x0,[x19]
  00014	94000000	 bl          free_datablock

; 221  :     ll->first_block = ll->last_block = NULL;

  00018	a9007e7f	 stp         xzr,xzr,[x19]
  0001c	a8c17bfd	 ldp         fp,lr,[sp],#0x10
  00020	f84107f3	 ldr         x19,[sp],#0x10
  00024	d65f03c0	 ret

			 ENDP  ; |free_linkedlist|

; Function compile flags: /Ogtp
; File C:\Users\ws103\Desktop\zlib-1.2.11\contrib\minizip\zip.c

	AREA	|.text$mn|, CODE, ARM64

  00000		 |add_data_in_datablock| PROC

; 226  : {

  00000	a9be53f3	 stp         x19,x20,[sp,#-0x20]!
  00004	a9015bf5	 stp         x21,x22,[sp,#0x10]
  00008	a9bf7bfd	 stp         fp,lr,[sp,#-0x10]!
  0000c	910003fd	 mov         fp,sp
  00010	aa0003f6	 mov         x22,x0
  00014	aa0103f4	 mov         x20,x1
  00018	2a0203f5	 mov         w21,w2

; 227  :     linkedlist_datablock_internal* ldi;
; 228  :     const unsigned char* from_copy;
; 229  : 
; 230  :     if (ll==NULL)

  0001c	b4000016	 cbz         x22,|$LN17@add_data_i|

; 231  :         return ZIP_INTERNALERROR;
; 232  : 
; 233  :     if (ll->last_block == NULL)

  00020	f94006d3	 ldr         x19,[x22,#8]
  00024	b5000013	 cbnz        x19,|$LN9@add_data_i|

; 234  :     {
; 235  :         ll->first_block = ll->last_block = allocate_new_datablock();

  00028	94000000	 bl          allocate_new_datablock
  0002c	aa0003f3	 mov         x19,x0
  00030	a9004ed3	 stp         x19,x19,[x22]

; 236  :         if (ll->first_block == NULL)

  00034	b4000013	 cbz         x19,|$LN17@add_data_i|
  00038		 |$LN9@add_data_i|

; 237  :             return ZIP_INTERNALERROR;
; 238  :     }
; 239  : 
; 240  :     ldi = ll->last_block;
; 241  :     from_copy = (unsigned char*)buf;
; 242  : 
; 243  :     while (len>0)

  00038	34000015	 cbz         w21,|$LN24@add_data_i|
  0003c		 |$LL2@add_data_i|

; 244  :     {
; 245  :         uInt copy_this;
; 246  :         uInt i;
; 247  :         unsigned char* to_copy;
; 248  : 
; 249  :         if (ldi->avail_in_this_block==0)

  0003c	b9400a68	 ldr         w8,[x19,#8]
  00040	35000008	 cbnz        w8,|$LN10@add_data_i|

; 250  :         {
; 251  :             ldi->next_datablock = allocate_new_datablock();

  00044	94000000	 bl          allocate_new_datablock
  00048	f9000260	 str         x0,[x19]

; 252  :             if (ldi->next_datablock == NULL)

  0004c	b4000000	 cbz         x0,|$LN17@add_data_i|

; 254  :             ldi = ldi->next_datablock ;

  00050	aa0003f3	 mov         x19,x0

; 255  :             ll->last_block = ldi;

  00054	f90006d3	 str         x19,[x22,#8]
  00058		 |$LN10@add_data_i|

; 256  :         }
; 257  : 
; 258  :         if (ldi->avail_in_this_block < len)

  00058	2941366c	 ldp         w12,w13,[x19,#8]

; 259  :             copy_this = (uInt)ldi->avail_in_this_block;
; 260  :         else
; 261  :             copy_this = (uInt)len;
; 262  : 
; 263  :         to_copy = &(ldi->data[ldi->filled_in_this_block]);

  0005c	52800009	 mov         w9,#0
  00060	8b2d4268	 add         x8,x19,w13,uxtw #0
  00064	6b15019f	 cmp         w12,w21
  00068	1a8c22aa	 cselhs      w10,w21,w12
  0006c	9100510b	 add         x11,x8,#0x14

; 264  : 
; 265  :         for (i=0;i<copy_this;i++)

  00070	3400000a	 cbz         w10,|$LN5@add_data_i|
  00074		 |$LL6@add_data_i|

; 266  :             *(to_copy+i)=*(from_copy+i);

  00074	38694a88	 ldrb        w8,[x20,w9 uxtw #0]
  00078	38294968	 strb        w8,[x11,w9 uxtw #0]
  0007c	11000529	 add         w9,w9,#1
  00080	6b0a013f	 cmp         w9,w10
  00084	54000003	 blo         |$LL6@add_data_i|
  00088	2941366c	 ldp         w12,w13,[x19,#8]
  0008c		 |$LN5@add_data_i|

; 267  : 
; 268  :         ldi->filled_in_this_block += copy_this;

  0008c	0b0d0148	 add         w8,w10,w13

; 269  :         ldi->avail_in_this_block -= copy_this;
; 270  :         from_copy += copy_this ;

  00090	8b2a4294	 add         x20,x20,w10,uxtw #0
  00094	4b0a0189	 sub         w9,w12,w10
  00098	29012269	 stp         w9,w8,[x19,#8]

; 271  :         len -= copy_this;

  0009c	4b0a02b5	 sub         w21,w21,w10
  000a0	35000015	 cbnz        w21,|$LL2@add_data_i|
  000a4		 |$LN24@add_data_i|

; 272  :     }
; 273  :     return ZIP_OK;

  000a4	52800000	 mov         w0,#0
  000a8	a8c17bfd	 ldp         fp,lr,[sp],#0x10
  000ac	a9415bf5	 ldp         x21,x22,[sp,#0x10]
  000b0	a8c253f3	 ldp         x19,x20,[sp],#0x20
  000b4	d65f03c0	 ret
  000b8		 |$LN17@add_data_i|

; 253  :                 return ZIP_INTERNALERROR;

  000b8	12800ce0	 mov         w0,#-0x68
  000bc	a8c17bfd	 ldp         fp,lr,[sp],#0x10
  000c0	a9415bf5	 ldp         x21,x22,[sp,#0x10]
  000c4	a8c253f3	 ldp         x19,x20,[sp],#0x20
  000c8	d65f03c0	 ret

			 ENDP  ; |add_data_in_datablock|

; Function compile flags: /Ogtp
; File C:\Users\ws103\Desktop\zlib-1.2.11\contrib\minizip\zip.c

	AREA	|.text$mn|, CODE, ARM64

  00000		 |zip64local_putValue| PROC

; 288  : {

  00000	a9be53f3	 stp         x19,x20,[sp,#-0x20]!
  00004	f9000bf5	 str         x21,[sp,#0x10]
  00008	a9be7bfd	 stp         fp,lr,[sp,#-0x20]!
  0000c	910003fd	 mov         fp,sp
  00010	2a0303f3	 mov         w19,w3

; 289  :     unsigned char buf[8];
; 290  :     int n;
; 291  :     for (n = 0; n < nbByte; n++)

  00014	7100127f	 cmp         w19,#4
  00018	aa0003f4	 mov         x20,x0
  0001c	aa0103f5	 mov         x21,x1
  00020	5280000d	 mov         w13,#0
  00024	5400000b	 blt         |$LC19@zip64local|
  00028	51001268	 sub         w8,w19,#4
  0002c	53027d09	 lsr         w9,w8,#2
  00030	1100052c	 add         w12,w9,#1
  00034	531e758d	 lsl         w13,w12,#2
  00038	910047eb	 add         x11,sp,#0x11
  0003c		 |$LL20@zip64local|

; 294  :         x >>= 8;

  0003c	d348fc48	 lsr         x8,x2,#8
  00040	381ff162	 sturb       w2,[x11,#-1]
  00044	d348fd09	 lsr         x9,x8,#8
  00048	38004568	 strb        w8,[x11],#4
  0004c	d348fd2a	 lsr         x10,x9,#8
  00050	381fd169	 sturb       w9,[x11,#-3]
  00054	381fe16a	 sturb       w10,[x11,#-2]
  00058	d348fd42	 lsr         x2,x10,#8
  0005c	5100058c	 sub         w12,w12,#1
  00060	3500000c	 cbnz        w12,|$LL20@zip64local|
  00064		 |$LC19@zip64local|

; 289  :     unsigned char buf[8];
; 290  :     int n;
; 291  :     for (n = 0; n < nbByte; n++)

  00064	6b1301bf	 cmp         w13,w19
  00068	5400000a	 bge         |$LN18@zip64local|
  0006c	910043e8	 add         x8,sp,#0x10
  00070	8b2dc109	 add         x9,x8,w13,sxtw #0
  00074	4b0d0268	 sub         w8,w19,w13
  00078		 |$LC4@zip64local|

; 292  :     {
; 293  :         buf[n] = (unsigned char)(x & 0xff);

  00078	38001522	 strb        w2,[x9],#1
  0007c	51000508	 sub         w8,w8,#1

; 294  :         x >>= 8;

  00080	d348fc42	 lsr         x2,x2,#8
  00084	35000008	 cbnz        w8,|$LC4@zip64local|
  00088		 |$LN18@zip64local|

; 295  :     }
; 296  :     if (x != 0)

  00088	f100005f	 cmp         x2,#0

; 297  :       {     /* data overflow - hack for ZIP64 (X Roche) */
; 298  :       for (n = 0; n < nbByte; n++)

  0008c	7a401a6e	 ccmpne      w19,#0,#0xE
  00090	5400000d	 ble         |$LN6@zip64local|
  00094	2a1303e2	 mov         w2,w19
  00098	52801fe1	 mov         w1,#0xFF
  0009c	910043e0	 add         x0,sp,#0x10
  000a0	94000000	 bl          memset
  000a4		 |$LN6@zip64local|

; 299  :         {
; 300  :           buf[n] = 0xff;
; 301  :         }
; 302  :       }
; 303  : 
; 304  :     if (ZWRITE64(*pzlib_filefunc_def,filestream,buf,nbByte)!=(uLong)nbByte)

  000a4	f9401e80	 ldr         x0,[x20,#0x38]
  000a8	2a1303e3	 mov         w3,w19
  000ac	f9400a88	 ldr         x8,[x20,#0x10]
  000b0	910043e2	 add         x2,sp,#0x10
  000b4	aa1503e1	 mov         x1,x21
  000b8	d63f0100	 blr         x8
  000bc	6b13001f	 cmp         w0,w19
  000c0	5a9f03e0	 csetmne     w0
  000c4	a8c27bfd	 ldp         fp,lr,[sp],#0x20
  000c8	f9400bf5	 ldr         x21,[sp,#0x10]
  000cc	a8c253f3	 ldp         x19,x20,[sp],#0x20
  000d0	d65f03c0	 ret

			 ENDP  ; |zip64local_putValue|

; Function compile flags: /Ogtp
; File C:\Users\ws103\Desktop\zlib-1.2.11\contrib\minizip\zip.c

	AREA	|.text$mn|, CODE, ARM64

  00000		 |zip64local_putValue_inmemory| PROC

; 313  :     unsigned char* buf=(unsigned char*)dest;

  00000	5280000d	 mov         w13,#0

; 314  :     int n;
; 315  :     for (n = 0; n < nbByte; n++) {

  00004	7100105f	 cmp         w2,#4
  00008	5400000b	 blt         |$LC17@zip64local|
  0000c	51001048	 sub         w8,w2,#4
  00010	53027d09	 lsr         w9,w8,#2
  00014	1100052c	 add         w12,w9,#1
  00018	531e758d	 lsl         w13,w12,#2
  0001c	9100080b	 add         x11,x0,#2
  00020		 |$LL18@zip64local|

; 317  :         x >>= 8;

  00020	d348fc28	 lsr         x8,x1,#8
  00024	381fe161	 sturb       w1,[x11,#-2]
  00028	d348fd09	 lsr         x9,x8,#8
  0002c	381ff168	 sturb       w8,[x11,#-1]
  00030	d348fd2a	 lsr         x10,x9,#8
  00034	38004569	 strb        w9,[x11],#4
  00038	381fd16a	 sturb       w10,[x11,#-3]
  0003c	d348fd41	 lsr         x1,x10,#8
  00040	5100058c	 sub         w12,w12,#1
  00044	3500000c	 cbnz        w12,|$LL18@zip64local|
  00048		 |$LC17@zip64local|

; 314  :     int n;
; 315  :     for (n = 0; n < nbByte; n++) {

  00048	6b0201bf	 cmp         w13,w2
  0004c	5400000a	 bge         |$LN16@zip64local|
  00050	8b2dc009	 add         x9,x0,w13,sxtw #0
  00054	4b0d0048	 sub         w8,w2,w13
  00058		 |$LC4@zip64local|

; 316  :         buf[n] = (unsigned char)(x & 0xff);

  00058	38001521	 strb        w1,[x9],#1
  0005c	51000508	 sub         w8,w8,#1

; 317  :         x >>= 8;

  00060	d348fc21	 lsr         x1,x1,#8
  00064	35000008	 cbnz        w8,|$LC4@zip64local|
  00068		 |$LN16@zip64local|

; 318  :     }
; 319  : 
; 320  :     if (x != 0)

  00068	f100003f	 cmp         x1,#0

; 321  :     {     /* data overflow - hack for ZIP64 */
; 322  :        for (n = 0; n < nbByte; n++)

  0006c	7a40184e	 ccmpne      w2,#0,#0xE
  00070	5400000d	 ble         |$LN6@zip64local|
  00074	52801fe1	 mov         w1,#0xFF
  00078	14000000	 b           memset
  0007c		 |$LN6@zip64local|
  0007c	d65f03c0	 ret

			 ENDP  ; |zip64local_putValue_inmemory|

; Function compile flags: /Ogtp
; File C:\Users\ws103\Desktop\zlib-1.2.11\contrib\minizip\zip.c

	AREA	|.text$mn|, CODE, ARM64

  00000		 |zip64local_TmzDateToDosDate| PROC

; 334  :     uLong year = (uLong)ptm->tm_year;

  00000	b940140d	 ldr         w13,[x0,#0x14]

; 335  :     if (year>=1980)

  00004	711ef1bf	 cmp         w13,#0x7BC
  00008	54000003	 blo         |$LN2@zip64local|

; 336  :         year-=1980;

  0000c	511ef1ad	 sub         w13,w13,#0x7BC
  00010	14000004	 b           |$LN4@zip64local|
  00014		 |$LN2@zip64local|

; 337  :     else if (year>=80)

  00014	710141bf	 cmp         w13,#0x50
  00018	54000003	 blo         |$LN4@zip64local|

; 338  :         year-=80;

  0001c	510141ad	 sub         w13,w13,#0x50
  00020		 |$LN4@zip64local|

; 339  :     return

  00020	2940a408	 ldp         w8,w9,[x0,#4]
  00024	0b09190b	 add         w11,w8,w9,lsl #6
  00028	b9400009	 ldr         w9,[x0]
  0002c	b9401008	 ldr         w8,[x0,#0x10]
  00030	53017d2a	 lsr         w10,w9,#1
  00034	0b0b154c	 add         w12,w10,w11,lsl #5
  00038	b9400c0a	 ldr         w10,[x0,#0xC]
  0003c	0b0d1109	 add         w9,w8,w13,lsl #4
  00040	1100052b	 add         w11,w9,#1
  00044	0b0b1548	 add         w8,w10,w11,lsl #5
  00048	2a084180	 orr         w0,w12,w8,lsl #0x10
  0004c	d65f03c0	 ret

			 ENDP  ; |zip64local_TmzDateToDosDate|

; Function compile flags: /Ogtp
; File C:\Users\ws103\Desktop\zlib-1.2.11\contrib\minizip\zip.c

	AREA	|.text$mn|, CODE, ARM64

  00000		 |zip64local_getByte| PROC

; 350  : {

  00000	a9be53f3	 stp         x19,x20,[sp,#-0x20]!
  00004	f9000bf5	 str         x21,[sp,#0x10]
  00008	a9be7bfd	 stp         fp,lr,[sp,#-0x20]!
  0000c	910003fd	 mov         fp,sp
  00010	aa0003f3	 mov         x19,x0

; 351  :     unsigned char c;
; 352  :     int err = (int)ZREAD64(*pzlib_filefunc_def,filestream,&c,1);

  00014	f9401e60	 ldr         x0,[x19,#0x38]
  00018	aa0203f4	 mov         x20,x2
  0001c	f9400668	 ldr         x8,[x19,#8]
  00020	52800023	 mov         w3,#1
  00024	910043e2	 add         x2,sp,#0x10
  00028	aa0103f5	 mov         x21,x1
  0002c	d63f0100	 blr         x8

; 353  :     if (err==1)

  00030	7100041f	 cmp         w0,#1
  00034	54000001	 bne         |$LN2@zip64local|

; 354  :     {
; 355  :         *pi = (int)c;

  00038	394043e8	 ldrb        w8,[sp,#0x10]

; 356  :         return ZIP_OK;

  0003c	52800000	 mov         w0,#0
  00040	b9000288	 str         w8,[x20]
  00044	a8c27bfd	 ldp         fp,lr,[sp],#0x20
  00048	f9400bf5	 ldr         x21,[sp,#0x10]
  0004c	a8c253f3	 ldp         x19,x20,[sp],#0x20
  00050	d65f03c0	 ret
  00054		 |$LN2@zip64local|

; 357  :     }
; 358  :     else
; 359  :     {
; 360  :         if (ZERROR64(*pzlib_filefunc_def,filestream))

  00054	a9430268	 ldp         x8,x0,[x19,#0x30]
  00058	aa1503e1	 mov         x1,x21
  0005c	d63f0100	 blr         x8
  00060	7100001f	 cmp         w0,#0
  00064	5a9f03e0	 csetmne     w0
  00068	a8c27bfd	 ldp         fp,lr,[sp],#0x20
  0006c	f9400bf5	 ldr         x21,[sp,#0x10]
  00070	a8c253f3	 ldp         x19,x20,[sp],#0x20
  00074	d65f03c0	 ret

			 ENDP  ; |zip64local_getByte|

; Function compile flags: /Ogtp
; File C:\Users\ws103\Desktop\zlib-1.2.11\contrib\minizip\zip.c

	AREA	|.text$mn|, CODE, ARM64

  00000		 |zip64local_getShort| PROC

; 374  : {

  00000	a9be53f3	 stp         x19,x20,[sp,#-0x20]!
  00004	a9015bf5	 stp         x21,x22,[sp,#0x10]
  00008	a9be7bfd	 stp         fp,lr,[sp,#-0x20]!
  0000c	910003fd	 mov         fp,sp
  00010	aa0203f3	 mov         x19,x2

; 375  :     uLong x ;
; 376  :     int i = 0;

  00014	b90013ff	 str         wzr,[sp,#0x10]

; 377  :     int err;
; 378  : 
; 379  :     err = zip64local_getByte(pzlib_filefunc_def,filestream,&i);

  00018	910043e2	 add         x2,sp,#0x10
  0001c	aa0003f5	 mov         x21,x0
  00020	aa0103f6	 mov         x22,x1
  00024	94000000	 bl          zip64local_getByte

; 380  :     x = (uLong)i;

  00028	b94013f4	 ldr         w20,[sp,#0x10]

; 381  : 
; 382  :     if (err==ZIP_OK)

  0002c	35000000	 cbnz        w0,|$LN3@zip64local|

; 383  :         err = zip64local_getByte(pzlib_filefunc_def,filestream,&i);

  00030	910043e2	 add         x2,sp,#0x10
  00034	aa1603e1	 mov         x1,x22
  00038	aa1503e0	 mov         x0,x21
  0003c	94000000	 bl          zip64local_getByte

; 385  : 
; 386  :     if (err==ZIP_OK)

  00040	35000000	 cbnz        w0,|$LN3@zip64local|

; 384  :     x += ((uLong)i)<<8;

  00044	b94013e8	 ldr         w8,[sp,#0x10]
  00048	0b082289	 add         w9,w20,w8,lsl #8

; 390  :     return err;

  0004c	b9000269	 str         w9,[x19]
  00050	a8c27bfd	 ldp         fp,lr,[sp],#0x20
  00054	a9415bf5	 ldp         x21,x22,[sp,#0x10]
  00058	a8c253f3	 ldp         x19,x20,[sp],#0x20
  0005c	d65f03c0	 ret
  00060		 |$LN3@zip64local|

; 387  :         *pX = x;
; 388  :     else
; 389  :         *pX = 0;

  00060	52800009	 mov         w9,#0

; 390  :     return err;

  00064	b9000269	 str         w9,[x19]
  00068	a8c27bfd	 ldp         fp,lr,[sp],#0x20
  0006c	a9415bf5	 ldp         x21,x22,[sp,#0x10]
  00070	a8c253f3	 ldp         x19,x20,[sp],#0x20
  00074	d65f03c0	 ret

			 ENDP  ; |zip64local_getShort|

; Function compile flags: /Ogtp
; File C:\Users\ws103\Desktop\zlib-1.2.11\contrib\minizip\zip.c

	AREA	|.text$mn|, CODE, ARM64

  00000		 |zip64local_getLong| PROC

; 396  : {

  00000	a9be53f3	 stp         x19,x20,[sp,#-0x20]!
  00004	a9015bf5	 stp         x21,x22,[sp,#0x10]
  00008	a9be7bfd	 stp         fp,lr,[sp,#-0x20]!
  0000c	910003fd	 mov         fp,sp
  00010	aa0203f6	 mov         x22,x2

; 397  :     uLong x ;
; 398  :     int i = 0;

  00014	b90013ff	 str         wzr,[sp,#0x10]

; 399  :     int err;
; 400  : 
; 401  :     err = zip64local_getByte(pzlib_filefunc_def,filestream,&i);

  00018	910043e2	 add         x2,sp,#0x10
  0001c	aa0003f4	 mov         x20,x0
  00020	aa0103f5	 mov         x21,x1
  00024	94000000	 bl          zip64local_getByte

; 402  :     x = (uLong)i;

  00028	b94013e8	 ldr         w8,[sp,#0x10]
  0002c	2a0803f3	 mov         w19,w8

; 403  : 
; 404  :     if (err==ZIP_OK)

  00030	35000000	 cbnz        w0,|$LN2@zip64local|

; 405  :         err = zip64local_getByte(pzlib_filefunc_def,filestream,&i);

  00034	910043e2	 add         x2,sp,#0x10
  00038	aa1503e1	 mov         x1,x21
  0003c	aa1403e0	 mov         x0,x20
  00040	94000000	 bl          zip64local_getByte
  00044	b94013e8	 ldr         w8,[sp,#0x10]
  00048		 |$LN2@zip64local|

; 406  :     x += ((uLong)i)<<8;

  00048	0b082273	 add         w19,w19,w8,lsl #8

; 407  : 
; 408  :     if (err==ZIP_OK)

  0004c	35000000	 cbnz        w0,|$LN3@zip64local|

; 409  :         err = zip64local_getByte(pzlib_filefunc_def,filestream,&i);

  00050	910043e2	 add         x2,sp,#0x10
  00054	aa1503e1	 mov         x1,x21
  00058	aa1403e0	 mov         x0,x20
  0005c	94000000	 bl          zip64local_getByte
  00060	b94013e8	 ldr         w8,[sp,#0x10]
  00064		 |$LN3@zip64local|

; 410  :     x += ((uLong)i)<<16;

  00064	0b084273	 add         w19,w19,w8,lsl #0x10

; 411  : 
; 412  :     if (err==ZIP_OK)

  00068	35000000	 cbnz        w0,|$LN5@zip64local|

; 413  :         err = zip64local_getByte(pzlib_filefunc_def,filestream,&i);

  0006c	910043e2	 add         x2,sp,#0x10
  00070	aa1503e1	 mov         x1,x21
  00074	aa1403e0	 mov         x0,x20
  00078	94000000	 bl          zip64local_getByte

; 415  : 
; 416  :     if (err==ZIP_OK)

  0007c	35000000	 cbnz        w0,|$LN5@zip64local|

; 414  :     x += ((uLong)i)<<24;

  00080	b94013e8	 ldr         w8,[sp,#0x10]
  00084	0b086269	 add         w9,w19,w8,lsl #0x18

; 420  :     return err;

  00088	b90002c9	 str         w9,[x22]
  0008c	a8c27bfd	 ldp         fp,lr,[sp],#0x20
  00090	a9415bf5	 ldp         x21,x22,[sp,#0x10]
  00094	a8c253f3	 ldp         x19,x20,[sp],#0x20
  00098	d65f03c0	 ret
  0009c		 |$LN5@zip64local|

; 417  :         *pX = x;
; 418  :     else
; 419  :         *pX = 0;

  0009c	52800009	 mov         w9,#0

; 420  :     return err;

  000a0	b90002c9	 str         w9,[x22]
  000a4	a8c27bfd	 ldp         fp,lr,[sp],#0x20
  000a8	a9415bf5	 ldp         x21,x22,[sp,#0x10]
  000ac	a8c253f3	 ldp         x19,x20,[sp],#0x20
  000b0	d65f03c0	 ret

			 ENDP  ; |zip64local_getLong|

; Function compile flags: /Ogtp
; File C:\Users\ws103\Desktop\zlib-1.2.11\contrib\minizip\zip.c

	AREA	|.text$mn|, CODE, ARM64

  00000		 |zip64local_getLong64| PROC

; 427  : {

  00000	a9be53f3	 stp         x19,x20,[sp,#-0x20]!
  00004	a9015bf5	 stp         x21,x22,[sp,#0x10]
  00008	a9be7bfd	 stp         fp,lr,[sp,#-0x20]!
  0000c	910003fd	 mov         fp,sp
  00010	aa0203f6	 mov         x22,x2

; 428  :   ZPOS64_T x;
; 429  :   int i = 0;

  00014	b90013ff	 str         wzr,[sp,#0x10]

; 430  :   int err;
; 431  : 
; 432  :   err = zip64local_getByte(pzlib_filefunc_def,filestream,&i);

  00018	910043e2	 add         x2,sp,#0x10
  0001c	aa0003f3	 mov         x19,x0
  00020	aa0103f4	 mov         x20,x1
  00024	94000000	 bl          zip64local_getByte

; 433  :   x = (ZPOS64_T)i;

  00028	b94013e9	 ldr         w9,[sp,#0x10]
  0002c	93407d35	 sxtw        x21,w9

; 434  : 
; 435  :   if (err==ZIP_OK)

  00030	35000000	 cbnz        w0,|$LN2@zip64local|

; 436  :     err = zip64local_getByte(pzlib_filefunc_def,filestream,&i);

  00034	910043e2	 add         x2,sp,#0x10
  00038	aa1403e1	 mov         x1,x20
  0003c	aa1303e0	 mov         x0,x19
  00040	94000000	 bl          zip64local_getByte
  00044	b94013e9	 ldr         w9,[sp,#0x10]
  00048		 |$LN2@zip64local|

; 437  :   x += ((ZPOS64_T)i)<<8;

  00048	93407d28	 sxtw        x8,w9
  0004c	8b0822b5	 add         x21,x21,x8,lsl #8

; 438  : 
; 439  :   if (err==ZIP_OK)

  00050	35000000	 cbnz        w0,|$LN3@zip64local|

; 440  :     err = zip64local_getByte(pzlib_filefunc_def,filestream,&i);

  00054	910043e2	 add         x2,sp,#0x10
  00058	aa1403e1	 mov         x1,x20
  0005c	aa1303e0	 mov         x0,x19
  00060	94000000	 bl          zip64local_getByte
  00064	b94013e9	 ldr         w9,[sp,#0x10]
  00068		 |$LN3@zip64local|

; 441  :   x += ((ZPOS64_T)i)<<16;

  00068	93407d28	 sxtw        x8,w9
  0006c	8b0842b5	 add         x21,x21,x8,lsl #0x10

; 442  : 
; 443  :   if (err==ZIP_OK)

  00070	35000000	 cbnz        w0,|$LN4@zip64local|

; 444  :     err = zip64local_getByte(pzlib_filefunc_def,filestream,&i);

  00074	910043e2	 add         x2,sp,#0x10
  00078	aa1403e1	 mov         x1,x20
  0007c	aa1303e0	 mov         x0,x19
  00080	94000000	 bl          zip64local_getByte
  00084	b94013e9	 ldr         w9,[sp,#0x10]
  00088		 |$LN4@zip64local|

; 445  :   x += ((ZPOS64_T)i)<<24;

  00088	93407d28	 sxtw        x8,w9
  0008c	8b0862b5	 add         x21,x21,x8,lsl #0x18

; 446  : 
; 447  :   if (err==ZIP_OK)

  00090	35000000	 cbnz        w0,|$LN5@zip64local|

; 448  :     err = zip64local_getByte(pzlib_filefunc_def,filestream,&i);

  00094	910043e2	 add         x2,sp,#0x10
  00098	aa1403e1	 mov         x1,x20
  0009c	aa1303e0	 mov         x0,x19
  000a0	94000000	 bl          zip64local_getByte
  000a4	b94013e9	 ldr         w9,[sp,#0x10]
  000a8		 |$LN5@zip64local|

; 449  :   x += ((ZPOS64_T)i)<<32;

  000a8	93407d28	 sxtw        x8,w9
  000ac	8b0882b5	 add         x21,x21,x8,lsl #0x20

; 450  : 
; 451  :   if (err==ZIP_OK)

  000b0	35000000	 cbnz        w0,|$LN6@zip64local|

; 452  :     err = zip64local_getByte(pzlib_filefunc_def,filestream,&i);

  000b4	910043e2	 add         x2,sp,#0x10
  000b8	aa1403e1	 mov         x1,x20
  000bc	aa1303e0	 mov         x0,x19
  000c0	94000000	 bl          zip64local_getByte
  000c4	b94013e9	 ldr         w9,[sp,#0x10]
  000c8		 |$LN6@zip64local|

; 453  :   x += ((ZPOS64_T)i)<<40;

  000c8	93407d28	 sxtw        x8,w9
  000cc	8b08a2b5	 add         x21,x21,x8,lsl #0x28

; 454  : 
; 455  :   if (err==ZIP_OK)

  000d0	35000000	 cbnz        w0,|$LN7@zip64local|

; 456  :     err = zip64local_getByte(pzlib_filefunc_def,filestream,&i);

  000d4	910043e2	 add         x2,sp,#0x10
  000d8	aa1403e1	 mov         x1,x20
  000dc	aa1303e0	 mov         x0,x19
  000e0	94000000	 bl          zip64local_getByte
  000e4	b94013e9	 ldr         w9,[sp,#0x10]
  000e8		 |$LN7@zip64local|

; 457  :   x += ((ZPOS64_T)i)<<48;

  000e8	93407d28	 sxtw        x8,w9
  000ec	8b08c2b5	 add         x21,x21,x8,lsl #0x30

; 458  : 
; 459  :   if (err==ZIP_OK)

  000f0	35000000	 cbnz        w0,|$LN9@zip64local|

; 460  :     err = zip64local_getByte(pzlib_filefunc_def,filestream,&i);

  000f4	910043e2	 add         x2,sp,#0x10
  000f8	aa1403e1	 mov         x1,x20
  000fc	aa1303e0	 mov         x0,x19
  00100	94000000	 bl          zip64local_getByte

; 461  :   x += ((ZPOS64_T)i)<<56;
; 462  : 
; 463  :   if (err==ZIP_OK)

  00104	35000000	 cbnz        w0,|$LN9@zip64local|

; 464  :     *pX = x;

  00108	b98013e8	 ldrsw       x8,[sp,#0x10]
  0010c	8b08e2a9	 add         x9,x21,x8,lsl #0x38

; 467  : 
; 468  :   return err;

  00110	f90002c9	 str         x9,[x22]
  00114	a8c27bfd	 ldp         fp,lr,[sp],#0x20
  00118	a9415bf5	 ldp         x21,x22,[sp,#0x10]
  0011c	a8c253f3	 ldp         x19,x20,[sp],#0x20
  00120	d65f03c0	 ret
  00124		 |$LN9@zip64local|

; 465  :   else
; 466  :     *pX = 0;

  00124	d2800009	 mov         x9,#0

; 467  : 
; 468  :   return err;

  00128	f90002c9	 str         x9,[x22]
  0012c	a8c27bfd	 ldp         fp,lr,[sp],#0x20
  00130	a9415bf5	 ldp         x21,x22,[sp,#0x10]
  00134	a8c253f3	 ldp         x19,x20,[sp],#0x20
  00138	d65f03c0	 ret

			 ENDP  ; |zip64local_getLong64|

; Function compile flags: /Ogtp
; File C:\Users\ws103\Desktop\zlib-1.2.11\contrib\minizip\zip.c

	AREA	|.text$mn|, CODE, ARM64

  00000		 |zip64local_SearchCentralDir| PROC

; 481  : {

  00000	a9bb53f3	 stp         x19,x20,[sp,#-0x50]!
  00004	a9015bf5	 stp         x21,x22,[sp,#0x10]
  00008	a90263f7	 stp         x23,x24,[sp,#0x20]
  0000c	a9036bf9	 stp         x25,x26,[sp,#0x30]
  00010	f90023fb	 str         x27,[sp,#0x40]
  00014	a9be7bfd	 stp         fp,lr,[sp,#-0x20]!
  00018	910003fd	 mov         fp,sp

; 482  :   unsigned char* buf;
; 483  :   ZPOS64_T uSizeFile;
; 484  :   ZPOS64_T uBackRead;
; 485  :   ZPOS64_T uMaxBack=0xffff; /* maximum size of global comment */
; 486  :   ZPOS64_T uPosFound=0;
; 487  : 
; 488  :   if (ZSEEK64(*pzlib_filefunc_def,filestream,0,ZLIB_FILEFUNC_SEEK_END) != 0)

  0001c	52800043	 mov         w3,#2
  00020	d2800002	 mov         x2,#0
  00024	aa0003f8	 mov         x24,x0
  00028	aa0103fb	 mov         x27,x1
  0002c	d29ffff4	 mov         x20,#0xFFFF
  00030	d2800015	 mov         x21,#0
  00034	94000000	 bl          call_zseek64
  00038	35000000	 cbnz        w0,|$LN30@zip64local|

; 489  :     return 0;
; 490  : 
; 491  : 
; 492  :   uSizeFile = ZTELL64(*pzlib_filefunc_def,filestream);

  0003c	aa1b03e1	 mov         x1,x27
  00040	aa1803e0	 mov         x0,x24
  00044	94000000	 bl          call_ztell64

; 493  : 
; 494  :   if (uMaxBack>uSizeFile)

  00048	d29fffe8	 mov         x8,#0xFFFF
  0004c	aa0003f3	 mov         x19,x0
  00050	eb13011f	 cmp         x8,x19
  00054	f9000bf3	 str         x19,[sp,#0x10]

; 495  :     uMaxBack = uSizeFile;
; 496  : 
; 497  :   buf = (unsigned char*)ALLOC(BUFREADCOMMENT+4);

  00058	90000008	 adrp        x8,__imp_malloc
  0005c	f9400108	 ldr         x8,[x8,PageOffset(__imp_malloc)]
  00060	d2808080	 mov         x0,#0x404
  00064	9a948276	 cselhi      x22,x19,x20
  00068	d63f0100	 blr         x8
  0006c	aa0003f7	 mov         x23,x0

; 498  :   if (buf==NULL)

  00070	b4000017	 cbz         x23,|$LN30@zip64local|

; 500  : 
; 501  :   uBackRead = 4;

  00074	d2800099	 mov         x25,#4

; 502  :   while (uBackRead<uMaxBack)

  00078	f10012df	 cmp         x22,#4
  0007c	54000009	 bls         |$LN21@zip64local|
  00080	f10012df	 cmp         x22,#4
  00084	9a9f82d6	 cselhi      x22,x22,xzr
  00088	d503229f	 csdb
  0008c	92800048	 mov         x8,#-3
  00090	cb170114	 sub         x20,x8,x23
  00094	2a1303e9	 mov         w9,w19
  00098	5280808a	 mov         w10,#0x404
  0009c		 |$LL2@zip64local|

; 503  :   {
; 504  :     uLong uReadSize;
; 505  :     ZPOS64_T uReadPos ;
; 506  :     int i;
; 507  :     if (uBackRead+BUFREADCOMMENT>uMaxBack)

  0009c	91100328	 add         x8,x25,#0x400

; 508  :       uBackRead = uMaxBack;
; 509  :     else
; 510  :       uBackRead+=BUFREADCOMMENT;
; 511  :     uReadPos = uSizeFile-uBackRead ;

  000a0	eb16011f	 cmp         x8,x22
  000a4	9a969119	 csells      x25,x8,x22
  000a8	cb19027a	 sub         x26,x19,x25

; 512  : 
; 513  :     uReadSize = ((BUFREADCOMMENT+4) < (uSizeFile-uReadPos)) ?

  000ac	4b1a0129	 sub         w9,w9,w26
  000b0	f110133f	 cmp         x25,#0x404

; 514  :       (BUFREADCOMMENT+4) : (uLong)(uSizeFile-uReadPos);
; 515  :     if (ZSEEK64(*pzlib_filefunc_def,filestream,uReadPos,ZLIB_FILEFUNC_SEEK_SET)!=0)

  000b4	52800003	 mov         w3,#0
  000b8	aa1a03e2	 mov         x2,x26
  000bc	aa1b03e1	 mov         x1,x27
  000c0	aa1803e0	 mov         x0,x24
  000c4	1a898153	 cselhi      w19,w10,w9
  000c8	94000000	 bl          call_zseek64
  000cc	35000000	 cbnz        w0,|$LN21@zip64local|

; 516  :       break;
; 517  : 
; 518  :     if (ZREAD64(*pzlib_filefunc_def,filestream,buf,uReadSize)!=uReadSize)

  000d0	f9401f00	 ldr         x0,[x24,#0x38]
  000d4	2a1303e3	 mov         w3,w19
  000d8	f9400708	 ldr         x8,[x24,#8]
  000dc	aa1703e2	 mov         x2,x23
  000e0	aa1b03e1	 mov         x1,x27
  000e4	d63f0100	 blr         x8
  000e8	6b13001f	 cmp         w0,w19
  000ec	54000001	 bne         |$LN21@zip64local|

; 519  :       break;
; 520  : 
; 521  :     for (i=(int)uReadSize-3; (i--)>0;)

  000f0	51000e6b	 sub         w11,w19,#3
  000f4	93407d68	 sxtw        x8,w11
  000f8	f100011f	 cmp         x8,#0
  000fc	5400000d	 ble         |$LN31@zip64local|
  00100	8b170108	 add         x8,x8,x23
  00104	91000d09	 add         x9,x8,#3
  00108		 |$LL4@zip64local|
  00108	aa0903ea	 mov         x10,x9
  0010c	d1000529	 sub         x9,x9,#1

; 522  :       if (((*(buf+i))==0x50) && ((*(buf+i+1))==0x4b) &&
; 523  :         ((*(buf+i+2))==0x05) && ((*(buf+i+3))==0x06))

  00110	385fd128	 ldurb       w8,[x9,#-3]
  00114	5100056b	 sub         w11,w11,#1
  00118	7101411f	 cmp         w8,#0x50
  0011c	54000001	 bne         |$LN14@zip64local|
  00120	385fd148	 ldurb       w8,[x10,#-3]
  00124	71012d1f	 cmp         w8,#0x4B
  00128	54000001	 bne         |$LN14@zip64local|
  0012c	385ff128	 ldurb       w8,[x9,#-1]
  00130	7100151f	 cmp         w8,#5
  00134	54000001	 bne         |$LN14@zip64local|
  00138	39400128	 ldrb        w8,[x9]
  0013c	7100191f	 cmp         w8,#6
  00140	54000000	 beq         |$LN20@zip64local|
  00144		 |$LN14@zip64local|

; 519  :       break;
; 520  : 
; 521  :     for (i=(int)uReadSize-3; (i--)>0;)

  00144	8b090288	 add         x8,x20,x9
  00148	f100011f	 cmp         x8,#0
  0014c	5400000d	 ble         |$LN31@zip64local|
  00150	17ffffee	 b           |$LL4@zip64local|
  00154		 |$LN20@zip64local|

; 524  :       {
; 525  :         uPosFound = uReadPos+i;

  00154	8b2bc355	 add         x21,x26,w11,sxtw #0

; 526  :         break;
; 527  :       }
; 528  : 
; 529  :       if (uPosFound!=0)

  00158	b5000015	 cbnz        x21,|$LN21@zip64local|
  0015c		 |$LN31@zip64local|

; 502  :   while (uBackRead<uMaxBack)

  0015c	f9400bf3	 ldr         x19,[sp,#0x10]
  00160	eb16033f	 cmp         x25,x22
  00164	5280808a	 mov         w10,#0x404
  00168	2a1303e9	 mov         w9,w19
  0016c	54000003	 blo         |$LL2@zip64local|
  00170		 |$LN21@zip64local|

; 530  :         break;
; 531  :   }
; 532  :   TRYFREE(buf);

  00170	90000008	 adrp        x8,__imp_free
  00174	f9400108	 ldr         x8,[x8,PageOffset(__imp_free)]
  00178	aa1703e0	 mov         x0,x23
  0017c	d63f0100	 blr         x8

; 533  :   return uPosFound;

  00180	aa1503e0	 mov         x0,x21
  00184	14000002	 b           |$LN1@zip64local|
  00188		 |$LN30@zip64local|

; 499  :     return 0;

  00188	d2800000	 mov         x0,#0
  0018c		 |$LN1@zip64local|
  0018c	a8c27bfd	 ldp         fp,lr,[sp],#0x20
  00190	f94023fb	 ldr         x27,[sp,#0x40]
  00194	a9436bf9	 ldp         x25,x26,[sp,#0x30]
  00198	a94263f7	 ldp         x23,x24,[sp,#0x20]
  0019c	a9415bf5	 ldp         x21,x22,[sp,#0x10]
  001a0	a8c553f3	 ldp         x19,x20,[sp],#0x50
  001a4	d65f03c0	 ret

			 ENDP  ; |zip64local_SearchCentralDir|

; Function compile flags: /Ogtp
; File C:\Users\ws103\Desktop\zlib-1.2.11\contrib\minizip\zip.c

	AREA	|.text$mn|, CODE, ARM64

  00000		 |zip64local_SearchCentralDir64| PROC

; 543  : {

  00000	a9bb53f3	 stp         x19,x20,[sp,#-0x50]!
  00004	a9015bf5	 stp         x21,x22,[sp,#0x10]
  00008	a90263f7	 stp         x23,x24,[sp,#0x20]
  0000c	a9036bf9	 stp         x25,x26,[sp,#0x30]
  00010	f90023fb	 str         x27,[sp,#0x40]
  00014	a9bd7bfd	 stp         fp,lr,[sp,#-0x30]!
  00018	910003fd	 mov         fp,sp

; 544  :   unsigned char* buf;
; 545  :   ZPOS64_T uSizeFile;
; 546  :   ZPOS64_T uBackRead;
; 547  :   ZPOS64_T uMaxBack=0xffff; /* maximum size of global comment */
; 548  :   ZPOS64_T uPosFound=0;
; 549  :   uLong uL;
; 550  :   ZPOS64_T relativeOffset;
; 551  : 
; 552  :   if (ZSEEK64(*pzlib_filefunc_def,filestream,0,ZLIB_FILEFUNC_SEEK_END) != 0)

  0001c	52800043	 mov         w3,#2
  00020	d2800002	 mov         x2,#0
  00024	aa0003f4	 mov         x20,x0
  00028	aa0103f6	 mov         x22,x1
  0002c	d29ffff5	 mov         x21,#0xFFFF
  00030	d2800017	 mov         x23,#0
  00034	94000000	 bl          call_zseek64
  00038	35000000	 cbnz        w0,|$LN41@zip64local|

; 553  :     return 0;
; 554  : 
; 555  :   uSizeFile = ZTELL64(*pzlib_filefunc_def,filestream);

  0003c	aa1603e1	 mov         x1,x22
  00040	aa1403e0	 mov         x0,x20
  00044	94000000	 bl          call_ztell64

; 556  : 
; 557  :   if (uMaxBack>uSizeFile)

  00048	d29fffe8	 mov         x8,#0xFFFF
  0004c	aa0003f3	 mov         x19,x0
  00050	eb13011f	 cmp         x8,x19
  00054	f9000ff3	 str         x19,[sp,#0x18]

; 558  :     uMaxBack = uSizeFile;
; 559  : 
; 560  :   buf = (unsigned char*)ALLOC(BUFREADCOMMENT+4);

  00058	90000008	 adrp        x8,__imp_malloc
  0005c	f9400108	 ldr         x8,[x8,PageOffset(__imp_malloc)]
  00060	d2808080	 mov         x0,#0x404
  00064	9a958278	 cselhi      x24,x19,x21
  00068	d63f0100	 blr         x8
  0006c	aa0003f9	 mov         x25,x0

; 561  :   if (buf==NULL)

  00070	b4000019	 cbz         x25,|$LN41@zip64local|

; 562  :     return 0;
; 563  : 
; 564  :   uBackRead = 4;

  00074	d280009a	 mov         x26,#4

; 565  :   while (uBackRead<uMaxBack)

  00078	f100131f	 cmp         x24,#4
  0007c	54000009	 bls         |$LN32@zip64local|
  00080	f100131f	 cmp         x24,#4
  00084	9a9f8318	 cselhi      x24,x24,xzr
  00088	d503229f	 csdb
  0008c	92800048	 mov         x8,#-3
  00090	cb190115	 sub         x21,x8,x25
  00094	2a1303e9	 mov         w9,w19
  00098	5280808a	 mov         w10,#0x404
  0009c		 |$LL2@zip64local|

; 566  :   {
; 567  :     uLong uReadSize;
; 568  :     ZPOS64_T uReadPos;
; 569  :     int i;
; 570  :     if (uBackRead+BUFREADCOMMENT>uMaxBack)

  0009c	91100348	 add         x8,x26,#0x400

; 571  :       uBackRead = uMaxBack;
; 572  :     else
; 573  :       uBackRead+=BUFREADCOMMENT;
; 574  :     uReadPos = uSizeFile-uBackRead ;

  000a0	eb18011f	 cmp         x8,x24
  000a4	9a98911a	 csells      x26,x8,x24
  000a8	cb1a027b	 sub         x27,x19,x26

; 575  : 
; 576  :     uReadSize = ((BUFREADCOMMENT+4) < (uSizeFile-uReadPos)) ?

  000ac	4b1b0129	 sub         w9,w9,w27
  000b0	f110135f	 cmp         x26,#0x404

; 577  :       (BUFREADCOMMENT+4) : (uLong)(uSizeFile-uReadPos);
; 578  :     if (ZSEEK64(*pzlib_filefunc_def,filestream,uReadPos,ZLIB_FILEFUNC_SEEK_SET)!=0)

  000b4	52800003	 mov         w3,#0
  000b8	aa1b03e2	 mov         x2,x27
  000bc	aa1603e1	 mov         x1,x22
  000c0	aa1403e0	 mov         x0,x20
  000c4	1a898153	 cselhi      w19,w10,w9
  000c8	94000000	 bl          call_zseek64
  000cc	35000000	 cbnz        w0,|$LN32@zip64local|

; 579  :       break;
; 580  : 
; 581  :     if (ZREAD64(*pzlib_filefunc_def,filestream,buf,uReadSize)!=uReadSize)

  000d0	f9401e80	 ldr         x0,[x20,#0x38]
  000d4	2a1303e3	 mov         w3,w19
  000d8	f9400688	 ldr         x8,[x20,#8]
  000dc	aa1903e2	 mov         x2,x25
  000e0	aa1603e1	 mov         x1,x22
  000e4	d63f0100	 blr         x8
  000e8	6b13001f	 cmp         w0,w19
  000ec	54000001	 bne         |$LN32@zip64local|

; 582  :       break;
; 583  : 
; 584  :     for (i=(int)uReadSize-3; (i--)>0;)

  000f0	51000e6b	 sub         w11,w19,#3
  000f4	93407d68	 sxtw        x8,w11
  000f8	f100011f	 cmp         x8,#0
  000fc	5400000d	 ble         |$LN42@zip64local|
  00100	8b190108	 add         x8,x8,x25
  00104	91000d09	 add         x9,x8,#3
  00108		 |$LL4@zip64local|
  00108	aa0903ea	 mov         x10,x9
  0010c	d1000529	 sub         x9,x9,#1

; 585  :     {
; 586  :       // Signature "0x07064b50" Zip64 end of central directory locater
; 587  :       if (((*(buf+i))==0x50) && ((*(buf+i+1))==0x4b) && ((*(buf+i+2))==0x06) && ((*(buf+i+3))==0x07))

  00110	385fd128	 ldurb       w8,[x9,#-3]
  00114	5100056b	 sub         w11,w11,#1
  00118	7101411f	 cmp         w8,#0x50
  0011c	54000001	 bne         |$LN14@zip64local|
  00120	385fd148	 ldurb       w8,[x10,#-3]
  00124	71012d1f	 cmp         w8,#0x4B
  00128	54000001	 bne         |$LN14@zip64local|
  0012c	385ff128	 ldurb       w8,[x9,#-1]
  00130	7100191f	 cmp         w8,#6
  00134	54000001	 bne         |$LN14@zip64local|
  00138	39400128	 ldrb        w8,[x9]
  0013c	71001d1f	 cmp         w8,#7
  00140	54000000	 beq         |$LN31@zip64local|
  00144		 |$LN14@zip64local|

; 582  :       break;
; 583  : 
; 584  :     for (i=(int)uReadSize-3; (i--)>0;)

  00144	8b0902a8	 add         x8,x21,x9
  00148	f100011f	 cmp         x8,#0
  0014c	5400000d	 ble         |$LN42@zip64local|
  00150	17ffffee	 b           |$LL4@zip64local|
  00154		 |$LN31@zip64local|

; 588  :       {
; 589  :         uPosFound = uReadPos+i;

  00154	8b2bc377	 add         x23,x27,w11,sxtw #0

; 590  :         break;
; 591  :       }
; 592  :     }
; 593  : 
; 594  :       if (uPosFound!=0)

  00158	b5000017	 cbnz        x23,|$LN32@zip64local|
  0015c		 |$LN42@zip64local|

; 565  :   while (uBackRead<uMaxBack)

  0015c	f9400ff3	 ldr         x19,[sp,#0x18]
  00160	eb18035f	 cmp         x26,x24
  00164	5280808a	 mov         w10,#0x404
  00168	2a1303e9	 mov         w9,w19
  0016c	54000003	 blo         |$LL2@zip64local|
  00170		 |$LN32@zip64local|

; 595  :         break;
; 596  :   }
; 597  : 
; 598  :   TRYFREE(buf);

  00170	90000008	 adrp        x8,__imp_free
  00174	f9400108	 ldr         x8,[x8,PageOffset(__imp_free)]
  00178	aa1903e0	 mov         x0,x25
  0017c	d63f0100	 blr         x8

; 599  :   if (uPosFound == 0)

  00180	b4000017	 cbz         x23,|$LN41@zip64local|

; 600  :     return 0;
; 601  : 
; 602  :   /* Zip64 end of central directory locator */
; 603  :   if (ZSEEK64(*pzlib_filefunc_def,filestream, uPosFound,ZLIB_FILEFUNC_SEEK_SET)!=0)

  00184	52800003	 mov         w3,#0
  00188	aa1703e2	 mov         x2,x23
  0018c	aa1603e1	 mov         x1,x22
  00190	aa1403e0	 mov         x0,x20
  00194	94000000	 bl          call_zseek64
  00198	35000000	 cbnz        w0,|$LN41@zip64local|

; 604  :     return 0;
; 605  : 
; 606  :   /* the signature, already checked */
; 607  :   if (zip64local_getLong(pzlib_filefunc_def,filestream,&uL)!=ZIP_OK)

  0019c	910043e2	 add         x2,sp,#0x10
  001a0	aa1603e1	 mov         x1,x22
  001a4	aa1403e0	 mov         x0,x20
  001a8	94000000	 bl          zip64local_getLong
  001ac	35000000	 cbnz        w0,|$LN41@zip64local|

; 608  :     return 0;
; 609  : 
; 610  :   /* number of the disk with the start of the zip64 end of  central directory */
; 611  :   if (zip64local_getLong(pzlib_filefunc_def,filestream,&uL)!=ZIP_OK)

  001b0	910043e2	 add         x2,sp,#0x10
  001b4	aa1603e1	 mov         x1,x22
  001b8	aa1403e0	 mov         x0,x20
  001bc	94000000	 bl          zip64local_getLong
  001c0	35000000	 cbnz        w0,|$LN41@zip64local|

; 612  :     return 0;
; 613  :   if (uL != 0)

  001c4	b94013e8	 ldr         w8,[sp,#0x10]
  001c8	35000008	 cbnz        w8,|$LN41@zip64local|

; 614  :     return 0;
; 615  : 
; 616  :   /* relative offset of the zip64 end of central directory record */
; 617  :   if (zip64local_getLong64(pzlib_filefunc_def,filestream,&relativeOffset)!=ZIP_OK)

  001cc	910083e2	 add         x2,sp,#0x20
  001d0	aa1603e1	 mov         x1,x22
  001d4	aa1403e0	 mov         x0,x20
  001d8	94000000	 bl          zip64local_getLong64
  001dc	35000000	 cbnz        w0,|$LN41@zip64local|

; 618  :     return 0;
; 619  : 
; 620  :   /* total number of disks */
; 621  :   if (zip64local_getLong(pzlib_filefunc_def,filestream,&uL)!=ZIP_OK)

  001e0	910043e2	 add         x2,sp,#0x10
  001e4	aa1603e1	 mov         x1,x22
  001e8	aa1403e0	 mov         x0,x20
  001ec	94000000	 bl          zip64local_getLong

; 622  :     return 0;
; 623  :   if (uL != 1)

  001f0	b94013e8	 ldr         w8,[sp,#0x10]
  001f4	7100001f	 cmp         w0,#0
  001f8	7a410900	 ccmpeq      w8,#1,#0
  001fc	54000001	 bne         |$LN41@zip64local|

; 624  :     return 0;
; 625  : 
; 626  :   /* Goto Zip64 end of central directory record */
; 627  :   if (ZSEEK64(*pzlib_filefunc_def,filestream, relativeOffset,ZLIB_FILEFUNC_SEEK_SET)!=0)

  00200	f94013f3	 ldr         x19,[sp,#0x20]
  00204	52800003	 mov         w3,#0
  00208	aa1603e1	 mov         x1,x22
  0020c	aa1403e0	 mov         x0,x20
  00210	aa1303e2	 mov         x2,x19
  00214	94000000	 bl          call_zseek64
  00218	35000000	 cbnz        w0,|$LN41@zip64local|

; 628  :     return 0;
; 629  : 
; 630  :   /* the signature */
; 631  :   if (zip64local_getLong(pzlib_filefunc_def,filestream,&uL)!=ZIP_OK)

  0021c	910043e2	 add         x2,sp,#0x10
  00220	aa1603e1	 mov         x1,x22
  00224	aa1403e0	 mov         x0,x20
  00228	94000000	 bl          zip64local_getLong
  0022c	35000000	 cbnz        w0,|$LN41@zip64local|

; 632  :     return 0;
; 633  : 
; 634  :   if (uL != 0x06064b50) // signature of 'Zip64 end of central directory'

  00230	b94013e8	 ldr         w8,[sp,#0x10]
  00234	52896a09	 mov         w9,#0x4B50
  00238	72a0c0c9	 movk        w9,#0x606,lsl #0x10

; 636  : 
; 637  :   return relativeOffset;

  0023c	aa1303e0	 mov         x0,x19
  00240	6b09011f	 cmp         w8,w9
  00244	54000000	 beq         |$LN1@zip64local|
  00248		 |$LN41@zip64local|

; 635  :     return 0;

  00248	d2800000	 mov         x0,#0
  0024c		 |$LN1@zip64local|
  0024c	a8c37bfd	 ldp         fp,lr,[sp],#0x30
  00250	f94023fb	 ldr         x27,[sp,#0x40]
  00254	a9436bf9	 ldp         x25,x26,[sp,#0x30]
  00258	a94263f7	 ldp         x23,x24,[sp,#0x20]
  0025c	a9415bf5	 ldp         x21,x22,[sp,#0x10]
  00260	a8c553f3	 ldp         x19,x20,[sp],#0x50
  00264	d65f03c0	 ret

			 ENDP  ; |zip64local_SearchCentralDir64|

; Function compile flags: /Ogtp
; File C:\Users\ws103\Desktop\zlib-1.2.11\contrib\minizip\zip.c

	AREA	|.text$mn|, CODE, ARM64

  00000		 |LoadCentralDirectoryRecord| PROC

; 641  : {

  00000		 |$LN59|
  00000	a9bb53f3	 stp         x19,x20,[sp,#-0x50]!
  00004	a9015bf5	 stp         x21,x22,[sp,#0x10]
  00008	a90263f7	 stp         x23,x24,[sp,#0x20]
  0000c	a9036bf9	 stp         x25,x26,[sp,#0x30]
  00010	f90023fb	 str         x27,[sp,#0x40]
  00014	a9bb7bfd	 stp         fp,lr,[sp,#-0x50]!
  00018	910003fd	 mov         fp,sp
  0001c	aa0003f4	 mov         x20,x0

; 642  :   int err=ZIP_OK;
; 643  :   ZPOS64_T byte_before_the_zipfile;/* byte before the zipfile, (>0 for sfx)*/
; 644  : 
; 645  :   ZPOS64_T size_central_dir;     /* size of the central directory  */
; 646  :   ZPOS64_T offset_central_dir;   /* offset of start of central directory */
; 647  :   ZPOS64_T central_pos;
; 648  :   uLong uL;
; 649  : 
; 650  :   uLong number_disk;          /* number of the current dist, used for
; 651  :                               spaning ZIP, unsupported, always 0*/
; 652  :   uLong number_disk_with_CD;  /* number the the disk with central dir, used
; 653  :                               for spaning ZIP, unsupported, always 0*/
; 654  :   ZPOS64_T number_entry;
; 655  :   ZPOS64_T number_entry_CD;      /* total number of entries in
; 656  :                                 the central dir
; 657  :                                 (same than number_entry on nospan) */
; 658  :   uLong VersionMadeBy;
; 659  :   uLong VersionNeeded;
; 660  :   uLong size_comment;
; 661  : 
; 662  :   int hasZIP64Record = 0;
; 663  : 
; 664  :   // check first if we find a ZIP64 record
; 665  :   central_pos = zip64local_SearchCentralDir64(&pziinit->z_filefunc,pziinit->filestream);

  00020	f9402e81	 ldr         x1,[x20,#0x58]
  00024	94000000	 bl          zip64local_SearchCentralDir64
  00028	aa0003f5	 mov         x21,x0

; 666  :   if(central_pos > 0)

  0002c	b4000015	 cbz         x21,|$LN4@LoadCentra|

; 673  :   }
; 674  : 
; 675  : /* disable to allow appending to empty ZIP archive
; 676  :         if (central_pos==0)
; 677  :             err=ZIP_ERRNO;
; 678  : */
; 679  : 
; 680  :   if(hasZIP64Record)
; 681  :   {
; 682  :     ZPOS64_T sizeEndOfCentralDirectory;
; 683  :     if (ZSEEK64(pziinit->z_filefunc, pziinit->filestream, central_pos, ZLIB_FILEFUNC_SEEK_SET) != 0)

  00030	f9402e81	 ldr         x1,[x20,#0x58]
  00034	52800003	 mov         w3,#0
  00038	aa1503e2	 mov         x2,x21
  0003c	aa1403e0	 mov         x0,x20
  00040	94000000	 bl          call_zseek64

; 684  :       err=ZIP_ERRNO;
; 685  : 
; 686  :     /* the signature, already checked */
; 687  :     if (zip64local_getLong(&pziinit->z_filefunc, pziinit->filestream,&uL)!=ZIP_OK)

  00044	f9402e81	 ldr         x1,[x20,#0x58]
  00048	910043e2	 add         x2,sp,#0x10
  0004c	7100001f	 cmp         w0,#0
  00050	aa1403e0	 mov         x0,x20
  00054	5a9f03f3	 csetmne     w19
  00058	94000000	 bl          zip64local_getLong

; 688  :       err=ZIP_ERRNO;
; 689  : 
; 690  :     /* size of zip64 end of central directory record */
; 691  :     if (zip64local_getLong64(&pziinit->z_filefunc, pziinit->filestream, &sizeEndOfCentralDirectory)!=ZIP_OK)

  0005c	f9402e81	 ldr         x1,[x20,#0x58]
  00060	12800008	 mov         w8,#-1
  00064	7100001f	 cmp         w0,#0
  00068	910123e2	 add         x2,sp,#0x48
  0006c	aa1403e0	 mov         x0,x20
  00070	1a931113	 cselne      w19,w8,w19
  00074	94000000	 bl          zip64local_getLong64

; 692  :       err=ZIP_ERRNO;
; 693  : 
; 694  :     /* version made by */
; 695  :     if (zip64local_getShort(&pziinit->z_filefunc, pziinit->filestream, &VersionMadeBy)!=ZIP_OK)

  00078	f9402e81	 ldr         x1,[x20,#0x58]
  0007c	7100001f	 cmp         w0,#0
  00080	12800008	 mov         w8,#-1
  00084	910083e2	 add         x2,sp,#0x20
  00088	aa1403e0	 mov         x0,x20
  0008c	1a931113	 cselne      w19,w8,w19
  00090	94000000	 bl          zip64local_getShort

; 696  :       err=ZIP_ERRNO;
; 697  : 
; 698  :     /* version needed to extract */
; 699  :     if (zip64local_getShort(&pziinit->z_filefunc, pziinit->filestream, &VersionNeeded)!=ZIP_OK)

  00094	f9402e81	 ldr         x1,[x20,#0x58]
  00098	7100001f	 cmp         w0,#0
  0009c	12800008	 mov         w8,#-1
  000a0	910093e2	 add         x2,sp,#0x24
  000a4	aa1403e0	 mov         x0,x20
  000a8	1a931113	 cselne      w19,w8,w19
  000ac	94000000	 bl          zip64local_getShort

; 700  :       err=ZIP_ERRNO;
; 701  : 
; 702  :     /* number of this disk */
; 703  :     if (zip64local_getLong(&pziinit->z_filefunc, pziinit->filestream,&number_disk)!=ZIP_OK)

  000b0	f9402e81	 ldr         x1,[x20,#0x58]
  000b4	7100001f	 cmp         w0,#0
  000b8	12800008	 mov         w8,#-1
  000bc	910063e2	 add         x2,sp,#0x18
  000c0	aa1403e0	 mov         x0,x20
  000c4	1a931113	 cselne      w19,w8,w19
  000c8	94000000	 bl          zip64local_getLong

; 704  :       err=ZIP_ERRNO;
; 705  : 
; 706  :     /* number of the disk with the start of the central directory */
; 707  :     if (zip64local_getLong(&pziinit->z_filefunc, pziinit->filestream,&number_disk_with_CD)!=ZIP_OK)

  000cc	f9402e81	 ldr         x1,[x20,#0x58]
  000d0	7100001f	 cmp         w0,#0
  000d4	12800008	 mov         w8,#-1
  000d8	910053e2	 add         x2,sp,#0x14
  000dc	aa1403e0	 mov         x0,x20
  000e0	1a931113	 cselne      w19,w8,w19
  000e4	94000000	 bl          zip64local_getLong

; 708  :       err=ZIP_ERRNO;
; 709  : 
; 710  :     /* total number of entries in the central directory on this disk */
; 711  :     if (zip64local_getLong64(&pziinit->z_filefunc, pziinit->filestream, &number_entry)!=ZIP_OK)

  000e8	f9402e81	 ldr         x1,[x20,#0x58]
  000ec	7100001f	 cmp         w0,#0
  000f0	12800008	 mov         w8,#-1
  000f4	9100c3e2	 add         x2,sp,#0x30
  000f8	aa1403e0	 mov         x0,x20
  000fc	1a931113	 cselne      w19,w8,w19
  00100	94000000	 bl          zip64local_getLong64

; 712  :       err=ZIP_ERRNO;
; 713  : 
; 714  :     /* total number of entries in the central directory */
; 715  :     if (zip64local_getLong64(&pziinit->z_filefunc, pziinit->filestream,&number_entry_CD)!=ZIP_OK)

  00104	f9402e81	 ldr         x1,[x20,#0x58]
  00108	7100001f	 cmp         w0,#0
  0010c	12800008	 mov         w8,#-1
  00110	9100a3e2	 add         x2,sp,#0x28
  00114	aa1403e0	 mov         x0,x20
  00118	1a931113	 cselne      w19,w8,w19
  0011c	94000000	 bl          zip64local_getLong64

; 716  :       err=ZIP_ERRNO;
; 717  : 
; 718  :     if ((number_entry_CD!=number_entry) || (number_disk_with_CD!=0) || (number_disk!=0))

  00120	f94017fa	 ldr         x26,[sp,#0x28]
  00124	7100001f	 cmp         w0,#0
  00128	b94017e9	 ldr         w9,[sp,#0x14]
  0012c	12800008	 mov         w8,#-1

; 719  :       err=ZIP_BADZIPFILE;
; 720  : 
; 721  :     /* size of the central directory */
; 722  :     if (zip64local_getLong64(&pziinit->z_filefunc, pziinit->filestream,&size_central_dir)!=ZIP_OK)

  00130	f9402e81	 ldr         x1,[x20,#0x58]
  00134	1a93110a	 cselne      w10,w8,w19
  00138	f9401be8	 ldr         x8,[sp,#0x30]
  0013c	9100e3e2	 add         x2,sp,#0x38
  00140	aa1403e0	 mov         x0,x20
  00144	eb08035f	 cmp         x26,x8
  00148	b9401be8	 ldr         w8,[sp,#0x18]
  0014c	7a400920	 ccmpeq      w9,#0,#0
  00150	12800cc9	 mov         w9,#-0x67
  00154	7a400900	 ccmpeq      w8,#0,#0
  00158	1a8a1133	 cselne      w19,w9,w10
  0015c	94000000	 bl          zip64local_getLong64

; 723  :       err=ZIP_ERRNO;
; 724  : 
; 725  :     /* offset of start of central directory with respect to the
; 726  :     starting disk number */
; 727  :     if (zip64local_getLong64(&pziinit->z_filefunc, pziinit->filestream,&offset_central_dir)!=ZIP_OK)

  00160	f9402e81	 ldr         x1,[x20,#0x58]
  00164	7100001f	 cmp         w0,#0
  00168	12800008	 mov         w8,#-1
  0016c	1a931113	 cselne      w19,w8,w19
  00170	910103e2	 add         x2,sp,#0x40
  00174	aa1403e0	 mov         x0,x20
  00178	94000000	 bl          zip64local_getLong64
  0017c	12800008	 mov         w8,#-1

; 728  :       err=ZIP_ERRNO;
; 729  : 
; 730  :     // TODO..
; 731  :     // read the comment from the standard central header.
; 732  :     size_comment = 0;
; 733  :   }

  00180	f94023f8	 ldr         x24,[sp,#0x40]
  00184	7100001f	 cmp         w0,#0
  00188	1a931116	 cselne      w22,w8,w19
  0018c	f9401ff3	 ldr         x19,[sp,#0x38]
  00190	52800017	 mov         w23,#0
  00194	14000057	 b           |$LN36@LoadCentra|
  00198		 |$LN4@LoadCentra|

; 667  :   {
; 668  :     hasZIP64Record = 1;
; 669  :   }
; 670  :   else if(central_pos == 0)

  00198	f10002bf	 cmp         x21,#0
  0019c	9a9f92b5	 csells      x21,x21,xzr
  001a0	d503229f	 csdb

; 671  :   {
; 672  :     central_pos = zip64local_SearchCentralDir(&pziinit->z_filefunc,pziinit->filestream);

  001a4	f9402e81	 ldr         x1,[x20,#0x58]
  001a8	aa1403e0	 mov         x0,x20
  001ac	94000000	 bl          zip64local_SearchCentralDir

; 734  :   else
; 735  :   {
; 736  :     // Read End of central Directory info
; 737  :     if (ZSEEK64(pziinit->z_filefunc, pziinit->filestream, central_pos,ZLIB_FILEFUNC_SEEK_SET)!=0)

  001b0	f9402e81	 ldr         x1,[x20,#0x58]
  001b4	52800003	 mov         w3,#0
  001b8	aa0003f5	 mov         x21,x0
  001bc	aa1503e2	 mov         x2,x21
  001c0	aa1403e0	 mov         x0,x20
  001c4	94000000	 bl          call_zseek64

; 738  :       err=ZIP_ERRNO;
; 739  : 
; 740  :     /* the signature, already checked */
; 741  :     if (zip64local_getLong(&pziinit->z_filefunc, pziinit->filestream,&uL)!=ZIP_OK)

  001c8	f9402e81	 ldr         x1,[x20,#0x58]
  001cc	910043e2	 add         x2,sp,#0x10
  001d0	7100001f	 cmp         w0,#0
  001d4	aa1403e0	 mov         x0,x20
  001d8	5a9f03f3	 csetmne     w19
  001dc	94000000	 bl          zip64local_getLong

; 742  :       err=ZIP_ERRNO;
; 743  : 
; 744  :     /* number of this disk */
; 745  :     if (zip64local_getShort(&pziinit->z_filefunc, pziinit->filestream,&number_disk)!=ZIP_OK)

  001e0	f9402e81	 ldr         x1,[x20,#0x58]
  001e4	12800008	 mov         w8,#-1
  001e8	7100001f	 cmp         w0,#0
  001ec	910063e2	 add         x2,sp,#0x18
  001f0	aa1403e0	 mov         x0,x20
  001f4	1a931113	 cselne      w19,w8,w19
  001f8	94000000	 bl          zip64local_getShort

; 746  :       err=ZIP_ERRNO;
; 747  : 
; 748  :     /* number of the disk with the start of the central directory */
; 749  :     if (zip64local_getShort(&pziinit->z_filefunc, pziinit->filestream,&number_disk_with_CD)!=ZIP_OK)

  001fc	f9402e81	 ldr         x1,[x20,#0x58]
  00200	7100001f	 cmp         w0,#0
  00204	12800008	 mov         w8,#-1
  00208	910053e2	 add         x2,sp,#0x14
  0020c	aa1403e0	 mov         x0,x20
  00210	1a931113	 cselne      w19,w8,w19
  00214	94000000	 bl          zip64local_getShort

; 750  :       err=ZIP_ERRNO;
; 751  : 
; 752  :     /* total number of entries in the central dir on this disk */
; 753  :     number_entry = 0;
; 754  :     if (zip64local_getShort(&pziinit->z_filefunc, pziinit->filestream, &uL)!=ZIP_OK)

  00218	f9402e81	 ldr         x1,[x20,#0x58]
  0021c	7100001f	 cmp         w0,#0
  00220	12800008	 mov         w8,#-1
  00224	910043e2	 add         x2,sp,#0x10
  00228	aa1403e0	 mov         x0,x20
  0022c	1a931113	 cselne      w19,w8,w19
  00230	94000000	 bl          zip64local_getShort
  00234	34000000	 cbz         w0,|$LN26@LoadCentra|

; 755  :       err=ZIP_ERRNO;

  00238	12800013	 mov         w19,#-1
  0023c	d2800016	 mov         x22,#0
  00240	14000002	 b           |$LN27@LoadCentra|
  00244		 |$LN26@LoadCentra|

; 756  :     else
; 757  :       number_entry = uL;

  00244	b94013f6	 ldr         w22,[sp,#0x10]
  00248		 |$LN27@LoadCentra|

; 758  : 
; 759  :     /* total number of entries in the central dir */
; 760  :     number_entry_CD = 0;
; 761  :     if (zip64local_getShort(&pziinit->z_filefunc, pziinit->filestream, &uL)!=ZIP_OK)

  00248	f9402e81	 ldr         x1,[x20,#0x58]
  0024c	910043e2	 add         x2,sp,#0x10
  00250	aa1403e0	 mov         x0,x20
  00254	d280001a	 mov         x26,#0
  00258	94000000	 bl          zip64local_getShort
  0025c	34000000	 cbz         w0,|$LN28@LoadCentra|

; 762  :       err=ZIP_ERRNO;

  00260	12800013	 mov         w19,#-1
  00264	d2800008	 mov         x8,#0
  00268	14000003	 b           |$LN29@LoadCentra|
  0026c		 |$LN28@LoadCentra|

; 763  :     else
; 764  :       number_entry_CD = uL;

  0026c	b94013e8	 ldr         w8,[sp,#0x10]
  00270	aa0803fa	 mov         x26,x8
  00274		 |$LN29@LoadCentra|

; 765  : 
; 766  :     if ((number_entry_CD!=number_entry) || (number_disk_with_CD!=0) || (number_disk!=0))

  00274	eb16011f	 cmp         x8,x22
  00278	2942a7e8	 ldp         w8,w9,[sp,#0x14]

; 767  :       err=ZIP_BADZIPFILE;
; 768  : 
; 769  :     /* size of the central directory */
; 770  :     size_central_dir = 0;
; 771  :     if (zip64local_getLong(&pziinit->z_filefunc, pziinit->filestream, &uL)!=ZIP_OK)

  0027c	f9402e81	 ldr         x1,[x20,#0x58]
  00280	910043e2	 add         x2,sp,#0x10
  00284	aa1403e0	 mov         x0,x20
  00288	7a400900	 ccmpeq      w8,#0,#0
  0028c	7a400920	 ccmpeq      w9,#0,#0
  00290	12800cc8	 mov         w8,#-0x67
  00294	1a931116	 cselne      w22,w8,w19
  00298	d2800013	 mov         x19,#0
  0029c	94000000	 bl          zip64local_getLong
  002a0	34000000	 cbz         w0,|$LN32@LoadCentra|

; 772  :       err=ZIP_ERRNO;

  002a4	12800016	 mov         w22,#-1
  002a8	14000002	 b           |$LN33@LoadCentra|
  002ac		 |$LN32@LoadCentra|

; 773  :     else
; 774  :       size_central_dir = uL;

  002ac	b94013f3	 ldr         w19,[sp,#0x10]
  002b0		 |$LN33@LoadCentra|

; 775  : 
; 776  :     /* offset of start of central directory with respect to the starting disk number */
; 777  :     offset_central_dir = 0;
; 778  :     if (zip64local_getLong(&pziinit->z_filefunc, pziinit->filestream, &uL)!=ZIP_OK)

  002b0	f9402e81	 ldr         x1,[x20,#0x58]
  002b4	910043e2	 add         x2,sp,#0x10
  002b8	aa1403e0	 mov         x0,x20
  002bc	d2800018	 mov         x24,#0
  002c0	94000000	 bl          zip64local_getLong
  002c4	34000000	 cbz         w0,|$LN34@LoadCentra|

; 779  :       err=ZIP_ERRNO;

  002c8	12800016	 mov         w22,#-1
  002cc	14000002	 b           |$LN35@LoadCentra|
  002d0		 |$LN34@LoadCentra|

; 780  :     else
; 781  :       offset_central_dir = uL;

  002d0	b94013f8	 ldr         w24,[sp,#0x10]
  002d4		 |$LN35@LoadCentra|

; 782  : 
; 783  : 
; 784  :     /* zipfile global comment length */
; 785  :     if (zip64local_getShort(&pziinit->z_filefunc, pziinit->filestream, &size_comment)!=ZIP_OK)

  002d4	f9402e81	 ldr         x1,[x20,#0x58]
  002d8	910073e2	 add         x2,sp,#0x1C
  002dc	aa1403e0	 mov         x0,x20
  002e0	94000000	 bl          zip64local_getShort
  002e4	b9401ff7	 ldr         w23,[sp,#0x1C]
  002e8	34000000	 cbz         w0,|$LN36@LoadCentra|

; 786  :       err=ZIP_ERRNO;

  002ec	12800016	 mov         w22,#-1
  002f0		 |$LN36@LoadCentra|

; 787  :   }
; 788  : 
; 789  :   if ((central_pos<offset_central_dir+size_central_dir) &&

  002f0	8b130308	 add         x8,x24,x19
  002f4	eb0802bf	 cmp         x21,x8

; 790  :     (err==ZIP_OK))
; 791  :     err=ZIP_BADZIPFILE;
; 792  : 
; 793  :   if (err!=ZIP_OK)

  002f8	7a402ac0	 ccmphs      w22,#0,#0
  002fc	54000000	 beq         |$LN38@LoadCentra|

; 794  :   {
; 795  :     ZCLOSE64(pziinit->z_filefunc, pziinit->filestream);

  00300	f9402e81	 ldr         x1,[x20,#0x58]
  00304	f9401e80	 ldr         x0,[x20,#0x38]
  00308	f9401688	 ldr         x8,[x20,#0x28]
  0030c	d63f0100	 blr         x8

; 796  :     return ZIP_ERRNO;

  00310	12800000	 mov         w0,#-1
  00314	14000049	 b           |$LN1@LoadCentra|
  00318		 |$LN38@LoadCentra|

; 797  :   }
; 798  : 
; 799  :   if (size_comment>0)

  00318	34000017	 cbz         w23,|$LN40@LoadCentra|

; 800  :   {
; 801  :     pziinit->globalcomment = (char*)ALLOC(size_comment+1);

  0031c	90000009	 adrp        x9,__imp_malloc
  00320	f9400129	 ldr         x9,[x9,PageOffset(__imp_malloc)]
  00324	110006e0	 add         w0,w23,#1
  00328	d63f0120	 blr         x9
  0032c	91404299	 add         x25,x20,#0x10,lsl #0xC
  00330	f900b320	 str         x0,[x25,#0x160]

; 802  :     if (pziinit->globalcomment)

  00334	b4000000	 cbz         x0,|$LN40@LoadCentra|

; 803  :     {
; 804  :       size_comment = ZREAD64(pziinit->z_filefunc, pziinit->filestream, pziinit->globalcomment,size_comment);

  00338	aa0003e2	 mov         x2,x0
  0033c	f9402e81	 ldr         x1,[x20,#0x58]
  00340	f9401e80	 ldr         x0,[x20,#0x38]
  00344	2a1703e3	 mov         w3,w23
  00348	f9400688	 ldr         x8,[x20,#8]
  0034c	d63f0100	 blr         x8

; 805  :       pziinit->globalcomment[size_comment]=0;

  00350	f940b328	 ldr         x8,[x25,#0x160]
  00354	3820491f	 strb        wzr,[x8,w0 uxtw #0]
  00358		 |$LN40@LoadCentra|

; 806  :     }
; 807  :   }
; 808  : 
; 809  :   byte_before_the_zipfile = central_pos - (offset_central_dir+size_central_dir);

  00358	cb1802a8	 sub         x8,x21,x24

; 810  :   pziinit->add_position_when_writing_offset = byte_before_the_zipfile;

  0035c	91404289	 add         x9,x20,#0x10,lsl #0xC
  00360	cb130119	 sub         x25,x8,x19

; 811  : 
; 812  :   {
; 813  :     ZPOS64_T size_central_dir_to_read = size_central_dir;
; 814  :     size_t buf_size = SIZEDATA_INDATABLOCK;
; 815  :     void* buf_read = (void*)ALLOC(buf_size);

  00364	90000008	 adrp        x8,__imp_malloc
  00368	f9400108	 ldr         x8,[x8,PageOffset(__imp_malloc)]
  0036c	f900a939	 str         x25,[x9,#0x150]
  00370	d281fe00	 mov         x0,#0xFF0
  00374	d63f0100	 blr         x8

; 816  :     if (ZSEEK64(pziinit->z_filefunc, pziinit->filestream, offset_central_dir + byte_before_the_zipfile, ZLIB_FILEFUNC_SEEK_SET) != 0)

  00378	f9402e81	 ldr         x1,[x20,#0x58]
  0037c	52800003	 mov         w3,#0
  00380	8b180322	 add         x2,x25,x24
  00384	aa0003f7	 mov         x23,x0
  00388	aa1403e0	 mov         x0,x20
  0038c	94000000	 bl          call_zseek64
  00390	12800008	 mov         w8,#-1
  00394	7100001f	 cmp         w0,#0
  00398	1a961116	 cselne      w22,w8,w22

; 817  :       err=ZIP_ERRNO;
; 818  : 
; 819  :     while ((size_central_dir_to_read>0) && (err==ZIP_OK))

  0039c	b4000013	 cbz         x19,|$LN3@LoadCentra|
  003a0	d281fe1b	 mov         x27,#0xFF0
  003a4		 |$LL2@LoadCentra|
  003a4	35000016	 cbnz        w22,|$LN3@LoadCentra|

; 820  :     {
; 821  :       ZPOS64_T read_this = SIZEDATA_INDATABLOCK;
; 822  :       if (read_this > size_central_dir_to_read)

  003a8	f13fc27f	 cmp         x19,#0xFF0

; 823  :         read_this = size_central_dir_to_read;
; 824  : 
; 825  :       if (ZREAD64(pziinit->z_filefunc, pziinit->filestream,buf_read,(uLong)read_this) != read_this)

  003ac	f9402e81	 ldr         x1,[x20,#0x58]
  003b0	f9401e80	 ldr         x0,[x20,#0x38]
  003b4	9a9b3275	 csello      x21,x19,x27
  003b8	f9400688	 ldr         x8,[x20,#8]
  003bc	2a1503e3	 mov         w3,w21
  003c0	aa1703e2	 mov         x2,x23
  003c4	d63f0100	 blr         x8
  003c8	eb2042bf	 cmp         x21,w0,uxtw #0
  003cc	54000000	 beq         |$LN54@LoadCentra|

; 826  :         err=ZIP_ERRNO;

  003d0	12800016	 mov         w22,#-1

; 827  : 
; 828  :       if (err==ZIP_OK)

  003d4	14000006	 b           |$LN51@LoadCentra|
  003d8		 |$LN54@LoadCentra|

; 829  :         err = add_data_in_datablock(&pziinit->central_dir,buf_read, (uLong)read_this);

  003d8	2a1503e2	 mov         w2,w21
  003dc	aa1703e1	 mov         x1,x23
  003e0	91018280	 add         x0,x20,#0x60
  003e4	94000000	 bl          add_data_in_datablock
  003e8	2a0003f6	 mov         w22,w0
  003ec		 |$LN51@LoadCentra|

; 830  : 
; 831  :       size_central_dir_to_read-=read_this;

  003ec	cb150273	 sub         x19,x19,x21
  003f0	b5000013	 cbnz        x19,|$LL2@LoadCentra|
  003f4		 |$LN3@LoadCentra|

; 832  :     }
; 833  :     TRYFREE(buf_read);

  003f4	b4000017	 cbz         x23,|$LN45@LoadCentra|
  003f8	90000008	 adrp        x8,__imp_free
  003fc	f9400108	 ldr         x8,[x8,PageOffset(__imp_free)]
  00400	aa1703e0	 mov         x0,x23
  00404	d63f0100	 blr         x8
  00408		 |$LN45@LoadCentra|

; 834  :   }
; 835  :   pziinit->begin_pos = byte_before_the_zipfile;
; 836  :   pziinit->number_entry = number_entry_CD;
; 837  : 
; 838  :   if (ZSEEK64(pziinit->z_filefunc, pziinit->filestream, offset_central_dir+byte_before_the_zipfile,ZLIB_FILEFUNC_SEEK_SET) != 0)

  00408	f9402e81	 ldr         x1,[x20,#0x58]
  0040c	91404288	 add         x8,x20,#0x10,lsl #0xC
  00410	52800003	 mov         w3,#0
  00414	91404289	 add         x9,x20,#0x10,lsl #0xC
  00418	8b180322	 add         x2,x25,x24
  0041c	aa1403e0	 mov         x0,x20
  00420	f900a519	 str         x25,[x8,#0x148]
  00424	f900ad3a	 str         x26,[x9,#0x158]
  00428	94000000	 bl          call_zseek64
  0042c	12800008	 mov         w8,#-1
  00430	7100001f	 cmp         w0,#0
  00434	1a961100	 cselne      w0,w8,w22
  00438		 |$LN1@LoadCentra|
  00438	a8c57bfd	 ldp         fp,lr,[sp],#0x50
  0043c	f94023fb	 ldr         x27,[sp,#0x40]
  00440	a9436bf9	 ldp         x25,x26,[sp,#0x30]
  00444	a94263f7	 ldp         x23,x24,[sp,#0x20]
  00448	a9415bf5	 ldp         x21,x22,[sp,#0x10]
  0044c	a8c553f3	 ldp         x19,x20,[sp],#0x50
  00450	d65f03c0	 ret

			 ENDP  ; |LoadCentralDirectoryRecord|

; Function compile flags: /Ogtp
; File C:\Users\ws103\Desktop\zlib-1.2.11\contrib\minizip\zip.c

	AREA	|.text$mn|, CODE, ARM64

  00000		 |zipOpen3| PROC

; 850  : {

  00000		 |$LN16|
  00000	a9bc7bfd	 stp         fp,lr,[sp,#-0x40]!
  00004	a90153f3	 stp         x19,x20,[sp,#0x10]
  00008	a9025bf5	 stp         x21,x22,[sp,#0x20]
  0000c	f9001bf7	 str         x23,[sp,#0x30]
  00010	910003fd	 mov         fp,sp
  00014	d28202ef	 mov         x15,#0x1017
  00018	94000000	 bl          __chkstk
  0001c	cb2f73ff	 sub         sp,sp,x15,lsl #4
  00020	aa0003ec	 mov         x12,x0

; 851  :     zip64_internal ziinit;
; 852  :     zip64_internal* zi;
; 853  :     int err=ZIP_OK;
; 854  : 
; 855  :     ziinit.z_filefunc.zseek32_file = NULL;
; 856  :     ziinit.z_filefunc.ztell32_file = NULL;

  00024	a904ffff	 stp         xzr,xzr,[sp,#0x48]
  00028	2a0103f4	 mov         w20,w1
  0002c	aa0203f5	 mov         x21,x2
  00030	52800016	 mov         w22,#0

; 857  :     if (pzlib_filefunc64_32_def==NULL)

  00034	b5000003	 cbnz        x3,|$LN2@zipOpen3|

; 858  :         fill_fopen64_filefunc(&ziinit.z_filefunc.zfile_func64);

  00038	910003e0	 mov         x0,sp
  0003c	94000000	 bl          fill_fopen64_filefunc
  00040	1400000e	 b           |$LN3@zipOpen3|
  00044		 |$LN2@zipOpen3|

; 859  :     else
; 860  :         ziinit.z_filefunc = *pzlib_filefunc64_32_def;

  00044	a9402468	 ldp         x8,x9,[x3]
  00048	910003ed	 mov         x13,sp
  0004c	a9412c6a	 ldp         x10,x11,[x3,#0x10]
  00050	a90025a8	 stp         x8,x9,[x13]
  00054	a9422468	 ldp         x8,x9,[x3,#0x20]
  00058	a9012daa	 stp         x10,x11,[x13,#0x10]
  0005c	a9432c6a	 ldp         x10,x11,[x3,#0x30]
  00060	a90225a8	 stp         x8,x9,[x13,#0x20]
  00064	a9442468	 ldp         x8,x9,[x3,#0x40]
  00068	a9032daa	 stp         x10,x11,[x13,#0x30]
  0006c	f940286a	 ldr         x10,[x3,#0x50]
  00070	a90425a8	 stp         x8,x9,[x13,#0x40]
  00074	f90029aa	 str         x10,[x13,#0x50]
  00078		 |$LN3@zipOpen3|

; 861  : 
; 862  :     ziinit.filestream = ZOPEN64(ziinit.z_filefunc,

  00078	7100029f	 cmp         w20,#0
  0007c	52800169	 mov         w9,#0xB
  00080	528000e8	 mov         w8,#7
  00084	1a880122	 cseleq      w2,w9,w8
  00088	aa0c03e1	 mov         x1,x12
  0008c	910003e0	 mov         x0,sp
  00090	94000000	 bl          call_zopen64
  00094	aa0003f3	 mov         x19,x0
  00098	f9002ff3	 str         x19,[sp,#0x58]

; 863  :                   pathname,
; 864  :                   (append == APPEND_STATUS_CREATE) ?
; 865  :                   (ZLIB_FILEFUNC_MODE_READ | ZLIB_FILEFUNC_MODE_WRITE | ZLIB_FILEFUNC_MODE_CREATE) :
; 866  :                     (ZLIB_FILEFUNC_MODE_READ | ZLIB_FILEFUNC_MODE_WRITE | ZLIB_FILEFUNC_MODE_EXISTING));
; 867  : 
; 868  :     if (ziinit.filestream == NULL)

  0009c	b4000013	 cbz         x19,|$LN14@zipOpen3|

; 869  :         return NULL;
; 870  : 
; 871  :     if (append == APPEND_STATUS_CREATEAFTER)

  000a0	7100069f	 cmp         w20,#1
  000a4	54000001	 bne         |$LN5@zipOpen3|

; 872  :         ZSEEK64(ziinit.z_filefunc,ziinit.filestream,0,SEEK_END);

  000a8	52800043	 mov         w3,#2
  000ac	d2800002	 mov         x2,#0
  000b0	aa1303e1	 mov         x1,x19
  000b4	910003e0	 mov         x0,sp
  000b8	94000000	 bl          call_zseek64
  000bc		 |$LN5@zipOpen3|

; 873  : 
; 874  :     ziinit.begin_pos = ZTELL64(ziinit.z_filefunc,ziinit.filestream);

  000bc	aa1303e1	 mov         x1,x19
  000c0	910003e0	 mov         x0,sp
  000c4	94000000	 bl          call_ztell64

; 875  :     ziinit.in_opened_file_inzip = 0;

  000c8	b90073ff	 str         wzr,[sp,#0x70]
  000cc	d2802911	 mov         xip1,#0x148
  000d0	f2a00031	 movk        xip1,#1,lsl #0x10
  000d4	8b3163f1	 add         xip1,sp,xip1
  000d8	a9007e20	 stp         x0,xzr,[xip1]

; 876  :     ziinit.ci.stream_initialised = 0;
; 877  :     ziinit.number_entry = 0;
; 878  :     ziinit.add_position_when_writing_offset = 0;
; 879  :     init_linkedlist(&(ziinit.central_dir));

  000dc	910183e0	 add         x0,sp,#0x60
  000e0	b900d3ff	 str         wzr,[sp,#0xD0]
  000e4	d2802b11	 mov         xip1,#0x158
  000e8	f2a00031	 movk        xip1,#1,lsl #0x10
  000ec	f8316bff	 str         xzr,[sp,xip1]
  000f0	94000000	 bl          init_linkedlist

; 880  : 
; 881  : 
; 882  : 
; 883  :     zi = (zip64_internal*)ALLOC(sizeof(zip64_internal));

  000f4	90000008	 adrp        x8,__imp_malloc
  000f8	f9400108	 ldr         x8,[x8,PageOffset(__imp_malloc)]
  000fc	d2802d17	 mov         x23,#0x168
  00100	f2a00037	 movk        x23,#1,lsl #0x10
  00104	aa1703e0	 mov         x0,x23
  00108	d63f0100	 blr         x8
  0010c	aa0003f3	 mov         x19,x0

; 884  :     if (zi==NULL)

  00110	b5000013	 cbnz        x19,|$LN6@zipOpen3|

; 885  :     {
; 886  :         ZCLOSE64(ziinit.z_filefunc,ziinit.filestream);

  00114	f9402fe1	 ldr         x1,[sp,#0x58]
  00118	f9401fe0	 ldr         x0,[sp,#0x38]
  0011c	f94017e8	 ldr         x8,[sp,#0x28]
  00120	d63f0100	 blr         x8
  00124		 |$LN14@zipOpen3|

; 917  :     }
; 918  : }

  00124	d2800000	 mov         x0,#0
  00128	1400001f	 b           |$LN10@zipOpen3|
  0012c		 |$LN6@zipOpen3|

; 887  :         return NULL;
; 888  :     }
; 889  : 
; 890  :     /* now we add file in a zipfile */
; 891  : #    ifndef NO_ADDFILEINEXISTINGZIP
; 892  :     ziinit.globalcomment = NULL;

  0012c	d2800000	 mov         x0,#0
  00130	d2802c11	 mov         xip1,#0x160
  00134	f2a00031	 movk        xip1,#1,lsl #0x10
  00138	f8316bff	 str         xzr,[sp,xip1]

; 893  :     if (append == APPEND_STATUS_ADDINZIP)

  0013c	71000a9f	 cmp         w20,#2
  00140	54000001	 bne         |$LN7@zipOpen3|

; 894  :     {
; 895  :       // Read and Cache Central Directory Records
; 896  :       err = LoadCentralDirectoryRecord(&ziinit);

  00144	910003e0	 mov         x0,sp
  00148	94000000	 bl          LoadCentralDirectoryRecord
  0014c	2a0003f6	 mov         w22,w0
  00150	d2802c11	 mov         xip1,#0x160
  00154	f2a00031	 movk        xip1,#1,lsl #0x10
  00158	f8716be0	 ldr         x0,[sp,xip1]
  0015c		 |$LN7@zipOpen3|

; 897  :     }
; 898  : 
; 899  :     if (globalcomment)

  0015c	b4000015	 cbz         x21,|$LN8@zipOpen3|

; 900  :     {
; 901  :       *globalcomment = ziinit.globalcomment;

  00160	f90002a0	 str         x0,[x21]
  00164		 |$LN8@zipOpen3|

; 902  :     }
; 903  : #    endif /* !NO_ADDFILEINEXISTINGZIP*/
; 904  : 
; 905  :     if (err != ZIP_OK)

  00164	34000016	 cbz         w22,|$LN9@zipOpen3|

; 906  :     {
; 907  : #    ifndef NO_ADDFILEINEXISTINGZIP
; 908  :         TRYFREE(ziinit.globalcomment);

  00168	b4000000	 cbz         x0,|$LN11@zipOpen3|
  0016c	90000008	 adrp        x8,__imp_free
  00170	f9400108	 ldr         x8,[x8,PageOffset(__imp_free)]
  00174	d63f0100	 blr         x8
  00178		 |$LN11@zipOpen3|

; 909  : #    endif /* !NO_ADDFILEINEXISTINGZIP*/
; 910  :         TRYFREE(zi);

  00178	90000008	 adrp        x8,__imp_free
  0017c	f9400108	 ldr         x8,[x8,PageOffset(__imp_free)]
  00180	aa1303e0	 mov         x0,x19
  00184	d63f0100	 blr         x8

; 911  :         return NULL;

  00188	d2800000	 mov         x0,#0
  0018c	14000006	 b           |$LN10@zipOpen3|
  00190		 |$LN9@zipOpen3|

; 912  :     }
; 913  :     else
; 914  :     {
; 915  :         *zi = ziinit;

  00190	910003e1	 mov         x1,sp
  00194	aa1703e2	 mov         x2,x23
  00198	aa1303e0	 mov         x0,x19
  0019c	94000000	 bl          memcpy

; 916  :         return (zipFile)zi;

  001a0	aa1303e0	 mov         x0,x19
  001a4		 |$LN10@zipOpen3|
  001a4	910003bf	 mov         sp,fp
  001a8	f9401bf7	 ldr         x23,[sp,#0x30]
  001ac	a9425bf5	 ldp         x21,x22,[sp,#0x20]
  001b0	a94153f3	 ldp         x19,x20,[sp,#0x10]
  001b4	a8c47bfd	 ldp         fp,lr,[sp],#0x40
  001b8	d65f03c0	 ret

			 ENDP  ; |zipOpen3|

; Function compile flags: /Ogtp
; File C:\Users\ws103\Desktop\zlib-1.2.11\contrib\minizip\zip.c

	AREA	|.text$mn|, CODE, ARM64

  00000		 |zipOpen2| PROC

; 921  : {

  00000		 |$LN7|
  00000	a9b97bfd	 stp         fp,lr,[sp,#-0x70]!
  00004	910003fd	 mov         fp,sp
  00008	aa0003ea	 mov         x10,x0
  0000c	2a0103eb	 mov         w11,w1

; 922  :     if (pzlib_filefunc32_def != NULL)

  00010	b4000003	 cbz         x3,|$LN2@zipOpen2|

; 923  :     {
; 924  :         zlib_filefunc64_32_def zlib_filefunc64_32_def_fill;
; 925  :         fill_zlib_filefunc64_32_def_from_filefunc32(&zlib_filefunc64_32_def_fill,pzlib_filefunc32_def);

  00014	aa0303e1	 mov         x1,x3
  00018	910043e0	 add         x0,sp,#0x10
  0001c	94000000	 bl          fill_zlib_filefunc64_32_def_from_filefunc32

; 926  :         return zipOpen3(pathname, append, globalcomment, &zlib_filefunc64_32_def_fill);

  00020	910043e3	 add         x3,sp,#0x10

; 930  : }

  00024	2a0b03e1	 mov         w1,w11
  00028	aa0a03e0	 mov         x0,x10
  0002c	94000000	 bl          zipOpen3
  00030	a8c77bfd	 ldp         fp,lr,[sp],#0x70
  00034	d65f03c0	 ret
  00038		 |$LN2@zipOpen2|

; 927  :     }
; 928  :     else
; 929  :         return zipOpen3(pathname, append, globalcomment, NULL);

  00038	d2800003	 mov         x3,#0

; 930  : }

  0003c	2a0b03e1	 mov         w1,w11
  00040	aa0a03e0	 mov         x0,x10
  00044	94000000	 bl          zipOpen3
  00048	a8c77bfd	 ldp         fp,lr,[sp],#0x70
  0004c	d65f03c0	 ret

			 ENDP  ; |zipOpen2|

; Function compile flags: /Ogtp
; File C:\Users\ws103\Desktop\zlib-1.2.11\contrib\minizip\zip.c

	AREA	|.text$mn|, CODE, ARM64

  00000		 |zipOpen2_64| PROC

; 933  : {

  00000		 |$LN7|
  00000	a9b97bfd	 stp         fp,lr,[sp,#-0x70]!
  00004	910003fd	 mov         fp,sp

; 934  :     if (pzlib_filefunc_def != NULL)

  00008	b4000003	 cbz         x3,|$LN2@zipOpen2_6|

; 935  :     {
; 936  :         zlib_filefunc64_32_def zlib_filefunc64_32_def_fill;
; 937  :         zlib_filefunc64_32_def_fill.zfile_func64 = *pzlib_filefunc_def;

  0000c	a9402468	 ldp         x8,x9,[x3]
  00010	910043ec	 add         x12,sp,#0x10
  00014	a9412c6a	 ldp         x10,x11,[x3,#0x10]
  00018	a9002588	 stp         x8,x9,[x12]
  0001c	a9422468	 ldp         x8,x9,[x3,#0x20]
  00020	a9012d8a	 stp         x10,x11,[x12,#0x10]
  00024	a9432c6a	 ldp         x10,x11,[x3,#0x30]

; 938  :         zlib_filefunc64_32_def_fill.ztell32_file = NULL;
; 939  :         zlib_filefunc64_32_def_fill.zseek32_file = NULL;
; 940  :         return zipOpen3(pathname, append, globalcomment, &zlib_filefunc64_32_def_fill);

  00028	910043e3	 add         x3,sp,#0x10
  0002c	a9022588	 stp         x8,x9,[x12,#0x20]
  00030	a9032d8a	 stp         x10,x11,[x12,#0x30]
  00034	a905ffff	 stp         xzr,xzr,[sp,#0x58]

; 944  : }

  00038	94000000	 bl          zipOpen3
  0003c	a8c77bfd	 ldp         fp,lr,[sp],#0x70
  00040	d65f03c0	 ret
  00044		 |$LN2@zipOpen2_6|

; 941  :     }
; 942  :     else
; 943  :         return zipOpen3(pathname, append, globalcomment, NULL);

  00044	d2800003	 mov         x3,#0

; 944  : }

  00048	94000000	 bl          zipOpen3
  0004c	a8c77bfd	 ldp         fp,lr,[sp],#0x70
  00050	d65f03c0	 ret

			 ENDP  ; |zipOpen2_64|

; Function compile flags: /Ogtp
; File C:\Users\ws103\Desktop\zlib-1.2.11\contrib\minizip\zip.c

	AREA	|.text$mn|, CODE, ARM64

  00000		 |zipOpen| PROC

; 950  :     return zipOpen3((const void*)pathname,append,NULL,NULL);

  00000	d2800003	 mov         x3,#0
  00004	d2800002	 mov         x2,#0
  00008	14000000	 b           zipOpen3

			 ENDP  ; |zipOpen|

; Function compile flags: /Ogtp
; File C:\Users\ws103\Desktop\zlib-1.2.11\contrib\minizip\zip.c

	AREA	|.text$mn|, CODE, ARM64

  00000		 |zipOpen64| PROC

; 955  :     return zipOpen3(pathname,append,NULL,NULL);

  00000	d2800003	 mov         x3,#0
  00004	d2800002	 mov         x2,#0
  00008	14000000	 b           zipOpen3

			 ENDP  ; |zipOpen64|

; Function compile flags: /Ogtp
; File C:\Users\ws103\Desktop\zlib-1.2.11\contrib\minizip\zip.c

	AREA	|.text$mn|, CODE, ARM64

  00000		 |Write_LocalFileHeader| PROC

; 959  : {

  00000		 |$LN34|
  00000	a9bc53f3	 stp         x19,x20,[sp,#-0x40]!
  00004	a9015bf5	 stp         x21,x22,[sp,#0x10]
  00008	a90263f7	 stp         x23,x24,[sp,#0x20]
  0000c	f9001bf9	 str         x25,[sp,#0x30]
  00010	a9bf7bfd	 stp         fp,lr,[sp,#-0x10]!
  00014	910003fd	 mov         fp,sp
  00018	aa0103f8	 mov         x24,x1

; 960  :   /* write the local header */
; 961  :   int err;
; 962  :   uInt size_filename = (uInt)strlen(filename);

  0001c	39c00308	 ldrsb       w8,[x24]
  00020	aa1803e9	 mov         x9,x24
  00024	aa0003f3	 mov         x19,x0
  00028	2a0203f5	 mov         w21,w2
  0002c	aa0303f9	 mov         x25,x3
  00030	34000008	 cbz         w8,|$LN24@Write_Loca|
  00034		 |$LL25@Write_Loca|
  00034	38c01d28	 ldrsb       w8,[x9,#1]!
  00038	35000008	 cbnz        w8,|$LL25@Write_Loca|
  0003c		 |$LN24@Write_Loca|

; 963  :   uInt size_extrafield = size_extrafield_local;
; 964  : 
; 965  :   err = zip64local_putValue(&zi->z_filefunc,zi->filestream,(uLong)LOCALHEADERMAGIC, 4);

  0003c	f9402e61	 ldr         x1,[x19,#0x58]
  00040	cb180128	 sub         x8,x9,x24
  00044	52800083	 mov         w3,#4
  00048	d2896a02	 mov         x2,#0x4B50
  0004c	f2a08062	 movk        x2,#0x403,lsl #0x10
  00050	aa1303e0	 mov         x0,x19
  00054	d3407d16	 uxtw        x22,w8
  00058	94000000	 bl          zip64local_putValue
  0005c	2a0003f4	 mov         w20,w0

; 966  : 
; 967  :   if (err==ZIP_OK)

  00060	35000014	 cbnz        w20,|$LN15@Write_Loca|

; 968  :   {
; 969  :     if(zi->ci.zip64)

  00064	91404277	 add         x23,x19,#0x10,lsl #0xC

; 970  :       err = zip64local_putValue(&zi->z_filefunc,zi->filestream,(uLong)45,2);/* version needed to extract */
; 971  :     else
; 972  :       err = zip64local_putValue(&zi->z_filefunc,zi->filestream,(uLong)20,2);/* version needed to extract */
; 973  :   }
; 974  : 
; 975  :   if (err==ZIP_OK)

  00068	f9402e61	 ldr         x1,[x19,#0x58]
  0006c	d280028a	 mov         x10,#0x14
  00070	d28005a9	 mov         x9,#0x2D
  00074	b9410ee8	 ldr         w8,[x23,#0x10C]
  00078	52800043	 mov         w3,#2
  0007c	aa1303e0	 mov         x0,x19
  00080	7100011f	 cmp         w8,#0
  00084	9a890142	 cseleq      x2,x10,x9
  00088	94000000	 bl          zip64local_putValue
  0008c	2a0003f4	 mov         w20,w0
  00090	35000014	 cbnz        w20,|$LN15@Write_Loca|

; 976  :     err = zip64local_putValue(&zi->z_filefunc,zi->filestream,(uLong)zi->ci.flag,2);

  00094	b940f662	 ldr         w2,[x19,#0xF4]
  00098	52800043	 mov         w3,#2
  0009c	f9402e61	 ldr         x1,[x19,#0x58]
  000a0	aa1303e0	 mov         x0,x19
  000a4	94000000	 bl          zip64local_putValue
  000a8	2a0003f4	 mov         w20,w0

; 977  : 
; 978  :   if (err==ZIP_OK)

  000ac	35000014	 cbnz        w20,|$LN15@Write_Loca|

; 979  :     err = zip64local_putValue(&zi->z_filefunc,zi->filestream,(uLong)zi->ci.method,2);

  000b0	b940fa62	 ldr         w2,[x19,#0xF8]
  000b4	52800043	 mov         w3,#2
  000b8	f9402e61	 ldr         x1,[x19,#0x58]
  000bc	aa1303e0	 mov         x0,x19
  000c0	94000000	 bl          zip64local_putValue
  000c4	2a0003f4	 mov         w20,w0

; 980  : 
; 981  :   if (err==ZIP_OK)

  000c8	35000014	 cbnz        w20,|$LN15@Write_Loca|

; 982  :     err = zip64local_putValue(&zi->z_filefunc,zi->filestream,(uLong)zi->ci.dosDate,4);

  000cc	91404268	 add         x8,x19,#0x10,lsl #0xC
  000d0	f9402e61	 ldr         x1,[x19,#0x58]
  000d4	52800083	 mov         w3,#4
  000d8	aa1303e0	 mov         x0,x19
  000dc	b9410102	 ldr         w2,[x8,#0x100]
  000e0	94000000	 bl          zip64local_putValue
  000e4	2a0003f4	 mov         w20,w0

; 983  : 
; 984  :   // CRC / Compressed size / Uncompressed size will be filled in later and rewritten later
; 985  :   if (err==ZIP_OK)

  000e8	35000014	 cbnz        w20,|$LN15@Write_Loca|

; 986  :     err = zip64local_putValue(&zi->z_filefunc,zi->filestream,(uLong)0,4); /* crc 32, unknown */

  000ec	f9402e61	 ldr         x1,[x19,#0x58]
  000f0	52800083	 mov         w3,#4
  000f4	d2800002	 mov         x2,#0
  000f8	aa1303e0	 mov         x0,x19
  000fc	94000000	 bl          zip64local_putValue
  00100	2a0003f4	 mov         w20,w0

; 987  :   if (err==ZIP_OK)

  00104	35000014	 cbnz        w20,|$LN15@Write_Loca|

; 988  :   {
; 989  :     if(zi->ci.zip64)
; 990  :       err = zip64local_putValue(&zi->z_filefunc,zi->filestream,(uLong)0xFFFFFFFF,4); /* compressed size, unknown */
; 991  :     else
; 992  :       err = zip64local_putValue(&zi->z_filefunc,zi->filestream,(uLong)0,4); /* compressed size, unknown */
; 993  :   }
; 994  :   if (err==ZIP_OK)

  00108	b9410ee8	 ldr         w8,[x23,#0x10C]
  0010c	b2407fe9	 mov         x9,#0xFFFFFFFF
  00110	f9402e61	 ldr         x1,[x19,#0x58]
  00114	52800083	 mov         w3,#4
  00118	aa1303e0	 mov         x0,x19
  0011c	7100011f	 cmp         w8,#0
  00120	9a8903e2	 cseleq      x2,xzr,x9
  00124	94000000	 bl          zip64local_putValue
  00128	2a0003f4	 mov         w20,w0
  0012c	35000014	 cbnz        w20,|$LN15@Write_Loca|

; 995  :   {
; 996  :     if(zi->ci.zip64)
; 997  :       err = zip64local_putValue(&zi->z_filefunc,zi->filestream,(uLong)0xFFFFFFFF,4); /* uncompressed size, unknown */
; 998  :     else
; 999  :       err = zip64local_putValue(&zi->z_filefunc,zi->filestream,(uLong)0,4); /* uncompressed size, unknown */
; 1000 :   }
; 1001 : 
; 1002 :   if (err==ZIP_OK)

  00130	b9410ee8	 ldr         w8,[x23,#0x10C]
  00134	b2407fe9	 mov         x9,#0xFFFFFFFF
  00138	f9402e61	 ldr         x1,[x19,#0x58]
  0013c	52800083	 mov         w3,#4
  00140	aa1303e0	 mov         x0,x19
  00144	7100011f	 cmp         w8,#0
  00148	9a8903e2	 cseleq      x2,xzr,x9
  0014c	94000000	 bl          zip64local_putValue
  00150	2a0003f4	 mov         w20,w0
  00154	35000014	 cbnz        w20,|$LN15@Write_Loca|

; 1003 :     err = zip64local_putValue(&zi->z_filefunc,zi->filestream,(uLong)size_filename,2);

  00158	f9402e61	 ldr         x1,[x19,#0x58]
  0015c	52800043	 mov         w3,#2
  00160	aa1603e2	 mov         x2,x22
  00164	aa1303e0	 mov         x0,x19
  00168	94000000	 bl          zip64local_putValue
  0016c	2a0003f4	 mov         w20,w0
  00170		 |$LN15@Write_Loca|

; 1004 : 
; 1005 :   if(zi->ci.zip64)

  00170	91404277	 add         x23,x19,#0x10,lsl #0xC
  00174	b9410ee9	 ldr         w9,[x23,#0x10C]

; 1006 :   {
; 1007 :     size_extrafield += 20;
; 1008 :   }
; 1009 : 
; 1010 :   if (err==ZIP_OK)

  00178	35000014	 cbnz        w20,|$LN22@Write_Loca|

; 1011 :     err = zip64local_putValue(&zi->z_filefunc,zi->filestream,(uLong)size_extrafield,2);

  0017c	f9402e61	 ldr         x1,[x19,#0x58]
  00180	110052a8	 add         w8,w21,#0x14
  00184	7100013f	 cmp         w9,#0
  00188	1a8802a2	 cseleq      w2,w21,w8
  0018c	52800043	 mov         w3,#2
  00190	aa1303e0	 mov         x0,x19
  00194	94000000	 bl          zip64local_putValue
  00198	2a0003f4	 mov         w20,w0

; 1012 : 
; 1013 :   if ((err==ZIP_OK) && (size_filename > 0))

  0019c	35000014	 cbnz        w20,|$LN22@Write_Loca|
  001a0	34000016	 cbz         w22,|$LN30@Write_Loca|

; 1014 :   {
; 1015 :     if (ZWRITE64(zi->z_filefunc,zi->filestream,filename,size_filename)!=size_filename)

  001a4	710002df	 cmp         w22,#0
  001a8	1a9f82d6	 cselhi      w22,w22,wzr
  001ac	d503229f	 csdb
  001b0	f9402e61	 ldr         x1,[x19,#0x58]
  001b4	f9401e60	 ldr         x0,[x19,#0x38]
  001b8	2a1603e3	 mov         w3,w22
  001bc	f9400a68	 ldr         x8,[x19,#0x10]
  001c0	aa1803e2	 mov         x2,x24
  001c4	d63f0100	 blr         x8
  001c8	6b16001f	 cmp         w0,w22
  001cc	54000000	 beq         |$LN30@Write_Loca|
  001d0		 |$LN32@Write_Loca|

; 1042 :   }
; 1043 : 
; 1044 :   return err;

  001d0	12800014	 mov         w20,#-1
  001d4	14000029	 b           |$LN22@Write_Loca|
  001d8		 |$LN30@Write_Loca|

; 1016 :       err = ZIP_ERRNO;
; 1017 :   }
; 1018 : 
; 1019 :   if ((err==ZIP_OK) && (size_extrafield_local > 0))

  001d8	34000015	 cbz         w21,|$LN31@Write_Loca|

; 1020 :   {
; 1021 :     if (ZWRITE64(zi->z_filefunc, zi->filestream, extrafield_local, size_extrafield_local) != size_extrafield_local)

  001dc	710002bf	 cmp         w21,#0
  001e0	1a9f82b5	 cselhi      w21,w21,wzr
  001e4	d503229f	 csdb
  001e8	f9402e61	 ldr         x1,[x19,#0x58]
  001ec	f9401e60	 ldr         x0,[x19,#0x38]
  001f0	2a1503e3	 mov         w3,w21
  001f4	f9400a68	 ldr         x8,[x19,#0x10]
  001f8	aa1903e2	 mov         x2,x25
  001fc	d63f0100	 blr         x8
  00200	6b15001f	 cmp         w0,w21
  00204	54000001	 bne         |$LN32@Write_Loca|
  00208		 |$LN31@Write_Loca|

; 1022 :       err = ZIP_ERRNO;
; 1023 :   }
; 1024 : 
; 1025 : 
; 1026 :   if ((err==ZIP_OK) && (zi->ci.zip64))

  00208	b9410ee8	 ldr         w8,[x23,#0x10C]
  0020c	34000008	 cbz         w8,|$LN22@Write_Loca|

; 1027 :   {
; 1028 :       // write the Zip64 extended info
; 1029 :       short HeaderID = 1;
; 1030 :       short DataSize = 16;
; 1031 :       ZPOS64_T CompressedSize = 0;
; 1032 :       ZPOS64_T UncompressedSize = 0;
; 1033 : 
; 1034 :       // Remember position of Zip64 extended info for the local file header. (needed when we update size after done with file)
; 1035 :       zi->ci.pos_zip64extrainfo = ZTELL64(zi->z_filefunc,zi->filestream);

  00210	f9402e61	 ldr         x1,[x19,#0x58]
  00214	aa1303e0	 mov         x0,x19
  00218	94000000	 bl          call_ztell64
  0021c	91404268	 add         x8,x19,#0x10,lsl #0xC

; 1036 : 
; 1037 :       err = zip64local_putValue(&zi->z_filefunc, zi->filestream, (short)HeaderID,2);

  00220	f9402e61	 ldr         x1,[x19,#0x58]
  00224	52800043	 mov         w3,#2
  00228	f9008900	 str         x0,[x8,#0x110]
  0022c	d2800022	 mov         x2,#1
  00230	aa1303e0	 mov         x0,x19
  00234	94000000	 bl          zip64local_putValue

; 1038 :       err = zip64local_putValue(&zi->z_filefunc, zi->filestream, (short)DataSize,2);

  00238	f9402e61	 ldr         x1,[x19,#0x58]
  0023c	52800043	 mov         w3,#2
  00240	d2800202	 mov         x2,#0x10
  00244	aa1303e0	 mov         x0,x19
  00248	94000000	 bl          zip64local_putValue

; 1039 : 
; 1040 :       err = zip64local_putValue(&zi->z_filefunc, zi->filestream, (ZPOS64_T)UncompressedSize,8);

  0024c	f9402e61	 ldr         x1,[x19,#0x58]
  00250	52800103	 mov         w3,#8
  00254	d2800002	 mov         x2,#0
  00258	aa1303e0	 mov         x0,x19
  0025c	94000000	 bl          zip64local_putValue

; 1041 :       err = zip64local_putValue(&zi->z_filefunc, zi->filestream, (ZPOS64_T)CompressedSize,8);

  00260	f9402e61	 ldr         x1,[x19,#0x58]
  00264	52800103	 mov         w3,#8
  00268	d2800002	 mov         x2,#0
  0026c	aa1303e0	 mov         x0,x19
  00270	94000000	 bl          zip64local_putValue
  00274	2a0003f4	 mov         w20,w0
  00278		 |$LN22@Write_Loca|

; 1042 :   }
; 1043 : 
; 1044 :   return err;

  00278	2a1403e0	 mov         w0,w20
  0027c	a8c17bfd	 ldp         fp,lr,[sp],#0x10
  00280	f9401bf9	 ldr         x25,[sp,#0x30]
  00284	a94263f7	 ldp         x23,x24,[sp,#0x20]
  00288	a9415bf5	 ldp         x21,x22,[sp,#0x10]
  0028c	a8c453f3	 ldp         x19,x20,[sp],#0x40
  00290	d65f03c0	 ret

			 ENDP  ; |Write_LocalFileHeader|

; Function compile flags: /Ogtp
; File C:\Users\ws103\Desktop\zlib-1.2.11\contrib\minizip\zip.c

	AREA	|.text$mn|, CODE, ARM64

  00000		 |zipOpenNewFileInZip4_64| PROC

; 1062 : {

  00000		 |$LN81|
  00000	a9bb53f3	 stp         x19,x20,[sp,#-0x50]!
  00004	a9015bf5	 stp         x21,x22,[sp,#0x10]
  00008	a90263f7	 stp         x23,x24,[sp,#0x20]
  0000c	a9036bf9	 stp         x25,x26,[sp,#0x30]
  00010	f90023fb	 str         x27,[sp,#0x40]
  00014	a9bd7bfd	 stp         fp,lr,[sp,#-0x30]!
  00018	910003fd	 mov         fp,sp
  0001c	aa0003f4	 mov         x20,x0
  00020	f9000fe3	 str         x3,[sp,#0x18]
  00024	aa0103f3	 mov         x19,x1
  00028	b90017e4	 str         w4,[sp,#0x14]
  0002c	aa0203f9	 mov         x25,x2
  00030	aa0503fb	 mov         x27,x5
  00034	d3407cd8	 uxtw        x24,w6
  00038	aa0703f7	 mov         x23,x7

; 1063 :     zip64_internal* zi;
; 1064 :     uInt size_filename;
; 1065 :     uInt size_comment;
; 1066 :     uInt i;
; 1067 :     int err = ZIP_OK;
; 1068 : 
; 1069 : #    ifdef NOCRYPT
; 1070 :     (crcForCrypting);
; 1071 :     if (password != NULL)
; 1072 :         return ZIP_PARAMERROR;
; 1073 : #    endif
; 1074 : 
; 1075 :     if (file == NULL)

  0003c	b4000014	 cbz         x20,|$LN76@zipOpenNew|

; 1076 :         return ZIP_PARAMERROR;
; 1077 : 
; 1078 : #ifdef HAVE_BZIP2
; 1079 :     if ((method!=0) && (method!=Z_DEFLATED) && (method!=Z_BZIP2ED))
; 1080 :       return ZIP_PARAMERROR;
; 1081 : #else
; 1082 :     if ((method!=0) && (method!=Z_DEFLATED))

  00040	b94083ef	 ldr         w15,[sp,#0x80]
  00044	b90013ef	 str         w15,[sp,#0x10]
  00048	721c79ff	 tst         w15,#0xFFFFFFF7
  0004c	54000001	 bne         |$LN76@zipOpenNew|

; 1084 : #endif
; 1085 : 
; 1086 :     zi = (zip64_internal*)file;
; 1087 : 
; 1088 :     if (zi->in_opened_file_inzip == 1)

  00050	b9407288	 ldr         w8,[x20,#0x70]
  00054	7100051f	 cmp         w8,#1
  00058	54000001	 bne         |$LN14@zipOpenNew|

; 1089 :     {
; 1090 :         err = zipCloseFileInZip (file);

  0005c	94000000	 bl          zipCloseFileInZip

; 1091 :         if (err != ZIP_OK)

  00060	35000000	 cbnz        w0,|$LN1@zipOpenNew|
  00064	b94013ef	 ldr         w15,[sp,#0x10]
  00068		 |$LN14@zipOpenNew|

; 1092 :             return err;
; 1093 :     }
; 1094 : 
; 1095 :     if (filename==NULL)
; 1096 :         filename="-";
; 1097 : 
; 1098 :     if (comment==NULL)

  00068	90000008	 adrp        x8,|??_C@_01JOAMLHOP@?9@|
  0006c	91000108	 add         x8,x8,PageOffset(|??_C@_01JOAMLHOP@?9@|)
  00070	f100027f	 cmp         x19,#0
  00074	9a881273	 cselne      x19,x19,x8
  00078	b5000017	 cbnz        x23,|$LN16@zipOpenNew|

; 1099 :         size_comment = 0;

  0007c	52800015	 mov         w21,#0
  00080	14000007	 b           |$LN17@zipOpenNew|
  00084		 |$LN16@zipOpenNew|

; 1100 :     else
; 1101 :         size_comment = (uInt)strlen(comment);

  00084	39c002e8	 ldrsb       w8,[x23]
  00088	aa1703e9	 mov         x9,x23
  0008c	34000008	 cbz         w8,|$LN44@zipOpenNew|
  00090		 |$LL45@zipOpenNew|
  00090	38c01d28	 ldrsb       w8,[x9,#1]!
  00094	35000008	 cbnz        w8,|$LL45@zipOpenNew|
  00098		 |$LN44@zipOpenNew|
  00098	cb170135	 sub         x21,x9,x23
  0009c		 |$LN17@zipOpenNew|

; 1102 : 
; 1103 :     size_filename = (uInt)strlen(filename);

  0009c	aa1303e9	 mov         x9,x19
  000a0	39c00128	 ldrsb       w8,[x9]
  000a4	34000008	 cbz         w8,|$LN46@zipOpenNew|
  000a8		 |$LL47@zipOpenNew|
  000a8	38c01d28	 ldrsb       w8,[x9,#1]!
  000ac	35000008	 cbnz        w8,|$LL47@zipOpenNew|
  000b0		 |$LN46@zipOpenNew|
  000b0	cb130128	 sub         x8,x9,x19
  000b4	9140428e	 add         x14,x20,#0x10,lsl #0xC
  000b8	d3407d16	 uxtw        x22,w8

; 1104 : 
; 1105 :     if (zipfi == NULL)

  000bc	b5000019	 cbnz        x25,|$LN18@zipOpenNew|

; 1106 :         zi->ci.dosDate = 0;

  000c0	52800000	 mov         w0,#0
  000c4	14000005	 b           |$LN21@zipOpenNew|
  000c8		 |$LN18@zipOpenNew|

; 1107 :     else
; 1108 :     {
; 1109 :         if (zipfi->dosDate != 0)

  000c8	b9401b20	 ldr         w0,[x25,#0x18]
  000cc	35000000	 cbnz        w0,|$LN21@zipOpenNew|

; 1110 :             zi->ci.dosDate = zipfi->dosDate;
; 1111 :         else
; 1112 :           zi->ci.dosDate = zip64local_TmzDateToDosDate(&zipfi->tmz_date);

  000d0	aa1903e0	 mov         x0,x25
  000d4	94000000	 bl          zip64local_TmzDateToDosDate
  000d8		 |$LN21@zipOpenNew|

; 1113 :     }
; 1114 : 
; 1115 :     zi->ci.flag = flagBase;

  000d8	b940cbe8	 ldr         w8,[sp,#0xC8]
  000dc	b90101c0	 str         w0,[x14,#0x100]

; 1116 :     if ((level==8) || (level==9))

  000e0	b9408bfa	 ldr         w26,[sp,#0x88]
  000e4	b900f688	 str         w8,[x20,#0xF4]
  000e8	7100235f	 cmp         w26,#8
  000ec	54000000	 beq         |$LN23@zipOpenNew|
  000f0	7100275f	 cmp         w26,#9
  000f4	54000001	 bne         |$LN22@zipOpenNew|
  000f8		 |$LN23@zipOpenNew|

; 1117 :       zi->ci.flag |= 2;

  000f8	321f0108	 orr         w8,w8,#2
  000fc	b900f688	 str         w8,[x20,#0xF4]
  00100		 |$LN22@zipOpenNew|

; 1118 :     if (level==2)

  00100	71000b5f	 cmp         w26,#2
  00104	54000001	 bne         |$LN24@zipOpenNew|

; 1119 :       zi->ci.flag |= 4;

  00108	321e0108	 orr         w8,w8,#4
  0010c	14000004	 b           |$LN79@zipOpenNew|
  00110		 |$LN24@zipOpenNew|

; 1120 :     if (level==1)

  00110	7100075f	 cmp         w26,#1
  00114	54000001	 bne         |$LN25@zipOpenNew|

; 1121 :       zi->ci.flag |= 6;

  00118	321f0508	 orr         w8,w8,#6
  0011c		 |$LN79@zipOpenNew|

; 1122 :     if (password != NULL)

  0011c	b900f688	 str         w8,[x20,#0xF4]
  00120		 |$LN25@zipOpenNew|
  00120	f9405be9	 ldr         x9,[sp,#0xB0]
  00124	b4000009	 cbz         x9,|$LN26@zipOpenNew|

; 1123 :       zi->ci.flag |= 1;

  00128	32000108	 orr         w8,w8,#1
  0012c	b900f688	 str         w8,[x20,#0xF4]
  00130		 |$LN26@zipOpenNew|

; 1124 : 
; 1125 :     zi->ci.crc32 = 0;

  00130	91404288	 add         x8,x20,#0x10,lsl #0xC

; 1126 :     zi->ci.method = method;
; 1127 :     zi->ci.encrypt = 0;
; 1128 :     zi->ci.stream_initialised = 0;
; 1129 :     zi->ci.pos_in_buffered_data = 0;
; 1130 :     zi->ci.raw = raw;
; 1131 :     zi->ci.pos_local_header = ZTELL64(zi->z_filefunc,zi->filestream);

  00134	f9402e81	 ldr         x1,[x20,#0x58]
  00138	aa1403e0	 mov         x0,x20
  0013c	b900fa8f	 str         w15,[x20,#0xF8]
  00140	b901051f	 str         wzr,[x8,#0x104]
  00144	91404288	 add         x8,x20,#0x10,lsl #0xC
  00148	f9006a9f	 str         xzr,[x20,#0xD0]
  0014c	b901091f	 str         wzr,[x8,#0x108]
  00150	b94093e8	 ldr         w8,[sp,#0x90]
  00154	b900fe88	 str         w8,[x20,#0xFC]
  00158	94000000	 bl          call_ztell64

; 1132 : 
; 1133 :     zi->ci.size_centralheader = SIZECENTRALHEADER + size_filename + size_extrafield_global + size_comment;

  0015c	0b1502c8	 add         w8,w22,w21
  00160	0b180109	 add         w9,w8,w24
  00164	f9006e80	 str         x0,[x20,#0xD8]
  00168	1100b92a	 add         w10,w9,#0x2E

; 1134 :     zi->ci.size_centralExtraFree = 32; // Extra space we have reserved in case we need to add ZIP64 extra info data
; 1135 : 
; 1136 :     zi->ci.central_header = (char*)ALLOC((uInt)zi->ci.size_centralheader + zi->ci.size_centralExtraFree);

  0016c	90000009	 adrp        x9,__imp_malloc
  00170	f9400129	 ldr         x9,[x9,PageOffset(__imp_malloc)]
  00174	b900ee8a	 str         w10,[x20,#0xEC]
  00178	52800408	 mov         w8,#0x20
  0017c	11008140	 add         w0,w10,#0x20
  00180	b900f288	 str         w8,[x20,#0xF0]
  00184	d63f0120	 blr         x9

; 1137 : 
; 1138 :     zi->ci.size_centralExtra = size_extrafield_global;
; 1139 :     zip64local_putValue_inmemory(zi->ci.central_header,(uLong)CENTRALHEADERMAGIC,4);

  00188	52800082	 mov         w2,#4
  0018c	b900ea98	 str         w24,[x20,#0xE8]
  00190	d2896a01	 mov         x1,#0x4B50
  00194	f2a04021	 movk        x1,#0x201,lsl #0x10
  00198	f9007280	 str         x0,[x20,#0xE0]
  0019c	94000000	 bl          zip64local_putValue_inmemory

; 1140 :     /* version info */
; 1141 :     zip64local_putValue_inmemory(zi->ci.central_header+4,(uLong)versionMadeBy,2);

  001a0	f9407288	 ldr         x8,[x20,#0xE0]
  001a4	b940c3e1	 ldr         w1,[sp,#0xC0]
  001a8	52800042	 mov         w2,#2
  001ac	91001100	 add         x0,x8,#4
  001b0	94000000	 bl          zip64local_putValue_inmemory

; 1142 :     zip64local_putValue_inmemory(zi->ci.central_header+6,(uLong)20,2);

  001b4	f9407288	 ldr         x8,[x20,#0xE0]
  001b8	52800042	 mov         w2,#2
  001bc	d2800281	 mov         x1,#0x14
  001c0	91001900	 add         x0,x8,#6
  001c4	94000000	 bl          zip64local_putValue_inmemory

; 1143 :     zip64local_putValue_inmemory(zi->ci.central_header+8,(uLong)zi->ci.flag,2);

  001c8	f9407288	 ldr         x8,[x20,#0xE0]
  001cc	52800042	 mov         w2,#2
  001d0	b940f681	 ldr         w1,[x20,#0xF4]
  001d4	91002100	 add         x0,x8,#8
  001d8	94000000	 bl          zip64local_putValue_inmemory

; 1144 :     zip64local_putValue_inmemory(zi->ci.central_header+10,(uLong)zi->ci.method,2);

  001dc	f9407288	 ldr         x8,[x20,#0xE0]
  001e0	52800042	 mov         w2,#2
  001e4	b940fa81	 ldr         w1,[x20,#0xF8]
  001e8	91002900	 add         x0,x8,#0xA
  001ec	94000000	 bl          zip64local_putValue_inmemory

; 1145 :     zip64local_putValue_inmemory(zi->ci.central_header+12,(uLong)zi->ci.dosDate,4);

  001f0	91404288	 add         x8,x20,#0x10,lsl #0xC
  001f4	52800082	 mov         w2,#4
  001f8	b9410101	 ldr         w1,[x8,#0x100]
  001fc	f9407288	 ldr         x8,[x20,#0xE0]
  00200	91003100	 add         x0,x8,#0xC
  00204	94000000	 bl          zip64local_putValue_inmemory

; 1146 :     zip64local_putValue_inmemory(zi->ci.central_header+16,(uLong)0,4); /*crc*/

  00208	f9407288	 ldr         x8,[x20,#0xE0]
  0020c	52800082	 mov         w2,#4
  00210	d2800001	 mov         x1,#0
  00214	91004100	 add         x0,x8,#0x10
  00218	94000000	 bl          zip64local_putValue_inmemory

; 1147 :     zip64local_putValue_inmemory(zi->ci.central_header+20,(uLong)0,4); /*compr size*/

  0021c	f9407288	 ldr         x8,[x20,#0xE0]
  00220	52800082	 mov         w2,#4
  00224	d2800001	 mov         x1,#0
  00228	91005100	 add         x0,x8,#0x14
  0022c	94000000	 bl          zip64local_putValue_inmemory

; 1148 :     zip64local_putValue_inmemory(zi->ci.central_header+24,(uLong)0,4); /*uncompr size*/

  00230	f9407288	 ldr         x8,[x20,#0xE0]
  00234	52800082	 mov         w2,#4
  00238	d2800001	 mov         x1,#0
  0023c	91006100	 add         x0,x8,#0x18
  00240	94000000	 bl          zip64local_putValue_inmemory

; 1149 :     zip64local_putValue_inmemory(zi->ci.central_header+28,(uLong)size_filename,2);

  00244	f9407288	 ldr         x8,[x20,#0xE0]
  00248	52800042	 mov         w2,#2
  0024c	aa1603e1	 mov         x1,x22
  00250	91007100	 add         x0,x8,#0x1C
  00254	94000000	 bl          zip64local_putValue_inmemory

; 1150 :     zip64local_putValue_inmemory(zi->ci.central_header+30,(uLong)size_extrafield_global,2);

  00258	f9407288	 ldr         x8,[x20,#0xE0]
  0025c	52800042	 mov         w2,#2
  00260	aa1803e1	 mov         x1,x24
  00264	91007900	 add         x0,x8,#0x1E
  00268	94000000	 bl          zip64local_putValue_inmemory

; 1151 :     zip64local_putValue_inmemory(zi->ci.central_header+32,(uLong)size_comment,2);

  0026c	f9407288	 ldr         x8,[x20,#0xE0]
  00270	52800042	 mov         w2,#2
  00274	d3407ea1	 uxtw        x1,w21
  00278	91008100	 add         x0,x8,#0x20
  0027c	94000000	 bl          zip64local_putValue_inmemory

; 1152 :     zip64local_putValue_inmemory(zi->ci.central_header+34,(uLong)0,2); /*disk nm start*/

  00280	f9407288	 ldr         x8,[x20,#0xE0]
  00284	52800042	 mov         w2,#2
  00288	d2800001	 mov         x1,#0
  0028c	91008900	 add         x0,x8,#0x22
  00290	94000000	 bl          zip64local_putValue_inmemory

; 1153 : 
; 1154 :     if (zipfi==NULL)

  00294	f9407288	 ldr         x8,[x20,#0xE0]
  00298	52800042	 mov         w2,#2
  0029c	91009100	 add         x0,x8,#0x24
  002a0	b5000019	 cbnz        x25,|$LN27@zipOpenNew|

; 1155 :         zip64local_putValue_inmemory(zi->ci.central_header+36,(uLong)0,2);

  002a4	d2800001	 mov         x1,#0
  002a8	94000000	 bl          zip64local_putValue_inmemory

; 1158 : 
; 1159 :     if (zipfi==NULL)
; 1160 :         zip64local_putValue_inmemory(zi->ci.central_header+38,(uLong)0,4);

  002ac	d2800001	 mov         x1,#0
  002b0	14000004	 b           |$LN30@zipOpenNew|
  002b4		 |$LN27@zipOpenNew|

; 1156 :     else
; 1157 :         zip64local_putValue_inmemory(zi->ci.central_header+36,(uLong)zipfi->internal_fa,2);

  002b4	b9401f21	 ldr         w1,[x25,#0x1C]
  002b8	94000000	 bl          zip64local_putValue_inmemory

; 1161 :     else
; 1162 :         zip64local_putValue_inmemory(zi->ci.central_header+38,(uLong)zipfi->external_fa,4);

  002bc	b9402321	 ldr         w1,[x25,#0x20]
  002c0		 |$LN30@zipOpenNew|

; 1163 : 
; 1164 :     if(zi->ci.pos_local_header >= 0xffffffff)

  002c0	f9407288	 ldr         x8,[x20,#0xE0]
  002c4	52800082	 mov         w2,#4
  002c8	91009900	 add         x0,x8,#0x26
  002cc	94000000	 bl          zip64local_putValue_inmemory
  002d0	a94dae88	 ldp         x8,x11,[x20,#0xD8]
  002d4	b2407fe9	 mov         x9,#0xFFFFFFFF
  002d8	eb09011f	 cmp         x8,x9
  002dc	54000003	 blo         |$LN31@zipOpenNew|

; 1165 :       zip64local_putValue_inmemory(zi->ci.central_header+42,(uLong)0xffffffff,4);

  002e0	b2407fe1	 mov         x1,#0xFFFFFFFF
  002e4	14000005	 b           |$LN32@zipOpenNew|
  002e8		 |$LN31@zipOpenNew|

; 1166 :     else
; 1167 :       zip64local_putValue_inmemory(zi->ci.central_header+42,(uLong)zi->ci.pos_local_header - zi->add_position_when_writing_offset,4);

  002e8	91404289	 add         x9,x20,#0x10,lsl #0xC
  002ec	d3407d08	 uxtw        x8,w8
  002f0	f940a929	 ldr         x9,[x9,#0x150]
  002f4	cb090101	 sub         x1,x8,x9
  002f8		 |$LN32@zipOpenNew|

; 1168 : 
; 1169 :     for (i=0;i<size_filename;i++)

  002f8	52800082	 mov         w2,#4
  002fc	9100a960	 add         x0,x11,#0x2A
  00300	94000000	 bl          zip64local_putValue_inmemory
  00304	5280000e	 mov         w14,#0
  00308	710012df	 cmp         w22,#4
  0030c	54000003	 blo         |$LC64@zipOpenNew|
  00310	51000ecf	 sub         w15,w22,#3
  00314	5280004d	 mov         w13,#2
  00318		 |$LL65@zipOpenNew|

; 1170 :         *(zi->ci.central_header+SIZECENTRALHEADER+i) = *(filename+i);

  00318	f9407288	 ldr         x8,[x20,#0xE0]
  0031c	510005ab	 sub         w11,w13,#1
  00320	38ee4a69	 ldrsb       w9,[x19,w14 uxtw #0]
  00324	110005ac	 add         w12,w13,#1
  00328	8b2e410a	 add         x10,x8,w14,uxtw #0
  0032c	110011ce	 add         w14,w14,#4
  00330	6b0f01df	 cmp         w14,w15
  00334	3900b949	 strb        w9,[x10,#0x2E]
  00338	f9407288	 ldr         x8,[x20,#0xE0]
  0033c	38eb4a69	 ldrsb       w9,[x19,w11 uxtw #0]
  00340	8b2b410a	 add         x10,x8,w11,uxtw #0
  00344	3900b949	 strb        w9,[x10,#0x2E]
  00348	f9407288	 ldr         x8,[x20,#0xE0]
  0034c	38ed4a69	 ldrsb       w9,[x19,w13 uxtw #0]
  00350	8b2d410b	 add         x11,x8,w13,uxtw #0
  00354	110011ad	 add         w13,w13,#4
  00358	3900b969	 strb        w9,[x11,#0x2E]
  0035c	f9407288	 ldr         x8,[x20,#0xE0]
  00360	38ec4a69	 ldrsb       w9,[x19,w12 uxtw #0]
  00364	8b2c410a	 add         x10,x8,w12,uxtw #0
  00368	3900b949	 strb        w9,[x10,#0x2E]
  0036c	54000003	 blo         |$LL65@zipOpenNew|
  00370		 |$LC64@zipOpenNew|

; 1168 : 
; 1169 :     for (i=0;i<size_filename;i++)

  00370	6b1601df	 cmp         w14,w22
  00374	54000002	 bhs         |$LN63@zipOpenNew|
  00378	d3407dcb	 uxtw        x11,w14
  0037c	4b0e02cc	 sub         w12,w22,w14
  00380		 |$LC4@zipOpenNew|

; 1170 :         *(zi->ci.central_header+SIZECENTRALHEADER+i) = *(filename+i);

  00380	f9407288	 ldr         x8,[x20,#0xE0]
  00384	5100058c	 sub         w12,w12,#1
  00388	38eb6a69	 ldrsb       w9,[x19,x11]
  0038c	8b08016a	 add         x10,x11,x8
  00390	3900b949	 strb        w9,[x10,#0x2E]
  00394	9100056b	 add         x11,x11,#1
  00398	3500000c	 cbnz        w12,|$LC4@zipOpenNew|
  0039c		 |$LN63@zipOpenNew|

; 1171 : 
; 1172 :     for (i=0;i<size_extrafield_global;i++)

  0039c	34000018	 cbz         w24,|$LN66@zipOpenNew|
  003a0	d280000c	 mov         x12,#0
  003a4	2a1803ed	 mov         w13,w24
  003a8		 |$LL7@zipOpenNew|

; 1173 :         *(zi->ci.central_header+SIZECENTRALHEADER+size_filename+i) =

  003a8	f9407288	 ldr         x8,[x20,#0xE0]
  003ac	510005ad	 sub         w13,w13,#1
  003b0	38fb698a	 ldrsb       w10,[x12,x27]
  003b4	8b080189	 add         x9,x12,x8
  003b8	8b36412b	 add         x11,x9,w22,uxtw #0
  003bc	9100058c	 add         x12,x12,#1
  003c0	3900b96a	 strb        w10,[x11,#0x2E]
  003c4	3500000d	 cbnz        w13,|$LL7@zipOpenNew|
  003c8		 |$LN66@zipOpenNew|

; 1174 :               *(((const char*)extrafield_global)+i);
; 1175 : 
; 1176 :     for (i=0;i<size_comment;i++)

  003c8	34000015	 cbz         w21,|$LN9@zipOpenNew|
  003cc	d280000c	 mov         x12,#0
  003d0		 |$LL10@zipOpenNew|

; 1177 :         *(zi->ci.central_header+SIZECENTRALHEADER+size_filename+
; 1178 :               size_extrafield_global+i) = *(comment+i);

  003d0	f9407288	 ldr         x8,[x20,#0xE0]
  003d4	510006b5	 sub         w21,w21,#1
  003d8	8b080189	 add         x9,x12,x8
  003dc	38f76988	 ldrsb       w8,[x12,x23]
  003e0	8b38412a	 add         x10,x9,w24,uxtw #0
  003e4	9100058c	 add         x12,x12,#1
  003e8	8b36414b	 add         x11,x10,w22,uxtw #0
  003ec	3900b968	 strb        w8,[x11,#0x2E]
  003f0	35000015	 cbnz        w21,|$LL10@zipOpenNew|
  003f4		 |$LN9@zipOpenNew|

; 1179 :     if (zi->ci.central_header == NULL)

  003f4	f9407288	 ldr         x8,[x20,#0xE0]
  003f8	b5000008	 cbnz        x8,|$LN33@zipOpenNew|

; 1180 :         return ZIP_INTERNALERROR;

  003fc	12800ce0	 mov         w0,#-0x68
  00400	14000057	 b           |$LN1@zipOpenNew|
  00404		 |$LN33@zipOpenNew|

; 1181 : 
; 1182 :     zi->ci.zip64 = zip64;

  00404	b940d3e8	 ldr         w8,[sp,#0xD0]
  00408	91404289	 add         x9,x20,#0x10,lsl #0xC

; 1183 :     zi->ci.totalCompressedData = 0;
; 1184 :     zi->ci.totalUncompressedData = 0;
; 1185 :     zi->ci.pos_zip64extrainfo = 0;
; 1186 : 
; 1187 :     err = Write_LocalFileHeader(zi, filename, size_extrafield_local, extrafield_local);

  0040c	aa1303e1	 mov         x1,x19
  00410	f9400fe3	 ldr         x3,[sp,#0x18]
  00414	aa1403e0	 mov         x0,x20
  00418	b94017e2	 ldr         w2,[sp,#0x14]
  0041c	b9010d28	 str         w8,[x9,#0x10C]
  00420	91404288	 add         x8,x20,#0x10,lsl #0xC
  00424	91404289	 add         x9,x20,#0x10,lsl #0xC
  00428	f9008d1f	 str         xzr,[x8,#0x118]
  0042c	91404288	 add         x8,x20,#0x10,lsl #0xC
  00430	f900913f	 str         xzr,[x9,#0x120]
  00434	f900891f	 str         xzr,[x8,#0x110]
  00438	94000000	 bl          Write_LocalFileHeader

; 1188 : 
; 1189 : #ifdef HAVE_BZIP2
; 1190 :     zi->ci.bstream.avail_in = (uInt)0;
; 1191 :     zi->ci.bstream.avail_out = (uInt)Z_BUFSIZE;
; 1192 :     zi->ci.bstream.next_out = (char*)zi->ci.buffered_data;
; 1193 :     zi->ci.bstream.total_in_hi32 = 0;
; 1194 :     zi->ci.bstream.total_in_lo32 = 0;
; 1195 :     zi->ci.bstream.total_out_hi32 = 0;
; 1196 :     zi->ci.bstream.total_out_lo32 = 0;
; 1197 : #endif
; 1198 : 
; 1199 :     zi->ci.stream.avail_in = (uInt)0;
; 1200 :     zi->ci.stream.avail_out = (uInt)Z_BUFSIZE;

  0043c	52a00028	 mov         w8,#0x10000
  00440	29127e88	 stp         w8,wzr,[x20,#0x90]

; 1201 :     zi->ci.stream.next_out = zi->ci.buffered_data;

  00444	91040288	 add         x8,x20,#0x100
  00448	f9004688	 str         x8,[x20,#0x88]
  0044c	2a0003f5	 mov         w21,w0
  00450	29107e9f	 stp         wzr,wzr,[x20,#0x80]

; 1202 :     zi->ci.stream.total_in = 0;
; 1203 :     zi->ci.stream.total_out = 0;
; 1204 :     zi->ci.stream.data_type = Z_BINARY;

  00454	b900c29f	 str         wzr,[x20,#0xC0]

; 1205 : 
; 1206 : #ifdef HAVE_BZIP2
; 1207 :     if ((err==ZIP_OK) && (zi->ci.method == Z_DEFLATED || zi->ci.method == Z_BZIP2ED) && (!zi->ci.raw))
; 1208 : #else
; 1209 :     if ((err==ZIP_OK) && (zi->ci.method == Z_DEFLATED) && (!zi->ci.raw))

  00458	35000015	 cbnz        w21,|$LN38@zipOpenNew|
  0045c	b940fa88	 ldr         w8,[x20,#0xF8]
  00460	7100211f	 cmp         w8,#8
  00464	54000001	 bne         |$LN38@zipOpenNew|
  00468	b940fe88	 ldr         w8,[x20,#0xFC]
  0046c	35000008	 cbnz        w8,|$LN38@zipOpenNew|

; 1210 : #endif
; 1211 :     {
; 1212 :         if(zi->ci.method == Z_DEFLATED)
; 1213 :         {
; 1214 :           zi->ci.stream.zalloc = (alloc_func)0;
; 1215 :           zi->ci.stream.zfree = (free_func)0;
; 1216 :           zi->ci.stream.opaque = (voidpf)0;
; 1217 : 
; 1218 :           if (windowBits>0)
; 1219 :               windowBits = -windowBits;
; 1220 : 
; 1221 :           err = deflateInit2(&zi->ci.stream, level, Z_DEFLATED, windowBits, memLevel, strategy);

  00470	b9409be9	 ldr         w9,[sp,#0x98]
  00474	52800b07	 mov         w7,#0x58
  00478	a90afe9f	 stp         xzr,xzr,[x20,#0xA8]
  0047c	b940abe5	 ldr         w5,[sp,#0xA8]
  00480	52800102	 mov         w2,#8
  00484	f9005e9f	 str         xzr,[x20,#0xB8]
  00488	b940a3e4	 ldr         w4,[sp,#0xA0]
  0048c	2a1a03e1	 mov         w1,w26
  00490	9101e280	 add         x0,x20,#0x78
  00494	4a897d28	 eor         w8,w9,w9,asr #0x1F
  00498	4b897d09	 sub         w9,w8,w9,asr #0x1F
  0049c	90000008	 adrp        x8,|??_C@_06CJNJFBNP@1?42?411@|
  004a0	91000106	 add         x6,x8,PageOffset(|??_C@_06CJNJFBNP@1?42?411@|)
  004a4	4b0903e3	 neg         w3,w9
  004a8	94000000	 bl          deflateInit2_
  004ac	2a0003f5	 mov         w21,w0

; 1222 : 
; 1223 :           if (err==Z_OK)

  004b0	35000015	 cbnz        w21,|$LN38@zipOpenNew|

; 1224 :               zi->ci.stream_initialised = Z_DEFLATED;

  004b4	52800108	 mov         w8,#8
  004b8	b900d288	 str         w8,[x20,#0xD0]
  004bc	91404288	 add         x8,x20,#0x10,lsl #0xC
  004c0	b901411f	 str         wzr,[x8,#0x140]
  004c4	91050116	 add         x22,x8,#0x140
  004c8	14000005	 b           |$LN74@zipOpenNew|
  004cc		 |$LN38@zipOpenNew|

; 1225 :         }
; 1226 :         else if(zi->ci.method == Z_BZIP2ED)
; 1227 :         {
; 1228 : #ifdef HAVE_BZIP2
; 1229 :             // Init BZip stuff here
; 1230 :           zi->ci.bstream.bzalloc = 0;
; 1231 :           zi->ci.bstream.bzfree = 0;
; 1232 :           zi->ci.bstream.opaque = (voidpf)0;
; 1233 : 
; 1234 :           err = BZ2_bzCompressInit(&zi->ci.bstream, level, 0,35);
; 1235 :           if(err == BZ_OK)
; 1236 :             zi->ci.stream_initialised = Z_BZIP2ED;
; 1237 : #endif
; 1238 :         }
; 1239 : 
; 1240 :     }
; 1241 : 
; 1242 : #    ifndef NOCRYPT
; 1243 :     zi->ci.crypt_header_size = 0;

  004cc	91404288	 add         x8,x20,#0x10,lsl #0xC
  004d0	91050116	 add         x22,x8,#0x140
  004d4	b90002df	 str         wzr,[x22]

; 1244 :     if ((err==Z_OK) && (password != NULL))

  004d8	35000015	 cbnz        w21,|$LN42@zipOpenNew|
  004dc		 |$LN74@zipOpenNew|
  004dc	f9405bf3	 ldr         x19,[sp,#0xB0]
  004e0	52800037	 mov         w23,#1
  004e4	b4000013	 cbz         x19,|$LN73@zipOpenNew|

; 1245 :     {
; 1246 :         unsigned char bufHead[RAND_HEAD_LEN];
; 1247 :         unsigned int sizeHead;
; 1248 :         zi->ci.encrypt = 1;

  004e8	91404288	 add         x8,x20,#0x10,lsl #0xC
  004ec	b9010917	 str         w23,[x8,#0x108]

; 1249 :         zi->ci.pcrc_32_tab = get_crc_table();

  004f0	94000000	 bl          get_crc_table
  004f4	91404288	 add         x8,x20,#0x10,lsl #0xC

; 1250 :         /*init_keys(password,zi->ci.keys,zi->ci.pcrc_32_tab);*/
; 1251 : 
; 1252 :         sizeHead=crypthead(password,bufHead,RAND_HEAD_LEN,zi->ci.keys,zi->ci.pcrc_32_tab,crcForCrypting);

  004f8	91404289	 add         x9,x20,#0x10,lsl #0xC
  004fc	b940bbe5	 ldr         w5,[sp,#0xB8]
  00500	aa0003e4	 mov         x4,x0
  00504	f9009d00	 str         x0,[x8,#0x138]
  00508	910063e1	 add         x1,sp,#0x18
  0050c	aa1303e0	 mov         x0,x19
  00510	9104a123	 add         x3,x9,#0x128
  00514	94000000	 bl          crypthead

; 1253 :         zi->ci.crypt_header_size = sizeHead;
; 1254 : 
; 1255 :         if (ZWRITE64(zi->z_filefunc,zi->filestream,bufHead,sizeHead) != sizeHead)

  00518	f9402e81	 ldr         x1,[x20,#0x58]
  0051c	910063e2	 add         x2,sp,#0x18
  00520	2a0003f3	 mov         w19,w0
  00524	f9400a88	 ldr         x8,[x20,#0x10]
  00528	f9401e80	 ldr         x0,[x20,#0x38]
  0052c	2a1303e3	 mov         w3,w19
  00530	b90002d3	 str         w19,[x22]
  00534	d63f0100	 blr         x8
  00538	6b13001f	 cmp         w0,w19
  0053c	54000000	 beq         |$LN73@zipOpenNew|

; 1256 :                 err = ZIP_ERRNO;

  00540	12800015	 mov         w21,#-1

; 1262 :     return err;

  00544	2a1503e0	 mov         w0,w21
  00548	14000005	 b           |$LN1@zipOpenNew|
  0054c		 |$LN73@zipOpenNew|

; 1257 :     }
; 1258 : #    endif
; 1259 : 
; 1260 :     if (err==Z_OK)
; 1261 :         zi->in_opened_file_inzip = 1;

  0054c	b9007297	 str         w23,[x20,#0x70]
  00550		 |$LN42@zipOpenNew|

; 1262 :     return err;

  00550	2a1503e0	 mov         w0,w21
  00554	14000002	 b           |$LN1@zipOpenNew|
  00558		 |$LN76@zipOpenNew|

; 1083 :       return ZIP_PARAMERROR;

  00558	12800ca0	 mov         w0,#-0x66
  0055c		 |$LN1@zipOpenNew|
  0055c	a8c37bfd	 ldp         fp,lr,[sp],#0x30
  00560	f94023fb	 ldr         x27,[sp,#0x40]
  00564	a9436bf9	 ldp         x25,x26,[sp,#0x30]
  00568	a94263f7	 ldp         x23,x24,[sp,#0x20]
  0056c	a9415bf5	 ldp         x21,x22,[sp,#0x10]
  00570	a8c553f3	 ldp         x19,x20,[sp],#0x50
  00574	d65f03c0	 ret

			 ENDP  ; |zipOpenNewFileInZip4_64|

; Function compile flags: /Ogtp
; File C:\Users\ws103\Desktop\zlib-1.2.11\contrib\minizip\zip.c

	AREA	|.text$mn|, CODE, ARM64

  00000		 |zipOpenNewFileInZip4| PROC

; 1272 : {

  00000		 |$LN4|
  00000	a9bf7bfd	 stp         fp,lr,[sp,#-0x10]!
  00004	910003fd	 mov         fp,sp
  00008	d10183ff	 sub         sp,sp,#0x60

; 1273 :     return zipOpenNewFileInZip4_64 (file, filename, zipfi,

  0000c	b940bbe8	 ldr         w8,[sp,#0xB8]
  00010	b90053ff	 str         wzr,[sp,#0x50]
  00014	b940b3e9	 ldr         w9,[sp,#0xB0]
  00018	b9004be8	 str         w8,[sp,#0x48]
  0001c	b940abe8	 ldr         w8,[sp,#0xA8]
  00020	b90043e9	 str         w9,[sp,#0x40]
  00024	f94053e9	 ldr         x9,[sp,#0xA0]
  00028	b9003be8	 str         w8,[sp,#0x38]
  0002c	b9409be8	 ldr         w8,[sp,#0x98]
  00030	f9001be9	 str         x9,[sp,#0x30]
  00034	b94093e9	 ldr         w9,[sp,#0x90]
  00038	b9002be8	 str         w8,[sp,#0x28]
  0003c	b9408be8	 ldr         w8,[sp,#0x88]
  00040	b90023e9	 str         w9,[sp,#0x20]
  00044	b94083e9	 ldr         w9,[sp,#0x80]
  00048	b9001be8	 str         w8,[sp,#0x18]
  0004c	b9407be8	 ldr         w8,[sp,#0x78]
  00050	b90013e9	 str         w9,[sp,#0x10]
  00054	b94073e9	 ldr         w9,[sp,#0x70]
  00058	b9000be8	 str         w8,[sp,#8]
  0005c	b90003e9	 str         w9,[sp]
  00060	94000000	 bl          zipOpenNewFileInZip4_64
  00064	910183ff	 add         sp,sp,#0x60
  00068	a8c17bfd	 ldp         fp,lr,[sp],#0x10
  0006c	d65f03c0	 ret

			 ENDP  ; |zipOpenNewFileInZip4|

; Function compile flags: /Ogtp
; File C:\Users\ws103\Desktop\zlib-1.2.11\contrib\minizip\zip.c

	AREA	|.text$mn|, CODE, ARM64

  00000		 |zipOpenNewFileInZip3| PROC

; 1287 : {

  00000		 |$LN4|
  00000	a9bf7bfd	 stp         fp,lr,[sp,#-0x10]!
  00004	910003fd	 mov         fp,sp
  00008	d10183ff	 sub         sp,sp,#0x60

; 1288 :     return zipOpenNewFileInZip4_64 (file, filename, zipfi,

  0000c	b940abe8	 ldr         w8,[sp,#0xA8]
  00010	b90053ff	 str         wzr,[sp,#0x50]
  00014	f94053e9	 ldr         x9,[sp,#0xA0]
  00018	b9004bff	 str         wzr,[sp,#0x48]
  0001c	b90043ff	 str         wzr,[sp,#0x40]
  00020	b9003be8	 str         w8,[sp,#0x38]
  00024	b9409be8	 ldr         w8,[sp,#0x98]
  00028	f9001be9	 str         x9,[sp,#0x30]
  0002c	b94093e9	 ldr         w9,[sp,#0x90]
  00030	b9002be8	 str         w8,[sp,#0x28]
  00034	b9408be8	 ldr         w8,[sp,#0x88]
  00038	b90023e9	 str         w9,[sp,#0x20]
  0003c	b94083e9	 ldr         w9,[sp,#0x80]
  00040	b9001be8	 str         w8,[sp,#0x18]
  00044	b9407be8	 ldr         w8,[sp,#0x78]
  00048	b90013e9	 str         w9,[sp,#0x10]
  0004c	b94073e9	 ldr         w9,[sp,#0x70]
  00050	b9000be8	 str         w8,[sp,#8]
  00054	b90003e9	 str         w9,[sp]
  00058	94000000	 bl          zipOpenNewFileInZip4_64
  0005c	910183ff	 add         sp,sp,#0x60
  00060	a8c17bfd	 ldp         fp,lr,[sp],#0x10
  00064	d65f03c0	 ret

			 ENDP  ; |zipOpenNewFileInZip3|

; Function compile flags: /Ogtp
; File C:\Users\ws103\Desktop\zlib-1.2.11\contrib\minizip\zip.c

	AREA	|.text$mn|, CODE, ARM64

  00000		 |zipOpenNewFileInZip3_64| PROC

; 1302 : {

  00000		 |$LN4|
  00000	a9bf7bfd	 stp         fp,lr,[sp,#-0x10]!
  00004	910003fd	 mov         fp,sp
  00008	d10183ff	 sub         sp,sp,#0x60

; 1303 :     return zipOpenNewFileInZip4_64 (file, filename, zipfi,

  0000c	b940b3e8	 ldr         w8,[sp,#0xB0]
  00010	b9004bff	 str         wzr,[sp,#0x48]
  00014	f94053e9	 ldr         x9,[sp,#0xA0]
  00018	b90043ff	 str         wzr,[sp,#0x40]
  0001c	b90053e8	 str         w8,[sp,#0x50]
  00020	b940abe8	 ldr         w8,[sp,#0xA8]
  00024	f9001be9	 str         x9,[sp,#0x30]
  00028	b94093e9	 ldr         w9,[sp,#0x90]
  0002c	b9003be8	 str         w8,[sp,#0x38]
  00030	b9409be8	 ldr         w8,[sp,#0x98]
  00034	b90023e9	 str         w9,[sp,#0x20]
  00038	b94083e9	 ldr         w9,[sp,#0x80]
  0003c	b9002be8	 str         w8,[sp,#0x28]
  00040	b9408be8	 ldr         w8,[sp,#0x88]
  00044	b90013e9	 str         w9,[sp,#0x10]
  00048	b94073e9	 ldr         w9,[sp,#0x70]
  0004c	b9001be8	 str         w8,[sp,#0x18]
  00050	b9407be8	 ldr         w8,[sp,#0x78]
  00054	b90003e9	 str         w9,[sp]
  00058	b9000be8	 str         w8,[sp,#8]
  0005c	94000000	 bl          zipOpenNewFileInZip4_64
  00060	910183ff	 add         sp,sp,#0x60
  00064	a8c17bfd	 ldp         fp,lr,[sp],#0x10
  00068	d65f03c0	 ret

			 ENDP  ; |zipOpenNewFileInZip3_64|

; Function compile flags: /Ogtp
; File C:\Users\ws103\Desktop\zlib-1.2.11\contrib\minizip\zip.c

	AREA	|.text$mn|, CODE, ARM64

  00000		 |zipOpenNewFileInZip2| PROC

; 1315 : {

  00000		 |$LN4|
  00000	a9bf7bfd	 stp         fp,lr,[sp,#-0x10]!
  00004	910003fd	 mov         fp,sp
  00008	d10183ff	 sub         sp,sp,#0x60

; 1316 :     return zipOpenNewFileInZip4_64 (file, filename, zipfi,

  0000c	52800108	 mov         w8,#8
  00010	b90053ff	 str         wzr,[sp,#0x50]
  00014	b90023e8	 str         w8,[sp,#0x20]
  00018	b94083e8	 ldr         w8,[sp,#0x80]
  0001c	128001c9	 mov         w9,#-0xF
  00020	b9001be9	 str         w9,[sp,#0x18]
  00024	b9407be9	 ldr         w9,[sp,#0x78]
  00028	b9004bff	 str         wzr,[sp,#0x48]
  0002c	b90043ff	 str         wzr,[sp,#0x40]
  00030	b90013e8	 str         w8,[sp,#0x10]
  00034	b94073e8	 ldr         w8,[sp,#0x70]
  00038	b9003bff	 str         wzr,[sp,#0x38]
  0003c	f9001bff	 str         xzr,[sp,#0x30]
  00040	b9002bff	 str         wzr,[sp,#0x28]
  00044	b90003e8	 str         w8,[sp]
  00048	b9000be9	 str         w9,[sp,#8]
  0004c	94000000	 bl          zipOpenNewFileInZip4_64
  00050	910183ff	 add         sp,sp,#0x60
  00054	a8c17bfd	 ldp         fp,lr,[sp],#0x10
  00058	d65f03c0	 ret

			 ENDP  ; |zipOpenNewFileInZip2|

; Function compile flags: /Ogtp
; File C:\Users\ws103\Desktop\zlib-1.2.11\contrib\minizip\zip.c

	AREA	|.text$mn|, CODE, ARM64

  00000		 |zipOpenNewFileInZip2_64| PROC

; 1328 : {

  00000		 |$LN4|
  00000	a9bf7bfd	 stp         fp,lr,[sp,#-0x10]!
  00004	910003fd	 mov         fp,sp
  00008	d10183ff	 sub         sp,sp,#0x60

; 1329 :     return zipOpenNewFileInZip4_64 (file, filename, zipfi,

  0000c	b9408be8	 ldr         w8,[sp,#0x88]
  00010	128001c9	 mov         w9,#-0xF
  00014	b9004bff	 str         wzr,[sp,#0x48]
  00018	b9001be9	 str         w9,[sp,#0x18]
  0001c	b9407be9	 ldr         w9,[sp,#0x78]
  00020	b90043ff	 str         wzr,[sp,#0x40]
  00024	b9003bff	 str         wzr,[sp,#0x38]
  00028	b90053e8	 str         w8,[sp,#0x50]
  0002c	52800108	 mov         w8,#8
  00030	b90023e8	 str         w8,[sp,#0x20]
  00034	b94083e8	 ldr         w8,[sp,#0x80]
  00038	f9001bff	 str         xzr,[sp,#0x30]
  0003c	b9002bff	 str         wzr,[sp,#0x28]
  00040	b9000be9	 str         w9,[sp,#8]
  00044	b90013e8	 str         w8,[sp,#0x10]
  00048	b94073e8	 ldr         w8,[sp,#0x70]
  0004c	b90003e8	 str         w8,[sp]
  00050	94000000	 bl          zipOpenNewFileInZip4_64
  00054	910183ff	 add         sp,sp,#0x60
  00058	a8c17bfd	 ldp         fp,lr,[sp],#0x10
  0005c	d65f03c0	 ret

			 ENDP  ; |zipOpenNewFileInZip2_64|

; Function compile flags: /Ogtp
; File C:\Users\ws103\Desktop\zlib-1.2.11\contrib\minizip\zip.c

	AREA	|.text$mn|, CODE, ARM64

  00000		 |zipOpenNewFileInZip64| PROC

; 1341 : {

  00000		 |$LN4|
  00000	a9bf7bfd	 stp         fp,lr,[sp,#-0x10]!
  00004	910003fd	 mov         fp,sp
  00008	d10183ff	 sub         sp,sp,#0x60

; 1342 :     return zipOpenNewFileInZip4_64 (file, filename, zipfi,

  0000c	b94083e8	 ldr         w8,[sp,#0x80]
  00010	128001c9	 mov         w9,#-0xF
  00014	b9004bff	 str         wzr,[sp,#0x48]
  00018	b9001be9	 str         w9,[sp,#0x18]
  0001c	b94073e9	 ldr         w9,[sp,#0x70]
  00020	b90043ff	 str         wzr,[sp,#0x40]
  00024	b9003bff	 str         wzr,[sp,#0x38]
  00028	b90053e8	 str         w8,[sp,#0x50]
  0002c	52800108	 mov         w8,#8
  00030	b90023e8	 str         w8,[sp,#0x20]
  00034	b9407be8	 ldr         w8,[sp,#0x78]
  00038	f9001bff	 str         xzr,[sp,#0x30]
  0003c	b9002bff	 str         wzr,[sp,#0x28]
  00040	b90013ff	 str         wzr,[sp,#0x10]
  00044	b9000be8	 str         w8,[sp,#8]
  00048	b90003e9	 str         w9,[sp]
  0004c	94000000	 bl          zipOpenNewFileInZip4_64
  00050	910183ff	 add         sp,sp,#0x60
  00054	a8c17bfd	 ldp         fp,lr,[sp],#0x10
  00058	d65f03c0	 ret

			 ENDP  ; |zipOpenNewFileInZip64|

; Function compile flags: /Ogtp
; File C:\Users\ws103\Desktop\zlib-1.2.11\contrib\minizip\zip.c

	AREA	|.text$mn|, CODE, ARM64

  00000		 |zipOpenNewFileInZip| PROC

; 1354 : {

  00000		 |$LN4|
  00000	a9bf7bfd	 stp         fp,lr,[sp,#-0x10]!
  00004	910003fd	 mov         fp,sp
  00008	d10183ff	 sub         sp,sp,#0x60

; 1355 :     return zipOpenNewFileInZip4_64 (file, filename, zipfi,

  0000c	52800108	 mov         w8,#8
  00010	b90053ff	 str         wzr,[sp,#0x50]
  00014	128001c9	 mov         w9,#-0xF
  00018	b90023e8	 str         w8,[sp,#0x20]
  0001c	b9407be8	 ldr         w8,[sp,#0x78]
  00020	b9001be9	 str         w9,[sp,#0x18]
  00024	b94073e9	 ldr         w9,[sp,#0x70]
  00028	b9004bff	 str         wzr,[sp,#0x48]
  0002c	b90043ff	 str         wzr,[sp,#0x40]
  00030	b9000be8	 str         w8,[sp,#8]
  00034	b90003e9	 str         w9,[sp]
  00038	b9003bff	 str         wzr,[sp,#0x38]
  0003c	f9001bff	 str         xzr,[sp,#0x30]
  00040	b9002bff	 str         wzr,[sp,#0x28]
  00044	b90013ff	 str         wzr,[sp,#0x10]
  00048	94000000	 bl          zipOpenNewFileInZip4_64
  0004c	910183ff	 add         sp,sp,#0x60
  00050	a8c17bfd	 ldp         fp,lr,[sp],#0x10
  00054	d65f03c0	 ret

			 ENDP  ; |zipOpenNewFileInZip|

; Function compile flags: /Ogtp
; File C:\Users\ws103\Desktop\zlib-1.2.11\contrib\minizip\zip.c

	AREA	|.text$mn|, CODE, ARM64

  00000		 |zip64FlushWriteBuffer| PROC

; 1364 : {

  00000	f81f0ff3	 str         x19,[sp,#-0x10]!
  00004	a9bf7bfd	 stp         fp,lr,[sp,#-0x10]!
  00008	910003fd	 mov         fp,sp
  0000c	aa0003f3	 mov         x19,x0

; 1365 :     int err=ZIP_OK;
; 1366 : 
; 1367 :     if (zi->ci.encrypt != 0)

  00010	91404268	 add         x8,x19,#0x10,lsl #0xC
  00014	b9410909	 ldr         w9,[x8,#0x108]
  00018	34000009	 cbz         w9,|$LN3@zip64Flush|

; 1368 :     {
; 1369 : #ifndef NOCRYPT
; 1370 :         uInt i;
; 1371 :         int t;
; 1372 :         for (i=0;i<zi->ci.pos_in_buffered_data;i++)

  0001c	b940d668	 ldr         w8,[x19,#0xD4]
  00020	5280000f	 mov         w15,#0
  00024	34000008	 cbz         w8,|$LN3@zip64Flush|
  00028	91404267	 add         x7,x19,#0x10,lsl #0xC
  0002c	91404266	 add         x6,x19,#0x10,lsl #0xC
  00030		 |$LL4@zip64Flush|

; 1373 :             zi->ci.buffered_data[i] = zencode(zi->ci.keys, zi->ci.pcrc_32_tab, zi->ci.buffered_data[i],t);

  00030	9104a0e0	 add         x0,x7,#0x128
  00034	94000000	 bl          decrypt_byte
  00038	8b2f426d	 add         x13,x19,w15,uxtw #0
  0003c	f9409cc1	 ldr         x1,[x6,#0x138]
  00040	2a0003ee	 mov         w14,w0
  00044	394401a2	 ldrb        w2,[x13,#0x100]
  00048	9104a0e0	 add         x0,x7,#0x128
  0004c	94000000	 bl          update_keys
  00050	394401ac	 ldrb        w12,[x13,#0x100]
  00054	110005ef	 add         w15,w15,#1
  00058	4a0e018c	 eor         w12,w12,w14
  0005c	390401ac	 strb        w12,[x13,#0x100]
  00060	b940d668	 ldr         w8,[x19,#0xD4]
  00064	6b0801ff	 cmp         w15,w8
  00068	54000003	 blo         |$LL4@zip64Flush|
  0006c		 |$LN3@zip64Flush|

; 1374 : #endif
; 1375 :     }
; 1376 : 
; 1377 :     if (ZWRITE64(zi->z_filefunc,zi->filestream,zi->ci.buffered_data,zi->ci.pos_in_buffered_data) != zi->ci.pos_in_buffered_data)

  0006c	b940d663	 ldr         w3,[x19,#0xD4]
  00070	91040262	 add         x2,x19,#0x100
  00074	f9402e61	 ldr         x1,[x19,#0x58]
  00078	f9401e60	 ldr         x0,[x19,#0x38]
  0007c	f9400a68	 ldr         x8,[x19,#0x10]
  00080	d63f0100	 blr         x8

; 1378 :       err = ZIP_ERRNO;
; 1379 : 
; 1380 :     zi->ci.totalCompressedData += zi->ci.pos_in_buffered_data;

  00084	9140426a	 add         x10,x19,#0x10,lsl #0xC
  00088	b940d669	 ldr         w9,[x19,#0xD4]

; 1381 : 
; 1382 : #ifdef HAVE_BZIP2
; 1383 :     if(zi->ci.method == Z_BZIP2ED)
; 1384 :     {
; 1385 :       zi->ci.totalUncompressedData += zi->ci.bstream.total_in_lo32;
; 1386 :       zi->ci.bstream.total_in_lo32 = 0;
; 1387 :       zi->ci.bstream.total_in_hi32 = 0;
; 1388 :     }
; 1389 :     else
; 1390 : #endif
; 1391 :     {
; 1392 :       zi->ci.totalUncompressedData += zi->ci.stream.total_in;

  0008c	9140426b	 add         x11,x19,#0x10,lsl #0xC

; 1393 :       zi->ci.stream.total_in = 0;
; 1394 :     }
; 1395 : 
; 1396 : 
; 1397 :     zi->ci.pos_in_buffered_data = 0;

  00090	b900d67f	 str         wzr,[x19,#0xD4]
  00094	f9408d48	 ldr         x8,[x10,#0x118]
  00098	6b09001f	 cmp         w0,w9
  0009c	5a9f03e0	 csetmne     w0
  000a0	8b294109	 add         x9,x8,w9,uxtw #0
  000a4	f9409168	 ldr         x8,[x11,#0x120]
  000a8	f9008d49	 str         x9,[x10,#0x118]
  000ac	b940866a	 ldr         w10,[x19,#0x84]
  000b0	b900867f	 str         wzr,[x19,#0x84]
  000b4	8b2a4109	 add         x9,x8,w10,uxtw #0
  000b8	f9009169	 str         x9,[x11,#0x120]
  000bc	a8c17bfd	 ldp         fp,lr,[sp],#0x10
  000c0	f84107f3	 ldr         x19,[sp],#0x10
  000c4	d65f03c0	 ret

			 ENDP  ; |zip64FlushWriteBuffer|

; Function compile flags: /Ogtp
; File C:\Users\ws103\Desktop\zlib-1.2.11\contrib\minizip\zip.c

	AREA	|.text$mn|, CODE, ARM64

  00000		 |zipWriteInFileInZip| PROC

; 1403 : {

  00000		 |$LN34|
  00000	a9bd53f3	 stp         x19,x20,[sp,#-0x30]!
  00004	a9015bf5	 stp         x21,x22,[sp,#0x10]
  00008	f90013f7	 str         x23,[sp,#0x20]
  0000c	a9bf7bfd	 stp         fp,lr,[sp,#-0x10]!
  00010	910003fd	 mov         fp,sp
  00014	aa0003f4	 mov         x20,x0
  00018	aa0103f6	 mov         x22,x1
  0001c	2a0203f7	 mov         w23,w2

; 1404 :     zip64_internal* zi;
; 1405 :     int err=ZIP_OK;

  00020	52800015	 mov         w21,#0

; 1406 : 
; 1407 :     if (file == NULL)

  00024	b4000014	 cbz         x20,|$LN31@zipWriteIn|

; 1408 :         return ZIP_PARAMERROR;
; 1409 :     zi = (zip64_internal*)file;
; 1410 : 
; 1411 :     if (zi->in_opened_file_inzip == 0)

  00028	b9407288	 ldr         w8,[x20,#0x70]
  0002c	34000008	 cbz         w8,|$LN31@zipWriteIn|

; 1413 : 
; 1414 :     zi->ci.crc32 = crc32(zi->ci.crc32,buf,(uInt)len);

  00030	91404293	 add         x19,x20,#0x10,lsl #0xC
  00034	b9410660	 ldr         w0,[x19,#0x104]
  00038	94000000	 bl          crc32

; 1415 : 
; 1416 : #ifdef HAVE_BZIP2
; 1417 :     if(zi->ci.method == Z_BZIP2ED && (!zi->ci.raw))
; 1418 :     {
; 1419 :       zi->ci.bstream.next_in = (void*)buf;
; 1420 :       zi->ci.bstream.avail_in = len;
; 1421 :       err = BZ_RUN_OK;
; 1422 : 
; 1423 :       while ((err==BZ_RUN_OK) && (zi->ci.bstream.avail_in>0))
; 1424 :       {
; 1425 :         if (zi->ci.bstream.avail_out == 0)
; 1426 :         {
; 1427 :           if (zip64FlushWriteBuffer(zi) == ZIP_ERRNO)
; 1428 :             err = ZIP_ERRNO;
; 1429 :           zi->ci.bstream.avail_out = (uInt)Z_BUFSIZE;
; 1430 :           zi->ci.bstream.next_out = (char*)zi->ci.buffered_data;
; 1431 :         }
; 1432 : 
; 1433 : 
; 1434 :         if(err != BZ_RUN_OK)
; 1435 :           break;
; 1436 : 
; 1437 :         if ((zi->ci.method == Z_BZIP2ED) && (!zi->ci.raw))
; 1438 :         {
; 1439 :           uLong uTotalOutBefore_lo = zi->ci.bstream.total_out_lo32;
; 1440 : //          uLong uTotalOutBefore_hi = zi->ci.bstream.total_out_hi32;
; 1441 :           err=BZ2_bzCompress(&zi->ci.bstream,  BZ_RUN);
; 1442 : 
; 1443 :           zi->ci.pos_in_buffered_data += (uInt)(zi->ci.bstream.total_out_lo32 - uTotalOutBefore_lo) ;
; 1444 :         }
; 1445 :       }
; 1446 : 
; 1447 :       if(err == BZ_RUN_OK)
; 1448 :         err = ZIP_OK;
; 1449 :     }
; 1450 :     else
; 1451 : #endif
; 1452 :     {
; 1453 :       zi->ci.stream.next_in = (Bytef*)buf;

  0003c	f9003e96	 str         x22,[x20,#0x78]

; 1454 :       zi->ci.stream.avail_in = len;

  00040	52a00036	 mov         w22,#0x10000
  00044	b9010660	 str         w0,[x19,#0x104]
  00048	b9008297	 str         w23,[x20,#0x80]
  0004c		 |$LL2@zipWriteIn|

; 1455 : 
; 1456 :       while ((err==ZIP_OK) && (zi->ci.stream.avail_in>0))

  0004c	b9408288	 ldr         w8,[x20,#0x80]
  00050	34000008	 cbz         w8,|$LN32@zipWriteIn|

; 1457 :       {
; 1458 :           if (zi->ci.stream.avail_out == 0)

  00054	b9409289	 ldr         w9,[x20,#0x90]
  00058	35000009	 cbnz        w9,|$LN9@zipWriteIn|

; 1459 :           {
; 1460 :               if (zip64FlushWriteBuffer(zi) == ZIP_ERRNO)

  0005c	aa1403e0	 mov         x0,x20
  00060	94000000	 bl          zip64FlushWriteBuffer
  00064	12800008	 mov         w8,#-1

; 1461 :                   err = ZIP_ERRNO;
; 1462 :               zi->ci.stream.avail_out = (uInt)Z_BUFSIZE;

  00068	b9009296	 str         w22,[x20,#0x90]
  0006c	3100041f	 cmn         w0,#1
  00070	1a950115	 cseleq      w21,w8,w21

; 1463 :               zi->ci.stream.next_out = zi->ci.buffered_data;

  00074	91040288	 add         x8,x20,#0x100
  00078	f9004688	 str         x8,[x20,#0x88]
  0007c	52a00029	 mov         w9,#0x10000
  00080		 |$LN9@zipWriteIn|

; 1464 :           }
; 1465 : 
; 1466 : 
; 1467 :           if(err != ZIP_OK)

  00080	35000015	 cbnz        w21,|$LN32@zipWriteIn|

; 1468 :               break;
; 1469 : 
; 1470 :           if ((zi->ci.method == Z_DEFLATED) && (!zi->ci.raw))

  00084	b940fa88	 ldr         w8,[x20,#0xF8]
  00088	7100211f	 cmp         w8,#8
  0008c	54000001	 bne         |$LN12@zipWriteIn|
  00090	b940fe88	 ldr         w8,[x20,#0xFC]
  00094	35000008	 cbnz        w8,|$LN12@zipWriteIn|

; 1471 :           {
; 1472 :               uLong uTotalOutBefore = zi->ci.stream.total_out;
; 1473 :               err=deflate(&zi->ci.stream,  Z_NO_FLUSH);

  00098	52800001	 mov         w1,#0
  0009c	b9409693	 ldr         w19,[x20,#0x94]
  000a0	9101e280	 add         x0,x20,#0x78
  000a4	94000000	 bl          deflate

; 1474 :               if(uTotalOutBefore > zi->ci.stream.total_out)
; 1475 :               {
; 1476 :                 int bBreak = 0;
; 1477 :                 bBreak++;
; 1478 :               }
; 1479 : 
; 1480 :               zi->ci.pos_in_buffered_data += (uInt)(zi->ci.stream.total_out - uTotalOutBefore) ;

  000a8	b9409688	 ldr         w8,[x20,#0x94]
  000ac	b940d689	 ldr         w9,[x20,#0xD4]
  000b0	2a0003f5	 mov         w21,w0
  000b4	4b13010a	 sub         w10,w8,w19
  000b8	0b09014a	 add         w10,w10,w9
  000bc	b900d68a	 str         w10,[x20,#0xD4]
  000c0	34000015	 cbz         w21,|$LL2@zipWriteIn|
  000c4		 |$LN32@zipWriteIn|

; 1501 :               }
; 1502 :           }
; 1503 :       }// while(...)
; 1504 :     }
; 1505 : 
; 1506 :     return err;

  000c4	2a1503e0	 mov         w0,w21
  000c8	a8c17bfd	 ldp         fp,lr,[sp],#0x10
  000cc	f94013f7	 ldr         x23,[sp,#0x20]
  000d0	a9415bf5	 ldp         x21,x22,[sp,#0x10]
  000d4	a8c353f3	 ldp         x19,x20,[sp],#0x30
  000d8	d65f03c0	 ret
  000dc		 |$LN12@zipWriteIn|

; 1481 :           }
; 1482 :           else
; 1483 :           {
; 1484 :               uInt copy_this,i;
; 1485 :               if (zi->ci.stream.avail_in < zi->ci.stream.avail_out)

  000dc	b9408288	 ldr         w8,[x20,#0x80]

; 1486 :                   copy_this = zi->ci.stream.avail_in;
; 1487 :               else
; 1488 :                   copy_this = zi->ci.stream.avail_out;
; 1489 : 
; 1490 :               for (i = 0; i < copy_this; i++)

  000e0	5280000d	 mov         w13,#0
  000e4	6b09011f	 cmp         w8,w9
  000e8	1a88212e	 cselhs      w14,w9,w8
  000ec	710011df	 cmp         w14,#4
  000f0	54000003	 blo         |$LC25@zipWriteIn|

; 1481 :           }
; 1482 :           else
; 1483 :           {
; 1484 :               uInt copy_this,i;
; 1485 :               if (zi->ci.stream.avail_in < zi->ci.stream.avail_out)

  000f4	51000dc7	 sub         w7,w14,#3
  000f8	5280004f	 mov         w15,#2

; 1486 :                   copy_this = zi->ci.stream.avail_in;
; 1487 :               else
; 1488 :                   copy_this = zi->ci.stream.avail_out;
; 1489 : 
; 1490 :               for (i = 0; i < copy_this; i++)

  000fc		 |$LL26@zipWriteIn|

; 1491 :                   *(((char*)zi->ci.stream.next_out)+i) =

  000fc	f9403e88	 ldr         x8,[x20,#0x78]
  00100	510005eb	 sub         w11,w15,#1
  00104	f9404689	 ldr         x9,[x20,#0x88]
  00108	110005ec	 add         w12,w15,#1
  0010c	38ed4908	 ldrsb       w8,[x8,w13 uxtw #0]
  00110	382d4928	 strb        w8,[x9,w13 uxtw #0]
  00114	f9403e8a	 ldr         x10,[x20,#0x78]
  00118	110011ad	 add         w13,w13,#4
  0011c	f9404689	 ldr         x9,[x20,#0x88]
  00120	6b0701bf	 cmp         w13,w7
  00124	38eb4948	 ldrsb       w8,[x10,w11 uxtw #0]
  00128	382b4928	 strb        w8,[x9,w11 uxtw #0]
  0012c	f9403e8b	 ldr         x11,[x20,#0x78]
  00130	f940468a	 ldr         x10,[x20,#0x88]
  00134	38ef4968	 ldrsb       w8,[x11,w15 uxtw #0]
  00138	382f4948	 strb        w8,[x10,w15 uxtw #0]
  0013c	f9403e89	 ldr         x9,[x20,#0x78]
  00140	110011ef	 add         w15,w15,#4
  00144	f940468a	 ldr         x10,[x20,#0x88]
  00148	38ec4928	 ldrsb       w8,[x9,w12 uxtw #0]
  0014c	382c4948	 strb        w8,[x10,w12 uxtw #0]
  00150	54000003	 blo         |$LL26@zipWriteIn|
  00154		 |$LC25@zipWriteIn|

; 1486 :                   copy_this = zi->ci.stream.avail_in;
; 1487 :               else
; 1488 :                   copy_this = zi->ci.stream.avail_out;
; 1489 : 
; 1490 :               for (i = 0; i < copy_this; i++)

  00154	6b0e01bf	 cmp         w13,w14
  00158	54000002	 bhs         |$LN24@zipWriteIn|
  0015c		 |$LC6@zipWriteIn|

; 1491 :                   *(((char*)zi->ci.stream.next_out)+i) =

  0015c	f9403e88	 ldr         x8,[x20,#0x78]
  00160	f9404689	 ldr         x9,[x20,#0x88]
  00164	38ed4908	 ldrsb       w8,[x8,w13 uxtw #0]
  00168	382d4928	 strb        w8,[x9,w13 uxtw #0]
  0016c	110005ad	 add         w13,w13,#1
  00170	6b0e01bf	 cmp         w13,w14
  00174	54000003	 blo         |$LC6@zipWriteIn|
  00178		 |$LN24@zipWriteIn|

; 1492 :                       *(((const char*)zi->ci.stream.next_in)+i);
; 1493 :               {
; 1494 :                   zi->ci.stream.avail_in -= copy_this;

  00178	b9408288	 ldr         w8,[x20,#0x80]

; 1495 :                   zi->ci.stream.avail_out-= copy_this;

  0017c	b940928a	 ldr         w10,[x20,#0x90]
  00180	4b0e0109	 sub         w9,w8,w14
  00184	b9008289	 str         w9,[x20,#0x80]

; 1496 :                   zi->ci.stream.next_in+= copy_this;

  00188	f9403e89	 ldr         x9,[x20,#0x78]
  0018c	4b0e0148	 sub         w8,w10,w14
  00190	b9009288	 str         w8,[x20,#0x90]

; 1497 :                   zi->ci.stream.next_out+= copy_this;

  00194	f9404688	 ldr         x8,[x20,#0x88]
  00198	8b2e412a	 add         x10,x9,w14,uxtw #0
  0019c	8b2e4109	 add         x9,x8,w14,uxtw #0
  001a0	f9003e8a	 str         x10,[x20,#0x78]

; 1498 :                   zi->ci.stream.total_in+= copy_this;

  001a4	b940868a	 ldr         w10,[x20,#0x84]
  001a8	f9004689	 str         x9,[x20,#0x88]

; 1499 :                   zi->ci.stream.total_out+= copy_this;

  001ac	b9409689	 ldr         w9,[x20,#0x94]
  001b0	0b0a01c8	 add         w8,w14,w10
  001b4	b9008688	 str         w8,[x20,#0x84]

; 1500 :                   zi->ci.pos_in_buffered_data += copy_this;

  001b8	b940d688	 ldr         w8,[x20,#0xD4]
  001bc	0b0e012a	 add         w10,w9,w14
  001c0	b900968a	 str         w10,[x20,#0x94]
  001c4	0b0801c9	 add         w9,w14,w8
  001c8	b900d689	 str         w9,[x20,#0xD4]
  001cc	17ffffa0	 b           |$LL2@zipWriteIn|
  001d0		 |$LN31@zipWriteIn|

; 1412 :         return ZIP_PARAMERROR;

  001d0	12800ca0	 mov         w0,#-0x66
  001d4	a8c17bfd	 ldp         fp,lr,[sp],#0x10
  001d8	f94013f7	 ldr         x23,[sp,#0x20]
  001dc	a9415bf5	 ldp         x21,x22,[sp,#0x10]
  001e0	a8c353f3	 ldp         x19,x20,[sp],#0x30
  001e4	d65f03c0	 ret

			 ENDP  ; |zipWriteInFileInZip|

; Function compile flags: /Ogtp
; File C:\Users\ws103\Desktop\zlib-1.2.11\contrib\minizip\zip.c

	AREA	|.text$mn|, CODE, ARM64

  00000		 |zipCloseFileInZipRaw| PROC

; 1511 :     return zipCloseFileInZipRaw64 (file, uncompressed_size, crc32);

  00000	d3407c21	 uxtw        x1,w1
  00004	14000000	 b           zipCloseFileInZipRaw64

			 ENDP  ; |zipCloseFileInZipRaw|

; Function compile flags: /Ogtp
; File C:\Users\ws103\Desktop\zlib-1.2.11\contrib\minizip\zip.c

	AREA	|.text$mn|, CODE, ARM64

  00000		 |zipCloseFileInZipRaw64| PROC

; 1515 : {

  00000		 |$LN57|
  00000	a9bc53f3	 stp         x19,x20,[sp,#-0x40]!
  00004	a9015bf5	 stp         x21,x22,[sp,#0x10]
  00008	a90263f7	 stp         x23,x24,[sp,#0x20]
  0000c	a9036bf9	 stp         x25,x26,[sp,#0x30]
  00010	a9bf7bfd	 stp         fp,lr,[sp,#-0x10]!
  00014	910003fd	 mov         fp,sp
  00018	aa0003f4	 mov         x20,x0

; 1516 :     zip64_internal* zi;
; 1517 :     ZPOS64_T compressed_size;
; 1518 :     uLong invalidValue = 0xffffffff;
; 1519 :     short datasize = 0;
; 1520 :     int err=ZIP_OK;

  0001c	52800000	 mov         w0,#0
  00020	aa0103f6	 mov         x22,x1
  00024	2a0203fa	 mov         w26,w2

; 1521 : 
; 1522 :     if (file == NULL)

  00028	b4000014	 cbz         x20,|$LN55@zipCloseFi|

; 1523 :         return ZIP_PARAMERROR;
; 1524 :     zi = (zip64_internal*)file;
; 1525 : 
; 1526 :     if (zi->in_opened_file_inzip == 0)

  0002c	b9407288	 ldr         w8,[x20,#0x70]
  00030	34000008	 cbz         w8,|$LN55@zipCloseFi|

; 1528 :     zi->ci.stream.avail_in = 0;
; 1529 : 
; 1530 :     if ((zi->ci.method == Z_DEFLATED) && (!zi->ci.raw))

  00034	b940fa88	 ldr         w8,[x20,#0xF8]
  00038	b900829f	 str         wzr,[x20,#0x80]
  0003c	7100211f	 cmp         w8,#8
  00040	54000001	 bne         |$LN3@zipCloseFi|
  00044	b940fe88	 ldr         w8,[x20,#0xFC]
  00048	35000008	 cbnz        w8,|$LN3@zipCloseFi|
  0004c	52a00037	 mov         w23,#0x10000
  00050	91040295	 add         x21,x20,#0x100
  00054		 |$LL2@zipCloseFi|

; 1531 :                 {
; 1532 :                         while (err==ZIP_OK)
; 1533 :                         {
; 1534 :                                 uLong uTotalOutBefore;
; 1535 :                                 if (zi->ci.stream.avail_out == 0)

  00054	b9409288	 ldr         w8,[x20,#0x90]
  00058	35000008	 cbnz        w8,|$LN54@zipCloseFi|

; 1536 :                                 {
; 1537 :                                         if (zip64FlushWriteBuffer(zi) == ZIP_ERRNO)

  0005c	aa1403e0	 mov         x0,x20
  00060	94000000	 bl          zip64FlushWriteBuffer

; 1538 :                                                 err = ZIP_ERRNO;
; 1539 :                                         zi->ci.stream.avail_out = (uInt)Z_BUFSIZE;

  00064	b9009297	 str         w23,[x20,#0x90]

; 1540 :                                         zi->ci.stream.next_out = zi->ci.buffered_data;

  00068	f9004695	 str         x21,[x20,#0x88]
  0006c		 |$LN54@zipCloseFi|

; 1541 :                                 }
; 1542 :                                 uTotalOutBefore = zi->ci.stream.total_out;
; 1543 :                                 err=deflate(&zi->ci.stream,  Z_FINISH);

  0006c	52800081	 mov         w1,#4
  00070	b9409693	 ldr         w19,[x20,#0x94]
  00074	9101e280	 add         x0,x20,#0x78
  00078	94000000	 bl          deflate

; 1544 :                                 zi->ci.pos_in_buffered_data += (uInt)(zi->ci.stream.total_out - uTotalOutBefore) ;

  0007c	b940d688	 ldr         w8,[x20,#0xD4]
  00080	b9409689	 ldr         w9,[x20,#0x94]
  00084	4b13010a	 sub         w10,w8,w19
  00088	0b09014a	 add         w10,w10,w9
  0008c	b900d68a	 str         w10,[x20,#0xD4]
  00090	34000000	 cbz         w0,|$LL2@zipCloseFi|
  00094		 |$LN3@zipCloseFi|

; 1545 :                         }
; 1546 :                 }
; 1547 :     else if ((zi->ci.method == Z_BZIP2ED) && (!zi->ci.raw))
; 1548 :     {
; 1549 : #ifdef HAVE_BZIP2
; 1550 :       err = BZ_FINISH_OK;
; 1551 :       while (err==BZ_FINISH_OK)
; 1552 :       {
; 1553 :         uLong uTotalOutBefore;
; 1554 :         if (zi->ci.bstream.avail_out == 0)
; 1555 :         {
; 1556 :           if (zip64FlushWriteBuffer(zi) == ZIP_ERRNO)
; 1557 :             err = ZIP_ERRNO;
; 1558 :           zi->ci.bstream.avail_out = (uInt)Z_BUFSIZE;
; 1559 :           zi->ci.bstream.next_out = (char*)zi->ci.buffered_data;
; 1560 :         }
; 1561 :         uTotalOutBefore = zi->ci.bstream.total_out_lo32;
; 1562 :         err=BZ2_bzCompress(&zi->ci.bstream,  BZ_FINISH);
; 1563 :         if(err == BZ_STREAM_END)
; 1564 :           err = Z_STREAM_END;
; 1565 : 
; 1566 :         zi->ci.pos_in_buffered_data += (uInt)(zi->ci.bstream.total_out_lo32 - uTotalOutBefore);
; 1567 :       }
; 1568 : 
; 1569 :       if(err == BZ_FINISH_OK)
; 1570 :         err = ZIP_OK;
; 1571 : #endif
; 1572 :     }
; 1573 : 
; 1574 :     if (err==Z_STREAM_END)
; 1575 :         err=ZIP_OK; /* this is normal */
; 1576 : 
; 1577 :     if ((zi->ci.pos_in_buffered_data>0) && (err==ZIP_OK))

  00094	7100041f	 cmp         w0,#1
  00098	b940d688	 ldr         w8,[x20,#0xD4]
  0009c	1a9f1009	 cselne      w9,w0,wzr
  000a0	2a0903f7	 mov         w23,w9
  000a4	34000008	 cbz         w8,|$LN13@zipCloseFi|
  000a8	35000009	 cbnz        w9,|$LN13@zipCloseFi|

; 1578 :                 {
; 1579 :         if (zip64FlushWriteBuffer(zi)==ZIP_ERRNO)

  000ac	aa1403e0	 mov         x0,x20
  000b0	94000000	 bl          zip64FlushWriteBuffer
  000b4	3100041f	 cmn         w0,#1
  000b8	5a9f13f7	 csetmeq     w23
  000bc		 |$LN13@zipCloseFi|

; 1580 :             err = ZIP_ERRNO;
; 1581 :                 }
; 1582 : 
; 1583 :     if ((zi->ci.method == Z_DEFLATED) && (!zi->ci.raw))

  000bc	b940fa88	 ldr         w8,[x20,#0xF8]
  000c0	7100211f	 cmp         w8,#8
  000c4	54000001	 bne         |$LN14@zipCloseFi|
  000c8	b940fe88	 ldr         w8,[x20,#0xFC]
  000cc	35000008	 cbnz        w8,|$LN14@zipCloseFi|

; 1584 :     {
; 1585 :         int tmp_err = deflateEnd(&zi->ci.stream);

  000d0	9101e280	 add         x0,x20,#0x78
  000d4	94000000	 bl          deflateEnd

; 1586 :         if (err == ZIP_OK)

  000d8	710002ff	 cmp         w23,#0

; 1587 :             err = tmp_err;
; 1588 :         zi->ci.stream_initialised = 0;

  000dc	b900d29f	 str         wzr,[x20,#0xD0]
  000e0	1a970017	 cseleq      w23,w0,w23
  000e4		 |$LN14@zipCloseFi|

; 1589 :     }
; 1590 : #ifdef HAVE_BZIP2
; 1591 :     else if((zi->ci.method == Z_BZIP2ED) && (!zi->ci.raw))
; 1592 :     {
; 1593 :       int tmperr = BZ2_bzCompressEnd(&zi->ci.bstream);
; 1594 :                         if (err==ZIP_OK)
; 1595 :                                 err = tmperr;
; 1596 :                         zi->ci.stream_initialised = 0;
; 1597 :     }
; 1598 : #endif
; 1599 : 
; 1600 :     if (!zi->ci.raw)

  000e4	b940fe88	 ldr         w8,[x20,#0xFC]
  000e8	35000008	 cbnz        w8,|$LN16@zipCloseFi|

; 1601 :     {
; 1602 :         crc32 = (uLong)zi->ci.crc32;

  000ec	91404288	 add         x8,x20,#0x10,lsl #0xC

; 1603 :         uncompressed_size = zi->ci.totalUncompressedData;

  000f0	91404289	 add         x9,x20,#0x10,lsl #0xC
  000f4	b941051a	 ldr         w26,[x8,#0x104]
  000f8	f9409136	 ldr         x22,[x9,#0x120]
  000fc		 |$LN16@zipCloseFi|

; 1604 :     }
; 1605 :     compressed_size = zi->ci.totalCompressedData;
; 1606 : 
; 1607 : #    ifndef NOCRYPT
; 1608 :     compressed_size += zi->ci.crypt_header_size;

  000fc	91404288	 add         x8,x20,#0x10,lsl #0xC
  00100	91404289	 add         x9,x20,#0x10,lsl #0xC
  00104	b941410b	 ldr         w11,[x8,#0x140]

; 1609 : #    endif
; 1610 : 
; 1611 :     // update Current Item crc and sizes,
; 1612 :     if(compressed_size >= 0xffffffff || uncompressed_size >= 0xffffffff || zi->ci.pos_local_header >= 0xffffffff)

  00108	b2407fe8	 mov         x8,#0xFFFFFFFF
  0010c	f9408d2a	 ldr         x10,[x9,#0x118]
  00110	8b2bc155	 add         x21,x10,w11,sxtw #0
  00114	eb0802bf	 cmp         x21,x8
  00118	54000002	 bhs         |$LN18@zipCloseFi|
  0011c	eb0802df	 cmp         x22,x8
  00120	54000002	 bhs         |$LN18@zipCloseFi|
  00124	f9406e88	 ldr         x8,[x20,#0xD8]
  00128	b2407fe9	 mov         x9,#0xFFFFFFFF
  0012c	eb09011f	 cmp         x8,x9
  00130	54000003	 blo         |$LN17@zipCloseFi|
  00134		 |$LN18@zipCloseFi|

; 1613 :     {
; 1614 :       /*version Made by*/
; 1615 :       zip64local_putValue_inmemory(zi->ci.central_header+4,(uLong)45,2);

  00134	f9407288	 ldr         x8,[x20,#0xE0]
  00138	52800042	 mov         w2,#2
  0013c	d28005a1	 mov         x1,#0x2D
  00140	91001100	 add         x0,x8,#4
  00144	94000000	 bl          zip64local_putValue_inmemory

; 1616 :       /*version needed*/
; 1617 :       zip64local_putValue_inmemory(zi->ci.central_header+6,(uLong)45,2);

  00148	f9407288	 ldr         x8,[x20,#0xE0]
  0014c	52800042	 mov         w2,#2
  00150	d28005a1	 mov         x1,#0x2D
  00154	91001900	 add         x0,x8,#6
  00158	94000000	 bl          zip64local_putValue_inmemory
  0015c		 |$LN17@zipCloseFi|

; 1618 : 
; 1619 :     }
; 1620 : 
; 1621 :     zip64local_putValue_inmemory(zi->ci.central_header+16,crc32,4); /*crc*/

  0015c	f9407288	 ldr         x8,[x20,#0xE0]
  00160	52800082	 mov         w2,#4
  00164	d3407f41	 uxtw        x1,w26
  00168	91004100	 add         x0,x8,#0x10
  0016c	94000000	 bl          zip64local_putValue_inmemory

; 1622 : 
; 1623 : 
; 1624 :     if(compressed_size >= 0xffffffff)

  00170	b2407fe8	 mov         x8,#0xFFFFFFFF
  00174	eb0802bf	 cmp         x21,x8
  00178	54000003	 blo         |$LN19@zipCloseFi|

; 1625 :       zip64local_putValue_inmemory(zi->ci.central_header+20, invalidValue,4); /*compr size*/

  0017c	b2407fe1	 mov         x1,#0xFFFFFFFF
  00180	14000006	 b           |$LN20@zipCloseFi|
  00184		 |$LN19@zipCloseFi|

; 1626 :     else
; 1627 :       zip64local_putValue_inmemory(zi->ci.central_header+20, compressed_size,4); /*compr size*/

  00184	b2407fe8	 mov         x8,#0xFFFFFFFF
  00188	eb0802bf	 cmp         x21,x8
  0018c	9a9f32b5	 csello      x21,x21,xzr
  00190	d503229f	 csdb
  00194	aa1503e1	 mov         x1,x21
  00198		 |$LN20@zipCloseFi|

; 1628 : 
; 1629 :     /// set internal file attributes field
; 1630 :     if (zi->ci.stream.data_type == Z_ASCII)

  00198	f9407288	 ldr         x8,[x20,#0xE0]
  0019c	52800082	 mov         w2,#4
  001a0	91005100	 add         x0,x8,#0x14
  001a4	94000000	 bl          zip64local_putValue_inmemory
  001a8	b940c288	 ldr         w8,[x20,#0xC0]
  001ac	7100051f	 cmp         w8,#1
  001b0	54000001	 bne         |$LN21@zipCloseFi|

; 1631 :         zip64local_putValue_inmemory(zi->ci.central_header+36,(uLong)Z_ASCII,2);

  001b4	f9407288	 ldr         x8,[x20,#0xE0]
  001b8	52800042	 mov         w2,#2
  001bc	d2800021	 mov         x1,#1
  001c0	91009100	 add         x0,x8,#0x24
  001c4	94000000	 bl          zip64local_putValue_inmemory
  001c8		 |$LN21@zipCloseFi|

; 1632 : 
; 1633 :     if(uncompressed_size >= 0xffffffff)

  001c8	b2407fe8	 mov         x8,#0xFFFFFFFF
  001cc	eb0802df	 cmp         x22,x8
  001d0	54000003	 blo         |$LN22@zipCloseFi|

; 1634 :       zip64local_putValue_inmemory(zi->ci.central_header+24, invalidValue,4); /*uncompr size*/

  001d4	b2407fe1	 mov         x1,#0xFFFFFFFF
  001d8	14000006	 b           |$LN23@zipCloseFi|
  001dc		 |$LN22@zipCloseFi|

; 1635 :     else
; 1636 :       zip64local_putValue_inmemory(zi->ci.central_header+24, uncompressed_size,4); /*uncompr size*/

  001dc	b2407fe8	 mov         x8,#0xFFFFFFFF
  001e0	eb0802df	 cmp         x22,x8
  001e4	9a9f32d6	 csello      x22,x22,xzr
  001e8	d503229f	 csdb
  001ec	aa1603e1	 mov         x1,x22
  001f0		 |$LN23@zipCloseFi|

; 1637 : 
; 1638 :     // Add ZIP64 extra info field for uncompressed size
; 1639 :     if(uncompressed_size >= 0xffffffff)

  001f0	f9407288	 ldr         x8,[x20,#0xE0]
  001f4	52800082	 mov         w2,#4
  001f8	91006100	 add         x0,x8,#0x18
  001fc	94000000	 bl          zip64local_putValue_inmemory

; 1640 :       datasize += 8;
; 1641 : 
; 1642 :     // Add ZIP64 extra info field for compressed size
; 1643 :     if(compressed_size >= 0xffffffff)

  00200	b2407fe8	 mov         x8,#0xFFFFFFFF
  00204	eb0802df	 cmp         x22,x8
  00208	52800109	 mov         w9,#8
  0020c	1a8933ea	 csello      w10,wzr,w9

; 1644 :       datasize += 8;
; 1645 : 
; 1646 :     // Add ZIP64 extra info field for relative offset to local file header of current file
; 1647 :     if(zi->ci.pos_local_header >= 0xffffffff)

  00210	11002148	 add         w8,w10,#8
  00214	b2407feb	 mov         x11,#0xFFFFFFFF
  00218	13003d09	 sxth        w9,w8
  0021c	f9406e88	 ldr         x8,[x20,#0xD8]
  00220	eb0b02bf	 cmp         x21,x11
  00224	1a893158	 csello      w24,w10,w9
  00228	b2407fe9	 mov         x9,#0xFFFFFFFF
  0022c	eb09011f	 cmp         x8,x9
  00230	54000003	 blo         |$LN26@zipCloseFi|

; 1648 :       datasize += 8;

  00234	11002308	 add         w8,w24,#8
  00238	13003d18	 sxth        w24,w8
  0023c		 |$LN26@zipCloseFi|

; 1649 : 
; 1650 :     if(datasize > 0)

  0023c	53003f08	 uxth        w8,w24
  00240	34000008	 cbz         w8,|$LN27@zipCloseFi|

; 1651 :     {
; 1652 :       char* p = NULL;
; 1653 : 
; 1654 :       if((uLong)(datasize + 4) > zi->ci.size_centralExtraFree)

  00244	b940f289	 ldr         w9,[x20,#0xF0]
  00248	53003f19	 uxth        w25,w24
  0024c	11001328	 add         w8,w25,#4
  00250	6b09011f	 cmp         w8,w9
  00254	54000009	 bls         |$LN28@zipCloseFi|

; 1655 :       {
; 1656 :         // we can not write more data to the buffer that we have room for.
; 1657 :         return ZIP_BADZIPFILE;

  00258	12800cc0	 mov         w0,#-0x67
  0025c	140000a2	 b           |$LN1@zipCloseFi|
  00260		 |$LN28@zipCloseFi|

; 1658 :       }
; 1659 : 
; 1660 :       p = zi->ci.central_header + zi->ci.size_centralheader;

  00260	6b09011f	 cmp         w8,w9
  00264	1a9f9108	 csells      w8,w8,wzr
  00268	d503229f	 csdb
  0026c	b940ee89	 ldr         w9,[x20,#0xEC]
  00270	f9407288	 ldr         x8,[x20,#0xE0]

; 1661 : 
; 1662 :       // Add Extra Information Header for 'ZIP64 information'
; 1663 :       zip64local_putValue_inmemory(p, 0x0001, 2); // HeaderID

  00274	52800042	 mov         w2,#2
  00278	d2800021	 mov         x1,#1
  0027c	8b294113	 add         x19,x8,w9,uxtw #0
  00280	aa1303e0	 mov         x0,x19
  00284	94000000	 bl          zip64local_putValue_inmemory

; 1664 :       p += 2;
; 1665 :       zip64local_putValue_inmemory(p, datasize, 2); // DataSize

  00288	52800042	 mov         w2,#2
  0028c	d3403f01	 uxth        x1,w24
  00290	91000a60	 add         x0,x19,#2
  00294	94000000	 bl          zip64local_putValue_inmemory

; 1666 :       p += 2;
; 1667 : 
; 1668 :       if(uncompressed_size >= 0xffffffff)

  00298	b2407fe8	 mov         x8,#0xFFFFFFFF
  0029c	eb0802df	 cmp         x22,x8
  002a0	91001273	 add         x19,x19,#4
  002a4	54000003	 blo         |$LN29@zipCloseFi|

; 1669 :       {
; 1670 :         zip64local_putValue_inmemory(p, uncompressed_size, 8);

  002a8	eb0802df	 cmp         x22,x8
  002ac	9a9f22d6	 cselhs      x22,x22,xzr
  002b0	d503229f	 csdb
  002b4	52800102	 mov         w2,#8
  002b8	aa1603e1	 mov         x1,x22
  002bc	aa1303e0	 mov         x0,x19
  002c0	94000000	 bl          zip64local_putValue_inmemory

; 1671 :         p += 8;

  002c4	91002273	 add         x19,x19,#8
  002c8		 |$LN29@zipCloseFi|

; 1672 :       }
; 1673 : 
; 1674 :       if(compressed_size >= 0xffffffff)

  002c8	b2407fe8	 mov         x8,#0xFFFFFFFF
  002cc	eb0802bf	 cmp         x21,x8
  002d0	54000003	 blo         |$LN30@zipCloseFi|

; 1675 :       {
; 1676 :         zip64local_putValue_inmemory(p, compressed_size, 8);

  002d4	eb0802bf	 cmp         x21,x8
  002d8	9a9f22b5	 cselhs      x21,x21,xzr
  002dc	d503229f	 csdb
  002e0	52800102	 mov         w2,#8
  002e4	aa1503e1	 mov         x1,x21
  002e8	aa1303e0	 mov         x0,x19
  002ec	94000000	 bl          zip64local_putValue_inmemory

; 1677 :         p += 8;

  002f0	91002273	 add         x19,x19,#8
  002f4		 |$LN30@zipCloseFi|

; 1678 :       }
; 1679 : 
; 1680 :       if(zi->ci.pos_local_header >= 0xffffffff)

  002f4	f9406e81	 ldr         x1,[x20,#0xD8]
  002f8	b2407fe8	 mov         x8,#0xFFFFFFFF
  002fc	eb08003f	 cmp         x1,x8
  00300	54000003	 blo         |$LN31@zipCloseFi|

; 1681 :       {
; 1682 :         zip64local_putValue_inmemory(p, zi->ci.pos_local_header, 8);

  00304	52800102	 mov         w2,#8
  00308	aa1303e0	 mov         x0,x19
  0030c	94000000	 bl          zip64local_putValue_inmemory
  00310		 |$LN31@zipCloseFi|

; 1683 :         p += 8;
; 1684 :       }
; 1685 : 
; 1686 :       // Update how much extra free space we got in the memory buffer
; 1687 :       // and increase the centralheader size so the new ZIP64 fields are included
; 1688 :       // ( 4 below is the size of HeaderID and DataSize field )
; 1689 :       zi->ci.size_centralExtraFree -= datasize + 4;

  00310	b940f288	 ldr         w8,[x20,#0xF0]

; 1690 :       zi->ci.size_centralheader += datasize + 4;
; 1691 : 
; 1692 :       // Update the extra info size field
; 1693 :       zi->ci.size_centralExtra += datasize + 4;
; 1694 :       zip64local_putValue_inmemory(zi->ci.central_header+30,(uLong)zi->ci.size_centralExtra,2);

  00314	52800042	 mov         w2,#2
  00318	4b190109	 sub         w9,w8,w25
  0031c	b940ee88	 ldr         w8,[x20,#0xEC]
  00320	5100112a	 sub         w10,w9,#4
  00324	b900f28a	 str         w10,[x20,#0xF0]
  00328	0b190109	 add         w9,w8,w25
  0032c	b940ea88	 ldr         w8,[x20,#0xE8]
  00330	1100112a	 add         w10,w9,#4
  00334	b900ee8a	 str         w10,[x20,#0xEC]
  00338	0b080329	 add         w9,w25,w8
  0033c	f9407288	 ldr         x8,[x20,#0xE0]
  00340	1100112a	 add         w10,w9,#4
  00344	aa0a03e1	 mov         x1,x10
  00348	b900ea8a	 str         w10,[x20,#0xE8]
  0034c	91007900	 add         x0,x8,#0x1E
  00350	94000000	 bl          zip64local_putValue_inmemory
  00354		 |$LN27@zipCloseFi|

; 1695 :     }
; 1696 : 
; 1697 :     if (err==ZIP_OK)

  00354	35000017	 cbnz        w23,|$LN32@zipCloseFi|

; 1698 :         err = add_data_in_datablock(&zi->central_dir, zi->ci.central_header, (uLong)zi->ci.size_centralheader);

  00358	b940ee82	 ldr         w2,[x20,#0xEC]
  0035c	91018280	 add         x0,x20,#0x60
  00360	f9407281	 ldr         x1,[x20,#0xE0]
  00364	94000000	 bl          add_data_in_datablock
  00368	2a0003f7	 mov         w23,w0
  0036c		 |$LN32@zipCloseFi|

; 1699 : 
; 1700 :     free(zi->ci.central_header);

  0036c	90000008	 adrp        x8,__imp_free
  00370	f9400108	 ldr         x8,[x8,PageOffset(__imp_free)]
  00374	f9407280	 ldr         x0,[x20,#0xE0]
  00378	d63f0100	 blr         x8

; 1701 : 
; 1702 :     if (err==ZIP_OK)

  0037c	35000017	 cbnz        w23,|$LN46@zipCloseFi|

; 1703 :     {
; 1704 :         // Update the LocalFileHeader with the new values.
; 1705 : 
; 1706 :         ZPOS64_T cur_pos_inzip = ZTELL64(zi->z_filefunc,zi->filestream);

  00380	f9402e81	 ldr         x1,[x20,#0x58]
  00384	aa1403e0	 mov         x0,x20
  00388	94000000	 bl          call_ztell64

; 1707 : 
; 1708 :         if (ZSEEK64(zi->z_filefunc,zi->filestream, zi->ci.pos_local_header + 14,ZLIB_FILEFUNC_SEEK_SET)!=0)

  0038c	f9406e88	 ldr         x8,[x20,#0xD8]
  00390	52800003	 mov         w3,#0
  00394	f9402e81	 ldr         x1,[x20,#0x58]
  00398	aa0003f7	 mov         x23,x0
  0039c	aa1403e0	 mov         x0,x20
  003a0	91003902	 add         x2,x8,#0xE
  003a4	94000000	 bl          call_zseek64
  003a8	34000000	 cbz         w0,|$LN53@zipCloseFi|

; 1709 :             err = ZIP_ERRNO;

  003ac	12800013	 mov         w19,#-1

; 1710 : 
; 1711 :         if (err==ZIP_OK)

  003b0	14000007	 b           |$LN35@zipCloseFi|
  003b4		 |$LN53@zipCloseFi|

; 1712 :             err = zip64local_putValue(&zi->z_filefunc,zi->filestream,crc32,4); /* crc 32, unknown */

  003b4	f9402e81	 ldr         x1,[x20,#0x58]
  003b8	52800083	 mov         w3,#4
  003bc	d3407f42	 uxtw        x2,w26
  003c0	aa1403e0	 mov         x0,x20
  003c4	94000000	 bl          zip64local_putValue
  003c8	2a0003f3	 mov         w19,w0
  003cc		 |$LN35@zipCloseFi|

; 1713 : 
; 1714 :         if(uncompressed_size >= 0xffffffff || compressed_size >= 0xffffffff )

  003cc	b2407fe8	 mov         x8,#0xFFFFFFFF
  003d0	eb0802df	 cmp         x22,x8
  003d4	54000002	 bhs         |$LN38@zipCloseFi|
  003d8	eb0802df	 cmp         x22,x8
  003dc	9a9f32d6	 csello      x22,x22,xzr
  003e0	d503229f	 csdb
  003e4	b2407fe9	 mov         x9,#0xFFFFFFFF
  003e8	eb0902bf	 cmp         x21,x9
  003ec	54000002	 bhs         |$LN38@zipCloseFi|

; 1730 :         }
; 1731 :         else
; 1732 :         {
; 1733 :           if (err==ZIP_OK) /* compressed size, unknown */

  003f0	eb0802bf	 cmp         x21,x8
  003f4	9a9f32b5	 csello      x21,x21,xzr
  003f8	d503229f	 csdb
  003fc	35000013	 cbnz        w19,|$LN40@zipCloseFi|

; 1734 :               err = zip64local_putValue(&zi->z_filefunc,zi->filestream,compressed_size,4);

  00400	f9402e81	 ldr         x1,[x20,#0x58]
  00404	52800083	 mov         w3,#4
  00408	aa1503e2	 mov         x2,x21
  0040c	aa1403e0	 mov         x0,x20
  00410	94000000	 bl          zip64local_putValue
  00414	2a0003f3	 mov         w19,w0

; 1735 : 
; 1736 :           if (err==ZIP_OK) /* uncompressed size, unknown */

  00418	35000013	 cbnz        w19,|$LN40@zipCloseFi|

; 1737 :               err = zip64local_putValue(&zi->z_filefunc,zi->filestream,uncompressed_size,4);

  0041c	f9402e81	 ldr         x1,[x20,#0x58]
  00420	52800083	 mov         w3,#4
  00424	aa1603e2	 mov         x2,x22
  00428	aa1403e0	 mov         x0,x20
  0042c	94000000	 bl          zip64local_putValue
  00430	2a0003f3	 mov         w19,w0
  00434	1400001c	 b           |$LN40@zipCloseFi|
  00438		 |$LN38@zipCloseFi|

; 1715 :         {
; 1716 :           if(zi->ci.pos_zip64extrainfo > 0)

  00438	91404288	 add         x8,x20,#0x10,lsl #0xC
  0043c	f9408909	 ldr         x9,[x8,#0x110]
  00440	b4000009	 cbz         x9,|$LN39@zipCloseFi|

; 1717 :           {
; 1718 :             // Update the size in the ZIP64 extended field.
; 1719 :             if (ZSEEK64(zi->z_filefunc,zi->filestream, zi->ci.pos_zip64extrainfo + 4,ZLIB_FILEFUNC_SEEK_SET)!=0)

  00444	f9402e81	 ldr         x1,[x20,#0x58]
  00448	52800003	 mov         w3,#0
  0044c	91001122	 add         x2,x9,#4
  00450	aa1403e0	 mov         x0,x20
  00454	94000000	 bl          call_zseek64
  00458	34000000	 cbz         w0,|$LN41@zipCloseFi|

; 1720 :               err = ZIP_ERRNO;

  0045c	12800013	 mov         w19,#-1

; 1721 : 
; 1722 :             if (err==ZIP_OK) /* compressed size, unknown */

  00460	14000011	 b           |$LN40@zipCloseFi|
  00464		 |$LN41@zipCloseFi|
  00464	35000013	 cbnz        w19,|$LN40@zipCloseFi|

; 1723 :               err = zip64local_putValue(&zi->z_filefunc, zi->filestream, uncompressed_size, 8);

  00468	f9402e81	 ldr         x1,[x20,#0x58]
  0046c	52800103	 mov         w3,#8
  00470	aa1603e2	 mov         x2,x22
  00474	aa1403e0	 mov         x0,x20
  00478	94000000	 bl          zip64local_putValue
  0047c	2a0003f3	 mov         w19,w0

; 1724 : 
; 1725 :             if (err==ZIP_OK) /* uncompressed size, unknown */

  00480	35000013	 cbnz        w19,|$LN40@zipCloseFi|

; 1726 :               err = zip64local_putValue(&zi->z_filefunc, zi->filestream, compressed_size, 8);

  00484	f9402e81	 ldr         x1,[x20,#0x58]
  00488	52800103	 mov         w3,#8
  0048c	aa1503e2	 mov         x2,x21
  00490	aa1403e0	 mov         x0,x20
  00494	94000000	 bl          zip64local_putValue
  00498	2a0003f3	 mov         w19,w0

; 1727 :           }

  0049c	14000002	 b           |$LN40@zipCloseFi|
  004a0		 |$LN39@zipCloseFi|

; 1728 :           else
; 1729 :               err = ZIP_BADZIPFILE; // Caller passed zip64 = 0, so no room for zip64 info -> fatal

  004a0	12800cd3	 mov         w19,#-0x67
  004a4		 |$LN40@zipCloseFi|

; 1738 :         }
; 1739 : 
; 1740 :         if (ZSEEK64(zi->z_filefunc,zi->filestream, cur_pos_inzip,ZLIB_FILEFUNC_SEEK_SET)!=0)

  004a4	f9402e81	 ldr         x1,[x20,#0x58]
  004a8	52800003	 mov         w3,#0
  004ac	aa1703e2	 mov         x2,x23
  004b0	aa1403e0	 mov         x0,x20
  004b4	94000000	 bl          call_zseek64
  004b8	12800008	 mov         w8,#-1
  004bc	7100001f	 cmp         w0,#0
  004c0	1a931117	 cselne      w23,w8,w19
  004c4		 |$LN46@zipCloseFi|

; 1741 :             err = ZIP_ERRNO;
; 1742 :     }
; 1743 : 
; 1744 :     zi->number_entry ++;

  004c4	9140428a	 add         x10,x20,#0x10,lsl #0xC

; 1745 :     zi->in_opened_file_inzip = 0;

  004c8	b900729f	 str         wzr,[x20,#0x70]

; 1746 : 
; 1747 :     return err;

  004cc	2a1703e0	 mov         w0,w23
  004d0	f940ad48	 ldr         x8,[x10,#0x158]
  004d4	91000509	 add         x9,x8,#1
  004d8	f900ad49	 str         x9,[x10,#0x158]
  004dc	14000002	 b           |$LN1@zipCloseFi|
  004e0		 |$LN55@zipCloseFi|

; 1527 :         return ZIP_PARAMERROR;

  004e0	12800ca0	 mov         w0,#-0x66
  004e4		 |$LN1@zipCloseFi|
  004e4	a8c17bfd	 ldp         fp,lr,[sp],#0x10
  004e8	a9436bf9	 ldp         x25,x26,[sp,#0x30]
  004ec	a94263f7	 ldp         x23,x24,[sp,#0x20]
  004f0	a9415bf5	 ldp         x21,x22,[sp,#0x10]
  004f4	a8c453f3	 ldp         x19,x20,[sp],#0x40
  004f8	d65f03c0	 ret

			 ENDP  ; |zipCloseFileInZipRaw64|

; Function compile flags: /Ogtp
; File C:\Users\ws103\Desktop\zlib-1.2.11\contrib\minizip\zip.c

	AREA	|.text$mn|, CODE, ARM64

  00000		 |zipCloseFileInZip| PROC

; 1752 :     return zipCloseFileInZipRaw (file,0,0);

  00000	52800002	 mov         w2,#0
  00004	52800001	 mov         w1,#0
  00008	14000000	 b           zipCloseFileInZipRaw

			 ENDP  ; |zipCloseFileInZip|

; Function compile flags: /Ogtp
; File C:\Users\ws103\Desktop\zlib-1.2.11\contrib\minizip\zip.c

	AREA	|.text$mn|, CODE, ARM64

  00000		 |Write_Zip64EndOfCentralDirectoryLocator| PROC

; 1756 : {

  00000		 |$LN7|
  00000	a9bf53f3	 stp         x19,x20,[sp,#-0x10]!
  00004	a9bf7bfd	 stp         fp,lr,[sp,#-0x10]!
  00008	910003fd	 mov         fp,sp
  0000c	aa0003f3	 mov         x19,x0

; 1757 :   int err = ZIP_OK;
; 1758 :   ZPOS64_T pos = zip64eocd_pos_inzip - zi->add_position_when_writing_offset;

  00010	91404268	 add         x8,x19,#0x10,lsl #0xC

; 1759 : 
; 1760 :   err = zip64local_putValue(&zi->z_filefunc,zi->filestream,(uLong)ZIP64ENDLOCHEADERMAGIC,4);

  00014	52800083	 mov         w3,#4
  00018	d2896a02	 mov         x2,#0x4B50
  0001c	f2a0e0c2	 movk        x2,#0x706,lsl #0x10
  00020	f940a909	 ldr         x9,[x8,#0x150]
  00024	cb090034	 sub         x20,x1,x9
  00028	f9402e61	 ldr         x1,[x19,#0x58]
  0002c	94000000	 bl          zip64local_putValue

; 1761 : 
; 1762 :   /*num disks*/
; 1763 :     if (err==ZIP_OK) /* number of the disk with the start of the central directory */

  00030	35000000	 cbnz        w0,|$LN4@Write_Zip6|

; 1764 :       err = zip64local_putValue(&zi->z_filefunc,zi->filestream,(uLong)0,4);

  00034	f9402e61	 ldr         x1,[x19,#0x58]
  00038	52800083	 mov         w3,#4
  0003c	d2800002	 mov         x2,#0
  00040	aa1303e0	 mov         x0,x19
  00044	94000000	 bl          zip64local_putValue

; 1765 : 
; 1766 :   /*relative offset*/
; 1767 :     if (err==ZIP_OK) /* Relative offset to the Zip64EndOfCentralDirectory */

  00048	35000000	 cbnz        w0,|$LN4@Write_Zip6|

; 1768 :       err = zip64local_putValue(&zi->z_filefunc,zi->filestream, pos,8);

  0004c	f9402e61	 ldr         x1,[x19,#0x58]
  00050	52800103	 mov         w3,#8
  00054	aa1403e2	 mov         x2,x20
  00058	aa1303e0	 mov         x0,x19
  0005c	94000000	 bl          zip64local_putValue

; 1769 : 
; 1770 :   /*total disks*/ /* Do not support spawning of disk so always say 1 here*/
; 1771 :     if (err==ZIP_OK) /* number of the disk with the start of the central directory */

  00060	35000000	 cbnz        w0,|$LN4@Write_Zip6|

; 1772 :       err = zip64local_putValue(&zi->z_filefunc,zi->filestream,(uLong)1,4);

  00064	f9402e61	 ldr         x1,[x19,#0x58]
  00068	52800083	 mov         w3,#4
  0006c	d2800022	 mov         x2,#1
  00070	aa1303e0	 mov         x0,x19
  00074	94000000	 bl          zip64local_putValue
  00078		 |$LN4@Write_Zip6|
  00078	a8c17bfd	 ldp         fp,lr,[sp],#0x10
  0007c	a8c153f3	 ldp         x19,x20,[sp],#0x10
  00080	d65f03c0	 ret

			 ENDP  ; |Write_Zip64EndOfCentralDirectoryLocator|

; Function compile flags: /Ogtp
; File C:\Users\ws103\Desktop\zlib-1.2.11\contrib\minizip\zip.c

	AREA	|.text$mn|, CODE, ARM64

  00000		 |Write_Zip64EndOfCentralDirectoryRecord| PROC

; 1778 : {

  00000		 |$LN13|
  00000	a9be53f3	 stp         x19,x20,[sp,#-0x20]!
  00004	a9015bf5	 stp         x21,x22,[sp,#0x10]
  00008	a9bf7bfd	 stp         fp,lr,[sp,#-0x10]!
  0000c	910003fd	 mov         fp,sp
  00010	aa0003f3	 mov         x19,x0
  00014	d3407c35	 uxtw        x21,w1

; 1779 :   int err = ZIP_OK;
; 1780 : 
; 1781 :   uLong Zip64DataSize = 44;
; 1782 : 
; 1783 :   err = zip64local_putValue(&zi->z_filefunc,zi->filestream,(uLong)ZIP64ENDHEADERMAGIC,4);

  00018	f9402e61	 ldr         x1,[x19,#0x58]
  0001c	aa0203f6	 mov         x22,x2
  00020	52800083	 mov         w3,#4
  00024	d2896a02	 mov         x2,#0x4B50
  00028	f2a0c0c2	 movk        x2,#0x606,lsl #0x10
  0002c	94000000	 bl          zip64local_putValue

; 1784 : 
; 1785 :   if (err==ZIP_OK) /* size of this 'zip64 end of central directory' */

  00030	35000000	 cbnz        w0,|$LN10@Write_Zip6|

; 1786 :     err = zip64local_putValue(&zi->z_filefunc,zi->filestream,(ZPOS64_T)Zip64DataSize,8); // why ZPOS64_T of this ?

  00034	f9402e61	 ldr         x1,[x19,#0x58]
  00038	52800103	 mov         w3,#8
  0003c	d2800582	 mov         x2,#0x2C
  00040	aa1303e0	 mov         x0,x19
  00044	94000000	 bl          zip64local_putValue

; 1787 : 
; 1788 :   if (err==ZIP_OK) /* version made by */

  00048	35000000	 cbnz        w0,|$LN10@Write_Zip6|

; 1789 :     err = zip64local_putValue(&zi->z_filefunc,zi->filestream,(uLong)45,2);

  0004c	f9402e61	 ldr         x1,[x19,#0x58]
  00050	52800043	 mov         w3,#2
  00054	d28005a2	 mov         x2,#0x2D
  00058	aa1303e0	 mov         x0,x19
  0005c	94000000	 bl          zip64local_putValue

; 1790 : 
; 1791 :   if (err==ZIP_OK) /* version needed */

  00060	35000000	 cbnz        w0,|$LN10@Write_Zip6|

; 1792 :     err = zip64local_putValue(&zi->z_filefunc,zi->filestream,(uLong)45,2);

  00064	f9402e61	 ldr         x1,[x19,#0x58]
  00068	52800043	 mov         w3,#2
  0006c	d28005a2	 mov         x2,#0x2D
  00070	aa1303e0	 mov         x0,x19
  00074	94000000	 bl          zip64local_putValue

; 1793 : 
; 1794 :   if (err==ZIP_OK) /* number of this disk */

  00078	35000000	 cbnz        w0,|$LN10@Write_Zip6|

; 1795 :     err = zip64local_putValue(&zi->z_filefunc,zi->filestream,(uLong)0,4);

  0007c	f9402e61	 ldr         x1,[x19,#0x58]
  00080	52800083	 mov         w3,#4
  00084	d2800002	 mov         x2,#0
  00088	aa1303e0	 mov         x0,x19
  0008c	94000000	 bl          zip64local_putValue

; 1796 : 
; 1797 :   if (err==ZIP_OK) /* number of the disk with the start of the central directory */

  00090	35000000	 cbnz        w0,|$LN10@Write_Zip6|

; 1798 :     err = zip64local_putValue(&zi->z_filefunc,zi->filestream,(uLong)0,4);

  00094	f9402e61	 ldr         x1,[x19,#0x58]
  00098	52800083	 mov         w3,#4
  0009c	d2800002	 mov         x2,#0
  000a0	aa1303e0	 mov         x0,x19
  000a4	94000000	 bl          zip64local_putValue

; 1799 : 
; 1800 :   if (err==ZIP_OK) /* total number of entries in the central dir on this disk */

  000a8	35000000	 cbnz        w0,|$LN10@Write_Zip6|

; 1801 :     err = zip64local_putValue(&zi->z_filefunc, zi->filestream, zi->number_entry, 8);

  000ac	91404274	 add         x20,x19,#0x10,lsl #0xC
  000b0	f9402e61	 ldr         x1,[x19,#0x58]
  000b4	52800103	 mov         w3,#8
  000b8	aa1303e0	 mov         x0,x19
  000bc	f940ae82	 ldr         x2,[x20,#0x158]
  000c0	94000000	 bl          zip64local_putValue

; 1802 : 
; 1803 :   if (err==ZIP_OK) /* total number of entries in the central dir */

  000c4	35000000	 cbnz        w0,|$LN10@Write_Zip6|

; 1804 :     err = zip64local_putValue(&zi->z_filefunc, zi->filestream, zi->number_entry, 8);

  000c8	f940ae82	 ldr         x2,[x20,#0x158]
  000cc	52800103	 mov         w3,#8
  000d0	f9402e61	 ldr         x1,[x19,#0x58]
  000d4	aa1303e0	 mov         x0,x19
  000d8	94000000	 bl          zip64local_putValue

; 1805 : 
; 1806 :   if (err==ZIP_OK) /* size of the central directory */

  000dc	35000000	 cbnz        w0,|$LN10@Write_Zip6|

; 1807 :     err = zip64local_putValue(&zi->z_filefunc,zi->filestream,(ZPOS64_T)size_centraldir,8);

  000e0	f9402e61	 ldr         x1,[x19,#0x58]
  000e4	52800103	 mov         w3,#8
  000e8	aa1503e2	 mov         x2,x21
  000ec	aa1303e0	 mov         x0,x19
  000f0	94000000	 bl          zip64local_putValue

; 1808 : 
; 1809 :   if (err==ZIP_OK) /* offset of start of central directory with respect to the starting disk number */

  000f4	35000000	 cbnz        w0,|$LN10@Write_Zip6|

; 1810 :   {
; 1811 :     ZPOS64_T pos = centraldir_pos_inzip - zi->add_position_when_writing_offset;

  000f8	91404268	 add         x8,x19,#0x10,lsl #0xC

; 1812 :     err = zip64local_putValue(&zi->z_filefunc,zi->filestream, (ZPOS64_T)pos,8);

  000fc	f9402e61	 ldr         x1,[x19,#0x58]
  00100	52800103	 mov         w3,#8
  00104	aa1303e0	 mov         x0,x19
  00108	f940a909	 ldr         x9,[x8,#0x150]
  0010c	cb0902c2	 sub         x2,x22,x9
  00110	94000000	 bl          zip64local_putValue
  00114		 |$LN10@Write_Zip6|
  00114	a8c17bfd	 ldp         fp,lr,[sp],#0x10
  00118	a9415bf5	 ldp         x21,x22,[sp,#0x10]
  0011c	a8c253f3	 ldp         x19,x20,[sp],#0x20
  00120	d65f03c0	 ret

			 ENDP  ; |Write_Zip64EndOfCentralDirectoryRecord|

; Function compile flags: /Ogtp
; File C:\Users\ws103\Desktop\zlib-1.2.11\contrib\minizip\zip.c

	AREA	|.text$mn|, CODE, ARM64

  00000		 |Write_EndOfCentralDirectoryRecord| PROC

; 1817 : {

  00000		 |$LN17|
  00000	a9be53f3	 stp         x19,x20,[sp,#-0x20]!
  00004	a9015bf5	 stp         x21,x22,[sp,#0x10]
  00008	a9bf7bfd	 stp         fp,lr,[sp,#-0x10]!
  0000c	910003fd	 mov         fp,sp
  00010	aa0003f3	 mov         x19,x0
  00014	d3407c35	 uxtw        x21,w1

; 1818 :   int err = ZIP_OK;
; 1819 : 
; 1820 :   /*signature*/
; 1821 :   err = zip64local_putValue(&zi->z_filefunc,zi->filestream,(uLong)ENDHEADERMAGIC,4);

  00018	f9402e61	 ldr         x1,[x19,#0x58]
  0001c	aa0203f4	 mov         x20,x2
  00020	52800083	 mov         w3,#4
  00024	d2896a02	 mov         x2,#0x4B50
  00028	f2a0c0a2	 movk        x2,#0x605,lsl #0x10
  0002c	94000000	 bl          zip64local_putValue

; 1822 : 
; 1823 :   if (err==ZIP_OK) /* number of this disk */

  00030	35000000	 cbnz        w0,|$LN13@Write_EndO|

; 1824 :     err = zip64local_putValue(&zi->z_filefunc,zi->filestream,(uLong)0,2);

  00034	f9402e61	 ldr         x1,[x19,#0x58]
  00038	52800043	 mov         w3,#2
  0003c	d2800002	 mov         x2,#0
  00040	aa1303e0	 mov         x0,x19
  00044	94000000	 bl          zip64local_putValue

; 1825 : 
; 1826 :   if (err==ZIP_OK) /* number of the disk with the start of the central directory */

  00048	35000000	 cbnz        w0,|$LN13@Write_EndO|

; 1827 :     err = zip64local_putValue(&zi->z_filefunc,zi->filestream,(uLong)0,2);

  0004c	f9402e61	 ldr         x1,[x19,#0x58]
  00050	52800043	 mov         w3,#2
  00054	d2800002	 mov         x2,#0
  00058	aa1303e0	 mov         x0,x19
  0005c	94000000	 bl          zip64local_putValue

; 1828 : 
; 1829 :   if (err==ZIP_OK) /* total number of entries in the central dir on this disk */

  00060	35000000	 cbnz        w0,|$LN13@Write_EndO|

; 1830 :   {
; 1831 :     {
; 1832 :       if(zi->number_entry >= 0xFFFF)

  00064	91404276	 add         x22,x19,#0x10,lsl #0xC
  00068	d29fffea	 mov         x10,#0xFFFF
  0006c	f9402e61	 ldr         x1,[x19,#0x58]

; 1833 :         err = zip64local_putValue(&zi->z_filefunc,zi->filestream,(uLong)0xffff,2); // use value in ZIP64 record

  00070	d29fffeb	 mov         x11,#0xFFFF
  00074	f940aec9	 ldr         x9,[x22,#0x158]

; 1834 :       else
; 1835 :         err = zip64local_putValue(&zi->z_filefunc,zi->filestream,(uLong)zi->number_entry,2);
; 1836 :     }
; 1837 :   }
; 1838 : 
; 1839 :   if (err==ZIP_OK) /* total number of entries in the central dir */

  00078	52800043	 mov         w3,#2
  0007c	aa1303e0	 mov         x0,x19
  00080	d3407d28	 uxtw        x8,w9
  00084	eb0a013f	 cmp         x9,x10
  00088	9a8b3102	 csello      x2,x8,x11
  0008c	94000000	 bl          zip64local_putValue
  00090	35000000	 cbnz        w0,|$LN13@Write_EndO|

; 1840 :   {
; 1841 :     if(zi->number_entry >= 0xFFFF)

  00094	f940aec9	 ldr         x9,[x22,#0x158]
  00098	d29fffea	 mov         x10,#0xFFFF
  0009c	f9402e61	 ldr         x1,[x19,#0x58]

; 1842 :       err = zip64local_putValue(&zi->z_filefunc,zi->filestream,(uLong)0xffff,2); // use value in ZIP64 record

  000a0	d29fffeb	 mov         x11,#0xFFFF

; 1843 :     else
; 1844 :       err = zip64local_putValue(&zi->z_filefunc,zi->filestream,(uLong)zi->number_entry,2);
; 1845 :   }
; 1846 : 
; 1847 :   if (err==ZIP_OK) /* size of the central directory */

  000a4	52800043	 mov         w3,#2
  000a8	aa1303e0	 mov         x0,x19
  000ac	d3407d28	 uxtw        x8,w9
  000b0	eb0a013f	 cmp         x9,x10
  000b4	9a8b3102	 csello      x2,x8,x11
  000b8	94000000	 bl          zip64local_putValue
  000bc	35000000	 cbnz        w0,|$LN13@Write_EndO|

; 1848 :     err = zip64local_putValue(&zi->z_filefunc,zi->filestream,(uLong)size_centraldir,4);

  000c0	f9402e61	 ldr         x1,[x19,#0x58]
  000c4	52800083	 mov         w3,#4
  000c8	aa1503e2	 mov         x2,x21
  000cc	aa1303e0	 mov         x0,x19
  000d0	94000000	 bl          zip64local_putValue

; 1849 : 
; 1850 :   if (err==ZIP_OK) /* offset of start of central directory with respect to the starting disk number */

  000d4	35000000	 cbnz        w0,|$LN13@Write_EndO|

; 1851 :   {
; 1852 :     ZPOS64_T pos = centraldir_pos_inzip - zi->add_position_when_writing_offset;

  000d8	9140426a	 add         x10,x19,#0x10,lsl #0xC

; 1853 :     if(pos >= 0xffffffff)

  000dc	b2407feb	 mov         x11,#0xFFFFFFFF
  000e0	f940a948	 ldr         x8,[x10,#0x150]
  000e4	cb080289	 sub         x9,x20,x8
  000e8	eb0b013f	 cmp         x9,x11
  000ec	54000003	 blo         |$LN12@Write_EndO|

; 1854 :     {
; 1855 :       err = zip64local_putValue(&zi->z_filefunc,zi->filestream, (uLong)0xffffffff,4);

  000f0	b2407fe2	 mov         x2,#0xFFFFFFFF

; 1856 :     }

  000f4	14000007	 b           |$LN15@Write_EndO|
  000f8		 |$LN12@Write_EndO|

; 1857 :     else
; 1858 :       err = zip64local_putValue(&zi->z_filefunc,zi->filestream, (uLong)(centraldir_pos_inzip - zi->add_position_when_writing_offset),4);

  000f8	b2407fe8	 mov         x8,#0xFFFFFFFF
  000fc	eb08013f	 cmp         x9,x8
  00100	9a9f3129	 csello      x9,x9,xzr
  00104	d503229f	 csdb
  00108	f940a948	 ldr         x8,[x10,#0x150]
  0010c	4b080282	 sub         w2,w20,w8
  00110		 |$LN15@Write_EndO|

; 1859 :   }
; 1860 : 
; 1861 :    return err;
; 1862 : }

  00110	f9402e61	 ldr         x1,[x19,#0x58]
  00114	52800083	 mov         w3,#4
  00118	aa1303e0	 mov         x0,x19
  0011c	94000000	 bl          zip64local_putValue
  00120		 |$LN13@Write_EndO|
  00120	a8c17bfd	 ldp         fp,lr,[sp],#0x10
  00124	a9415bf5	 ldp         x21,x22,[sp,#0x10]
  00128	a8c253f3	 ldp         x19,x20,[sp],#0x20
  0012c	d65f03c0	 ret

			 ENDP  ; |Write_EndOfCentralDirectoryRecord|

; Function compile flags: /Ogtp
; File C:\Users\ws103\Desktop\zlib-1.2.11\contrib\minizip\zip.c

	AREA	|.text$mn|, CODE, ARM64

  00000		 |Write_GlobalComment| PROC

; 1865 : {

  00000		 |$LN13|
  00000	a9be53f3	 stp         x19,x20,[sp,#-0x20]!
  00004	a9015bf5	 stp         x21,x22,[sp,#0x10]
  00008	a9bf7bfd	 stp         fp,lr,[sp,#-0x10]!
  0000c	910003fd	 mov         fp,sp
  00010	aa0003f6	 mov         x22,x0
  00014	aa0103f3	 mov         x19,x1

; 1866 :   int err = ZIP_OK;
; 1867 :   uInt size_global_comment = 0;

  00018	52800014	 mov         w20,#0

; 1868 : 
; 1869 :   if(global_comment != NULL)

  0001c	b4000013	 cbz         x19,|$LN2@Write_Glob|

; 1870 :     size_global_comment = (uInt)strlen(global_comment);

  00020	39c00268	 ldrsb       w8,[x19]
  00024	aa1303e9	 mov         x9,x19
  00028	34000008	 cbz         w8,|$LN6@Write_Glob|
  0002c		 |$LL7@Write_Glob|
  0002c	38c01d28	 ldrsb       w8,[x9,#1]!
  00030	35000008	 cbnz        w8,|$LL7@Write_Glob|
  00034		 |$LN6@Write_Glob|
  00034	cb130134	 sub         x20,x9,x19
  00038		 |$LN2@Write_Glob|

; 1871 : 
; 1872 :   err = zip64local_putValue(&zi->z_filefunc,zi->filestream,(uLong)size_global_comment,2);

  00038	f9402ec1	 ldr         x1,[x22,#0x58]
  0003c	52800043	 mov         w3,#2
  00040	d3407e82	 uxtw        x2,w20
  00044	aa1603e0	 mov         x0,x22
  00048	94000000	 bl          zip64local_putValue
  0004c	2a0003f5	 mov         w21,w0

; 1873 : 
; 1874 :   if (err == ZIP_OK && size_global_comment > 0)

  00050	710002bf	 cmp         w21,#0
  00054	7a400a84	 ccmpeq      w20,#0,#4
  00058	54000009	 bls         |$LN4@Write_Glob|

; 1875 :   {
; 1876 :     if (ZWRITE64(zi->z_filefunc,zi->filestream, global_comment, size_global_comment) != size_global_comment)

  0005c	7100029f	 cmp         w20,#0
  00060	1a9f8294	 cselhi      w20,w20,wzr
  00064	d503229f	 csdb
  00068	f9402ec1	 ldr         x1,[x22,#0x58]
  0006c	f9401ec0	 ldr         x0,[x22,#0x38]
  00070	2a1403e3	 mov         w3,w20
  00074	f9400ac8	 ldr         x8,[x22,#0x10]
  00078	aa1303e2	 mov         x2,x19
  0007c	d63f0100	 blr         x8
  00080	12800008	 mov         w8,#-1
  00084	6b14001f	 cmp         w0,w20
  00088	1a951115	 cselne      w21,w8,w21
  0008c		 |$LN4@Write_Glob|

; 1877 :       err = ZIP_ERRNO;
; 1878 :   }
; 1879 :   return err;

  0008c	2a1503e0	 mov         w0,w21
  00090	a8c17bfd	 ldp         fp,lr,[sp],#0x10
  00094	a9415bf5	 ldp         x21,x22,[sp,#0x10]
  00098	a8c253f3	 ldp         x19,x20,[sp],#0x20
  0009c	d65f03c0	 ret

			 ENDP  ; |Write_GlobalComment|

; Function compile flags: /Ogtp
; File C:\Users\ws103\Desktop\zlib-1.2.11\contrib\minizip\zip.c

	AREA	|.text$mn|, CODE, ARM64

  00000		 |zipClose| PROC

; 1883 : {

  00000		 |$LN26|
  00000	a9bc53f3	 stp         x19,x20,[sp,#-0x40]!
  00004	a9015bf5	 stp         x21,x22,[sp,#0x10]
  00008	a90263f7	 stp         x23,x24,[sp,#0x20]
  0000c	f9001bf9	 str         x25,[sp,#0x30]
  00010	a9bf7bfd	 stp         fp,lr,[sp,#-0x10]!
  00014	910003fd	 mov         fp,sp
  00018	aa0003f4	 mov         x20,x0
  0001c	aa0103f7	 mov         x23,x1

; 1884 :     zip64_internal* zi;
; 1885 :     int err = 0;

  00020	52800015	 mov         w21,#0

; 1886 :     uLong size_centraldir = 0;

  00024	52800016	 mov         w22,#0

; 1887 :     ZPOS64_T centraldir_pos_inzip;
; 1888 :     ZPOS64_T pos;
; 1889 : 
; 1890 :     if (file == NULL)

  00028	b5000014	 cbnz        x20,|$LN4@zipClose|

; 1891 :         return ZIP_PARAMERROR;

  0002c	12800ca0	 mov         w0,#-0x66
  00030	14000057	 b           |$LN1@zipClose|
  00034		 |$LN4@zipClose|

; 1892 : 
; 1893 :     zi = (zip64_internal*)file;
; 1894 : 
; 1895 :     if (zi->in_opened_file_inzip == 1)

  00034	b9407288	 ldr         w8,[x20,#0x70]
  00038	7100051f	 cmp         w8,#1
  0003c	54000001	 bne         |$LN5@zipClose|

; 1896 :     {
; 1897 :         err = zipCloseFileInZip (file);

  00040	aa1403e0	 mov         x0,x20
  00044	94000000	 bl          zipCloseFileInZip
  00048	2a0003f5	 mov         w21,w0
  0004c		 |$LN5@zipClose|

; 1898 :     }
; 1899 : 
; 1900 : #ifndef NO_ADDFILEINEXISTINGZIP
; 1901 :     if (global_comment==NULL)

  0004c	b5000017	 cbnz        x23,|$LN24@zipClose|

; 1902 :         global_comment = zi->globalcomment;

  00050	91404288	 add         x8,x20,#0x10,lsl #0xC
  00054	f940b117	 ldr         x23,[x8,#0x160]
  00058		 |$LN24@zipClose|

; 1903 : #endif
; 1904 : 
; 1905 :     centraldir_pos_inzip = ZTELL64(zi->z_filefunc,zi->filestream);

  00058	f9402e81	 ldr         x1,[x20,#0x58]
  0005c	aa1403e0	 mov         x0,x20
  00060	94000000	 bl          call_ztell64
  00064	aa0003f8	 mov         x24,x0

; 1906 : 
; 1907 :     if (err==ZIP_OK)

  00068	35000015	 cbnz        w21,|$LN3@zipClose|

; 1908 :     {
; 1909 :         linkedlist_datablock_internal* ldi = zi->central_dir.first_block;

  0006c	f9403293	 ldr         x19,[x20,#0x60]

; 1910 :         while (ldi!=NULL)

  00070	b4000013	 cbz         x19,|$LN3@zipClose|
  00074	12800019	 mov         w25,#-1
  00078		 |$LL2@zipClose|

; 1911 :         {
; 1912 :             if ((err==ZIP_OK) && (ldi->filled_in_this_block>0))

  00078	35000015	 cbnz        w21,|$LN9@zipClose|
  0007c	b9400e63	 ldr         w3,[x19,#0xC]
  00080	34000003	 cbz         w3,|$LN9@zipClose|

; 1913 :             {
; 1914 :                 if (ZWRITE64(zi->z_filefunc,zi->filestream, ldi->data, ldi->filled_in_this_block) != ldi->filled_in_this_block)

  00084	f9402e81	 ldr         x1,[x20,#0x58]
  00088	91005262	 add         x2,x19,#0x14
  0008c	f9401e80	 ldr         x0,[x20,#0x38]
  00090	f9400a88	 ldr         x8,[x20,#0x10]
  00094	d63f0100	 blr         x8
  00098	b9400e68	 ldr         w8,[x19,#0xC]
  0009c	6b08001f	 cmp         w0,w8
  000a0	1a951335	 cselne      w21,w25,w21
  000a4		 |$LN9@zipClose|

; 1915 :                     err = ZIP_ERRNO;
; 1916 :             }
; 1917 : 
; 1918 :             size_centraldir += ldi->filled_in_this_block;

  000a4	b9400e68	 ldr         w8,[x19,#0xC]

; 1919 :             ldi = ldi->next_datablock;

  000a8	f9400273	 ldr         x19,[x19]
  000ac	0b160116	 add         w22,w8,w22
  000b0	b5000013	 cbnz        x19,|$LL2@zipClose|
  000b4		 |$LN3@zipClose|

; 1920 :         }
; 1921 :     }
; 1922 :     free_linkedlist(&(zi->central_dir));

  000b4	91018280	 add         x0,x20,#0x60
  000b8	94000000	 bl          free_linkedlist

; 1923 : 
; 1924 :     pos = centraldir_pos_inzip - zi->add_position_when_writing_offset;

  000bc	91404288	 add         x8,x20,#0x10,lsl #0xC

; 1925 :     if(pos >= 0xffffffff || zi->number_entry > 0xFFFF)

  000c0	b2407feb	 mov         x11,#0xFFFFFFFF
  000c4	f940a909	 ldr         x9,[x8,#0x150]
  000c8	cb09030a	 sub         x10,x24,x9
  000cc	eb0b015f	 cmp         x10,x11
  000d0	54000002	 bhs         |$LN11@zipClose|
  000d4	91404288	 add         x8,x20,#0x10,lsl #0xC
  000d8	d29fffe9	 mov         x9,#0xFFFF
  000dc	f940ad08	 ldr         x8,[x8,#0x158]
  000e0	eb09011f	 cmp         x8,x9
  000e4	54000009	 bls         |$LN10@zipClose|
  000e8		 |$LN11@zipClose|

; 1926 :     {
; 1927 :       ZPOS64_T Zip64EOCDpos = ZTELL64(zi->z_filefunc,zi->filestream);

  000e8	f9402e81	 ldr         x1,[x20,#0x58]
  000ec	aa1403e0	 mov         x0,x20
  000f0	94000000	 bl          call_ztell64

; 1928 :       Write_Zip64EndOfCentralDirectoryRecord(zi, size_centraldir, centraldir_pos_inzip);

  000f4	aa1803e2	 mov         x2,x24
  000f8	aa0003f3	 mov         x19,x0
  000fc	aa1403e0	 mov         x0,x20
  00100	2a1603e1	 mov         w1,w22
  00104	94000000	 bl          Write_Zip64EndOfCentralDirectoryRecord

; 1929 : 
; 1930 :       Write_Zip64EndOfCentralDirectoryLocator(zi, Zip64EOCDpos);

  00108	aa1303e1	 mov         x1,x19
  0010c	aa1403e0	 mov         x0,x20
  00110	94000000	 bl          Write_Zip64EndOfCentralDirectoryLocator
  00114		 |$LN10@zipClose|

; 1931 :     }
; 1932 : 
; 1933 :     if (err==ZIP_OK)

  00114	35000015	 cbnz        w21,|$LN13@zipClose|

; 1934 :       err = Write_EndOfCentralDirectoryRecord(zi, size_centraldir, centraldir_pos_inzip);

  00118	aa1803e2	 mov         x2,x24
  0011c	2a1603e1	 mov         w1,w22
  00120	aa1403e0	 mov         x0,x20
  00124	94000000	 bl          Write_EndOfCentralDirectoryRecord
  00128	2a0003f5	 mov         w21,w0

; 1935 : 
; 1936 :     if(err == ZIP_OK)

  0012c	35000015	 cbnz        w21,|$LN13@zipClose|

; 1937 :       err = Write_GlobalComment(zi, global_comment);

  00130	aa1703e1	 mov         x1,x23
  00134	aa1403e0	 mov         x0,x20
  00138	94000000	 bl          Write_GlobalComment
  0013c	2a0003f5	 mov         w21,w0
  00140		 |$LN13@zipClose|

; 1938 : 
; 1939 :     if (ZCLOSE64(zi->z_filefunc,zi->filestream) != 0)

  00140	f9402e81	 ldr         x1,[x20,#0x58]
  00144	f9401e80	 ldr         x0,[x20,#0x38]
  00148	f9401688	 ldr         x8,[x20,#0x28]
  0014c	d63f0100	 blr         x8
  00150	34000000	 cbz         w0,|$LN15@zipClose|

; 1940 :         if (err == ZIP_OK)

  00154	710002bf	 cmp         w21,#0
  00158	12800008	 mov         w8,#-1
  0015c	1a950115	 cseleq      w21,w8,w21
  00160		 |$LN15@zipClose|

; 1941 :             err = ZIP_ERRNO;
; 1942 : 
; 1943 : #ifndef NO_ADDFILEINEXISTINGZIP
; 1944 :     TRYFREE(zi->globalcomment);

  00160	91404288	 add         x8,x20,#0x10,lsl #0xC
  00164	f940b100	 ldr         x0,[x8,#0x160]
  00168	b4000000	 cbz         x0,|$LN16@zipClose|
  0016c	90000008	 adrp        x8,__imp_free
  00170	f9400108	 ldr         x8,[x8,PageOffset(__imp_free)]
  00174	d63f0100	 blr         x8
  00178		 |$LN16@zipClose|

; 1945 : #endif
; 1946 :     TRYFREE(zi);

  00178	90000008	 adrp        x8,__imp_free
  0017c	f9400108	 ldr         x8,[x8,PageOffset(__imp_free)]
  00180	aa1403e0	 mov         x0,x20
  00184	d63f0100	 blr         x8

; 1947 : 
; 1948 :     return err;

  00188	2a1503e0	 mov         w0,w21
  0018c		 |$LN1@zipClose|
  0018c	a8c17bfd	 ldp         fp,lr,[sp],#0x10
  00190	f9401bf9	 ldr         x25,[sp,#0x30]
  00194	a94263f7	 ldp         x23,x24,[sp,#0x20]
  00198	a9415bf5	 ldp         x21,x22,[sp,#0x10]
  0019c	a8c453f3	 ldp         x19,x20,[sp],#0x40
  001a0	d65f03c0	 ret

			 ENDP  ; |zipClose|

; Function compile flags: /Ogtp
; File C:\Users\ws103\Desktop\zlib-1.2.11\contrib\minizip\zip.c

	AREA	|.text$mn|, CODE, ARM64

  00000		 |zipRemoveExtraInfoBlock| PROC

; 1952 : {

  00000		 |$LN18|
  00000	a9bc53f3	 stp         x19,x20,[sp,#-0x40]!
  00004	a9015bf5	 stp         x21,x22,[sp,#0x10]
  00008	a90263f7	 stp         x23,x24,[sp,#0x20]
  0000c	a9036bf9	 stp         x25,x26,[sp,#0x30]
  00010	a9bf7bfd	 stp         fp,lr,[sp,#-0x10]!
  00014	910003fd	 mov         fp,sp
  00018	aa0003f6	 mov         x22,x0

; 1953 :   char* p = pData;

  0001c	aa1603f3	 mov         x19,x22
  00020	aa0103f8	 mov         x24,x1
  00024	13003c5a	 sxth        w26,w2

; 1954 :   int size = 0;

  00028	52800017	 mov         w23,#0

; 1955 :   char* pNewHeader;
; 1956 :   char* pTmp;
; 1957 :   short header;
; 1958 :   short dataSize;
; 1959 : 
; 1960 :   int retVal = ZIP_OK;
; 1961 : 
; 1962 :   if(pData == NULL || *dataLen < 4)

  0002c	b4000016	 cbz         x22,|$LN5@zipRemoveE|
  00030	b9400308	 ldr         w8,[x24]
  00034	7100111f	 cmp         w8,#4
  00038	5400000b	 blt         |$LN5@zipRemoveE|

; 1964 : 
; 1965 :   pNewHeader = (char*)ALLOC(*dataLen);

  0003c	93407d00	 sxtw        x0,w8
  00040	90000009	 adrp        x9,__imp_malloc
  00044	f9400128	 ldr         x8,[x9,PageOffset(__imp_malloc)]
  00048	d63f0100	 blr         x8

; 1966 :   pTmp = pNewHeader;
; 1967 : 
; 1968 :   while(p < (pData + *dataLen))

  0004c	b9400309	 ldr         w9,[x24]
  00050	aa0003f9	 mov         x25,x0
  00054	8b29c2c8	 add         x8,x22,w9,sxtw #0
  00058	eb0802df	 cmp         x22,x8
  0005c	54000002	 bhs         |$LN3@zipRemoveE|
  00060		 |$LL2@zipRemoveE|

; 1969 :   {
; 1970 :     header = *(short*)p;
; 1971 :     dataSize = *(((short*)p)+1);
; 1972 : 
; 1973 :     if( header == sHeader ) // Header found.

  00060	79c00675	 ldrsh       w21,[x19,#2]
  00064	79c00268	 ldrsh       w8,[x19]
  00068	110012b4	 add         w20,w21,#4
  0006c	6b1a011f	 cmp         w8,w26
  00070	54000000	 beq         |$LN16@zipRemoveE|

; 1974 :     {
; 1975 :       p += dataSize + 4; // skip it. do not copy to temp buffer
; 1976 :     }
; 1977 :     else
; 1978 :     {
; 1979 :       // Extra Info block should not be removed, So copy it to the temp buffer.
; 1980 :       memcpy(pTmp, p, dataSize + 4);

  00074	93407e82	 sxtw        x2,w20
  00078	aa1303e1	 mov         x1,x19
  0007c	aa1903e0	 mov         x0,x25
  00080	94000000	 bl          memcpy

; 1981 :       p += dataSize + 4;
; 1982 :       size += dataSize + 4;

  00084	0b1702a8	 add         w8,w21,w23
  00088	11001117	 add         w23,w8,#4
  0008c		 |$LN16@zipRemoveE|

; 1966 :   pTmp = pNewHeader;
; 1967 : 
; 1968 :   while(p < (pData + *dataLen))

  0008c	b9400309	 ldr         w9,[x24]
  00090	93407e88	 sxtw        x8,w20
  00094	8b130113	 add         x19,x8,x19
  00098	8b29c2c8	 add         x8,x22,w9,sxtw #0
  0009c	eb08027f	 cmp         x19,x8
  000a0	54000003	 blo         |$LL2@zipRemoveE|
  000a4		 |$LN3@zipRemoveE|

; 1983 :     }
; 1984 : 
; 1985 :   }
; 1986 : 
; 1987 :   if(size < *dataLen)

  000a4	6b0902ff	 cmp         w23,w9
  000a8	5400000a	 bge         |$LN8@zipRemoveE|

; 1988 :   {
; 1989 :     // clean old extra info block.
; 1990 :     memset(pData,0, *dataLen);

  000ac	93407d22	 sxtw        x2,w9
  000b0	52800001	 mov         w1,#0
  000b4	aa1603e0	 mov         x0,x22
  000b8	94000000	 bl          memset

; 1991 : 
; 1992 :     // copy the new extra info block over the old
; 1993 :     if(size > 0)

  000bc	710002ff	 cmp         w23,#0
  000c0	5400000d	 ble         |$LN10@zipRemoveE|

; 1994 :       memcpy(pData, pNewHeader, size);

  000c4	93407ee2	 sxtw        x2,w23
  000c8	aa1903e1	 mov         x1,x25
  000cc	aa1603e0	 mov         x0,x22
  000d0	94000000	 bl          memcpy
  000d4		 |$LN10@zipRemoveE|

; 1995 : 
; 1996 :     // set the new extra info size
; 1997 :     *dataLen = size;

  000d4	b9000317	 str         w23,[x24]

; 1998 : 
; 1999 :     retVal = ZIP_OK;

  000d8	52800013	 mov         w19,#0

; 2000 :   }

  000dc	14000002	 b           |$LN9@zipRemoveE|
  000e0		 |$LN8@zipRemoveE|

; 2001 :   else
; 2002 :     retVal = ZIP_ERRNO;

  000e0	12800013	 mov         w19,#-1
  000e4		 |$LN9@zipRemoveE|

; 2003 : 
; 2004 :   TRYFREE(pNewHeader);

  000e4	b4000019	 cbz         x25,|$LN11@zipRemoveE|
  000e8	90000008	 adrp        x8,__imp_free
  000ec	f9400108	 ldr         x8,[x8,PageOffset(__imp_free)]
  000f0	aa1903e0	 mov         x0,x25
  000f4	d63f0100	 blr         x8
  000f8		 |$LN11@zipRemoveE|

; 2005 : 
; 2006 :   return retVal;

  000f8	2a1303e0	 mov         w0,w19
  000fc	14000002	 b           |$LN1@zipRemoveE|
  00100		 |$LN5@zipRemoveE|

; 1963 :     return ZIP_PARAMERROR;

  00100	12800ca0	 mov         w0,#-0x66
  00104		 |$LN1@zipRemoveE|
  00104	a8c17bfd	 ldp         fp,lr,[sp],#0x10
  00108	a9436bf9	 ldp         x25,x26,[sp,#0x30]
  0010c	a94263f7	 ldp         x23,x24,[sp,#0x20]
  00110	a9415bf5	 ldp         x21,x22,[sp,#0x10]
  00114	a8c453f3	 ldp         x19,x20,[sp],#0x40
  00118	d65f03c0	 ret

			 ENDP  ; |zipRemoveExtraInfoBlock|

	END
