 zlibwapi

 Timestamp is 5ffa3bc8 (Sat Jan  9 17:27:04 2021)

 Preferred load address is 0000000180000000

 Start         Length     Name                   Class
 0001:00000000 00000030H .text                   CODE
 0001:00000030 00014310H .text$mn                CODE
 0001:00014340 000000f4H .text$x                 CODE
 0002:00000000 00000228H .idata$5                DATA
 0002:00000228 00000010H .00cfg                  DATA
 0002:00000238 00000008H .CRT$XCA                DATA
 0002:00000240 00000008H .CRT$XCZ                DATA
 0002:00000248 00000008H .CRT$XIA                DATA
 0002:00000250 00000008H .CRT$XIZ                DATA
 0002:00000258 00000008H .CRT$XPA                DATA
 0002:00000260 00000008H .CRT$XPZ                DATA
 0002:00000268 00000008H .CRT$XTA                DATA
 0002:00000270 00000010H .CRT$XTZ                DATA
 0002:00000278 00000000H .gfids$y                DATA
 0002:00000280 00004500H .rdata                  DATA
 0002:00004780 00000008H .rdata$CastGuardVftablesA DATA
 0002:00004788 00000008H .rdata$CastGuardVftablesC DATA
 0002:00004790 00000310H .rdata$zzzdbg           DATA
 0002:00004aa0 00000008H .rtc$IAA                DATA
 0002:00004aa8 00000008H .rtc$IZZ                DATA
 0002:00004ab0 00000008H .rtc$TAA                DATA
 0002:00004ab8 00000008H .rtc$TZZ                DATA
 0002:00004ac0 00000990H .xdata                  DATA
 0002:00005450 00000cfcH .edata                  DATA
 0002:0000614c 000000b4H .idata$2                DATA
 0002:00006200 00000018H .idata$3                DATA
 0002:00006218 00000228H .idata$4                DATA
 0002:00006440 000004c0H .idata$6                DATA
 0003:00000000 00000020H .data                   DATA
 0003:00000020 000000a0H .bss                    DATA
 0004:00000000 000006d8H .pdata                  DATA
 0005:00000000 00000060H .rsrc$01                DATA
 0005:00000060 00000338H .rsrc$02                DATA

  Address         Publics by Value              Rva+Base               Lib:Object

 0000:00000000       __arm64x_redirection_metadata 0000000000000000     <absolute>
 0000:00000000       __x64_code_ranges_to_entry_points_count 0000000000000000     <absolute>
 0000:00000000       __AbsoluteZero             0000000000000000     <absolute>
 0000:00000000       ___safe_se_handler_table   0000000000000000     <absolute>
 0000:00000000       __hybrid_auxiliary_iat     0000000000000000     <absolute>
 0000:00000000       ___safe_se_handler_count   0000000000000000     <absolute>
 0000:00000000       __guard_fids_table         0000000000000000     <absolute>
 0000:00000000       __arm64x_extra_rfe_table_size 0000000000000000     <absolute>
 0000:00000000       __volatile_metadata        0000000000000000     <absolute>
 0000:00000000       __dynamic_value_reloc_table 0000000000000000     <absolute>
 0000:00000000       __x64_code_ranges_to_entry_points 0000000000000000     <absolute>
 0000:00000000       __guard_iat_table          0000000000000000     <absolute>
 0000:00000000       __hybrid_code_map_count    0000000000000000     <absolute>
 0000:00000000       __guard_longjmp_count      0000000000000000     <absolute>
 0000:00000000       __arm64x_extra_rfe_table   0000000000000000     <absolute>
 0000:00000000       __hybrid_code_map          0000000000000000     <absolute>
 0000:00000000       __guard_eh_cont_count      0000000000000000     <absolute>
 0000:00000000       __guard_iat_count          0000000000000000     <absolute>
 0000:00000000       __guard_longjmp_table      0000000000000000     <absolute>
 0000:00000000       __arm64x_redirection_metadata_count 0000000000000000     <absolute>
 0000:00000000       __enclave_config           0000000000000000     <absolute>
 0000:00000000       __guard_fids_count         0000000000000000     <absolute>
 0000:00000000       __arm64x_native_entrypoint 0000000000000000     <absolute>
 0000:00000000       __guard_eh_cont_table      0000000000000000     <absolute>
 0000:00000100       __guard_flags              0000000000000100     <absolute>
 0000:00000000       __ImageBase                0000000180000000     <linker-defined>
 0001:00000000       __chkstk                   0000000180001000 f   MSVCRT:chkstk.obj
 0001:00000000       _alloca_probe              0000000180001000 f   MSVCRT:chkstk.obj
 0001:00000030       adler32_z                  0000000180001030 f   adler32.obj
 0001:00000330       adler32                    0000000180001330 f   adler32.obj
 0001:00000418       adler32_combine            0000000180001418 f   adler32.obj
 0001:00000430       adler32_combine64          0000000180001430 f   adler32.obj
 0001:00000440       compress2                  0000000180001440 f   compress.obj
 0001:00000550       compress                   0000000180001550 f   compress.obj
 0001:00000568       compressBound              0000000180001568 f   compress.obj
 0001:00000580       get_crc_table              0000000180001580 f   crc32.obj
 0001:00000590       crc32_z                    0000000180001590 f   crc32.obj
 0001:000005b0       crc32                      00000001800015b0 f   crc32.obj
 0001:00000d48       crc32_combine              0000000180001d48 f   crc32.obj
 0001:00000d60       crc32_combine64            0000000180001d60 f   crc32.obj
 0001:00000dd0       deflateInit_               0000000180001dd0 f   deflate.obj
 0001:00000df8       deflateInit2_              0000000180001df8 f   deflate.obj
 0001:000010e8       deflateSetDictionary       00000001800020e8 f   deflate.obj
 0001:000012e8       deflateGetDictionary       00000001800022e8 f   deflate.obj
 0001:00001388       deflateResetKeep           0000000180002388 f   deflate.obj
 0001:00001470       deflateReset               0000000180002470 f   deflate.obj
 0001:000014c0       deflateSetHeader           00000001800024c0 f   deflate.obj
 0001:00001510       deflatePending             0000000180002510 f   deflate.obj
 0001:00001568       deflatePrime               0000000180002568 f   deflate.obj
 0001:00001620       deflateParams              0000000180002620 f   deflate.obj
 0001:000017c8       deflateTune                00000001800027c8 f   deflate.obj
 0001:00001810       deflateBound               0000000180002810 f   deflate.obj
 0001:00001a20       deflate                    0000000180002a20 f   deflate.obj
 0001:000025a0       deflateEnd                 00000001800035a0 f   deflate.obj
 0001:00002660       deflateCopy                0000000180003660 f   deflate.obj
 0001:00004248       gzclose                    0000000180005248 f   gzclose.obj
 0001:00004288       __local_stdio_printf_options 0000000180005288 f i gzlib.obj
 0001:00004298       vsnprintf                  0000000180005298 f i gzlib.obj
 0001:00004310       snprintf                   0000000180005310 f i gzlib.obj
 0001:000047b0       gzopen                     00000001800057b0 f   gzlib.obj
 0001:000047c8       gzopen64                   00000001800057c8 f   gzlib.obj
 0001:000047e0       gzdopen                    00000001800057e0 f   gzlib.obj
 0001:00004890       gzopen_w                   0000000180005890 f   gzlib.obj
 0001:000048a8       gzbuffer                   00000001800058a8 f   gzlib.obj
 0001:000048f8       gzrewind                   00000001800058f8 f   gzlib.obj
 0001:00004980       gzseek64                   0000000180005980 f   gzlib.obj
 0001:00004b30       gzseek                     0000000180005b30 f   gzlib.obj
 0001:00004b60       gztell64                   0000000180005b60 f   gzlib.obj
 0001:00004bb0       gztell                     0000000180005bb0 f   gzlib.obj
 0001:00004be0       gzoffset64                 0000000180005be0 f   gzlib.obj
 0001:00004c68       gzoffset                   0000000180005c68 f   gzlib.obj
 0001:00004c98       gzeof                      0000000180005c98 f   gzlib.obj
 0001:00004cc0       gzerror                    0000000180005cc0 f   gzlib.obj
 0001:00004d28       gzclearerr                 0000000180005d28 f   gzlib.obj
 0001:00004d78       gz_error                   0000000180005d78 f   gzlib.obj
 0001:000056e8       gzread                     00000001800066e8 f   gzread.obj
 0001:000057a0       gzfread                    00000001800067a0 f   gzread.obj
 0001:00005850       gzgetc                     0000000180006850 f   gzread.obj
 0001:000058f0       gzgetc_                    00000001800068f0 f   gzread.obj
 0001:00005900       gzungetc                   0000000180006900 f   gzread.obj
 0001:00005a68       gzgets                     0000000180006a68 f   gzread.obj
 0001:00005be0       gzdirect                   0000000180006be0 f   gzread.obj
 0001:00005c48       gzclose_r                  0000000180006c48 f   gzread.obj
 0001:000062c8       gzwrite                    00000001800072c8 f   gzwrite.obj
 0001:00006348       gzfwrite                   0000000180007348 f   gzwrite.obj
 0001:000063f0       gzputc                     00000001800073f0 f   gzwrite.obj
 0001:000064e8       gzputs                     00000001800074e8 f   gzwrite.obj
 0001:00006568       gzvprintf                  0000000180007568 f   gzwrite.obj
 0001:00006750       gzprintf                   0000000180007750 f   gzwrite.obj
 0001:00006788       gzflush                    0000000180007788 f   gzwrite.obj
 0001:00006830       gzsetparams                0000000180007830 f   gzwrite.obj
 0001:00006938       gzclose_w                  0000000180007938 f   gzwrite.obj
 0001:00006a70       inflateBackInit_           0000000180007a70 f   infback.obj
 0001:00006ba8       inflateBack                0000000180007ba8 f   infback.obj
 0001:00007b10       inflateBackEnd             0000000180008b10 f   infback.obj
 0001:00007b60       inflate_fast               0000000180008b60 f   inffast.obj
 0001:00008028       inflateResetKeep           0000000180009028 f   inflate.obj
 0001:000080c0       inflateReset               00000001800090c0 f   inflate.obj
 0001:00008118       inflateReset2              0000000180009118 f   inflate.obj
 0001:000081e0       inflateInit2_              00000001800091e0 f   inflate.obj
 0001:00008300       inflateInit_               0000000180009300 f   inflate.obj
 0001:00008320       inflatePrime               0000000180009320 f   inflate.obj
 0001:00008520       inflate                    0000000180009520 f   inflate.obj
 0001:00009cb0       inflateEnd                 000000018000acb0 f   inflate.obj
 0001:00009d20       inflateGetDictionary       000000018000ad20 f   inflate.obj
 0001:00009dd0       inflateSetDictionary       000000018000add0 f   inflate.obj
 0001:00009ee0       inflateGetHeader           000000018000aee0 f   inflate.obj
 0001:00009f90       inflateSync                000000018000af90 f   inflate.obj
 0001:0000a110       inflateSyncPoint           000000018000b110 f   inflate.obj
 0001:0000a170       inflateCopy                000000018000b170 f   inflate.obj
 0001:0000a330       inflateUndermine           000000018000b330 f   inflate.obj
 0001:0000a378       inflateValidate            000000018000b378 f   inflate.obj
 0001:0000a3d0       inflateMark                000000018000b3d0 f   inflate.obj
 0001:0000a460       inflateCodesUsed           000000018000b460 f   inflate.obj
 0001:0000a4a8       inflate_table              000000018000b4a8 f   inftrees.obj
 0001:0000a9c0       call_zopen64               000000018000b9c0 f   ioapi.obj
 0001:0000a9e0       call_zseek64               000000018000b9e0 f   ioapi.obj
 0001:0000aa10       call_ztell64               000000018000ba10 f   ioapi.obj
 0001:0000aa60       fill_zlib_filefunc64_32_def_from_filefunc32 000000018000ba60 f   ioapi.obj
 0001:0000acc8       fill_fopen_filefunc        000000018000bcc8 f   ioapi.obj
 0001:0000ad18       fill_fopen64_filefunc      000000018000bd18 f   ioapi.obj
 0001:0000ae50       win32_open64_file_func     000000018000be50 f   iowin32.obj
 0001:0000aed0       win32_open64_file_funcA    000000018000bed0 f   iowin32.obj
 0001:0000af50       win32_open64_file_funcW    000000018000bf50 f   iowin32.obj
 0001:0000afd0       win32_open_file_func       000000018000bfd0 f   iowin32.obj
 0001:0000b050       win32_read_file_func       000000018000c050 f   iowin32.obj
 0001:0000b0c0       win32_write_file_func      000000018000c0c0 f   iowin32.obj
 0001:0000b1a0       win32_tell_file_func       000000018000c1a0 f   iowin32.obj
 0001:0000b218       win32_tell64_file_func     000000018000c218 f   iowin32.obj
 0001:0000b290       win32_seek_file_func       000000018000c290 f   iowin32.obj
 0001:0000b330       win32_seek64_file_func     000000018000c330 f   iowin32.obj
 0001:0000b3d0       win32_close_file_func      000000018000c3d0 f   iowin32.obj
 0001:0000b420       win32_error_file_func      000000018000c420 f   iowin32.obj
 0001:0000b430       fill_win32_filefunc        000000018000c430 f   iowin32.obj
 0001:0000b480       fill_win32_filefunc64      000000018000c480 f   iowin32.obj
 0001:0000b4d0       fill_win32_filefunc64A     000000018000c4d0 f   iowin32.obj
 0001:0000b520       fill_win32_filefunc64W     000000018000c520 f   iowin32.obj
 0001:0000b578       _tr_init                   000000018000c578 f   trees.obj
 0001:0000c708       _tr_stored_block           000000018000d708 f   trees.obj
 0001:0000c850       _tr_flush_bits             000000018000d850 f   trees.obj
 0001:0000c860       _tr_align                  000000018000d860 f   trees.obj
 0001:0000c960       _tr_flush_block            000000018000d960 f   trees.obj
 0001:0000cc10       _tr_tally                  000000018000dc10 f   trees.obj
 0001:0000d2e0       uncompress2                000000018000e2e0 f   uncompr.obj
 0001:0000d458       uncompress                 000000018000e458 f   uncompr.obj
 0001:0000d7f8       unzStringFileNameCompare   000000018000e7f8 f   unzip.obj
 0001:0000e0d0       unzOpen2                   000000018000f0d0 f   unzip.obj
 0001:0000e130       unzOpen2_64                000000018000f130 f   unzip.obj
 0001:0000e198       unzOpen                    000000018000f198 f   unzip.obj
 0001:0000e1b0       unzOpen64                  000000018000f1b0 f   unzip.obj
 0001:0000e1c8       unzClose                   000000018000f1c8 f   unzip.obj
 0001:0000e238       unzGetGlobalInfo64         000000018000f238 f   unzip.obj
 0001:0000e258       unzGetGlobalInfo           000000018000f258 f   unzip.obj
 0001:0000e8f8       unzGetCurrentFileInfo64    000000018000f8f8 f   unzip.obj
 0001:0000e940       unzGetCurrentFileInfo      000000018000f940 f   unzip.obj
 0001:0000e9f0       unzGoToFirstFile           000000018000f9f0 f   unzip.obj
 0001:0000ea78       unzGoToNextFile            000000018000fa78 f   unzip.obj
 0001:0000eb60       unzLocateFile              000000018000fb60 f   unzip.obj
 0001:0000ed10       unzGetFilePos64            000000018000fd10 f   unzip.obj
 0001:0000ed48       unzGetFilePos              000000018000fd48 f   unzip.obj
 0001:0000ed88       unzGoToFilePos64           000000018000fd88 f   unzip.obj
 0001:0000ee18       unzGoToFilePos             000000018000fe18 f   unzip.obj
 0001:0000f110       unzOpenCurrentFile3        0000000180010110 f   unzip.obj
 0001:0000f3a8       unzOpenCurrentFile         00000001800103a8 f   unzip.obj
 0001:0000f3c8       unzOpenCurrentFilePassword 00000001800103c8 f   unzip.obj
 0001:0000f3e8       unzOpenCurrentFile2        00000001800103e8 f   unzip.obj
 0001:0000f400       unzGetCurrentFileZStreamPos64 0000000180010400 f   unzip.obj
 0001:0000f428       unzReadCurrentFile         0000000180010428 f   unzip.obj
 0001:0000f748       unztell                    0000000180010748 f   unzip.obj
 0001:0000f768       unztell64                  0000000180010768 f   unzip.obj
 0001:0000f788       unzeof                     0000000180010788 f   unzip.obj
 0001:0000f7b0       unzGetLocalExtrafield      00000001800107b0 f   unzip.obj
 0001:0000f890       unzCloseCurrentFile        0000000180010890 f   unzip.obj
 0001:0000f950       unzGetGlobalComment        0000000180010950 f   unzip.obj
 0001:0000fa28       unzGetOffset64             0000000180010a28 f   unzip.obj
 0001:0000fa68       unzGetOffset               0000000180010a68 f   unzip.obj
 0001:0000faa0       unzSetOffset64             0000000180010aa0 f   unzip.obj
 0001:0000fb28       unzSetOffset               0000000180010b28 f   unzip.obj
 0001:00010868       LoadCentralDirectoryRecord 0000000180011868 f   zip.obj
 0001:00010d10       zipOpen3                   0000000180011d10 f   zip.obj
 0001:00010f30       zipOpen2                   0000000180011f30 f   zip.obj
 0001:00010f98       zipOpen2_64                0000000180011f98 f   zip.obj
 0001:00010ff8       zipOpen                    0000000180011ff8 f   zip.obj
 0001:00011010       zipOpen64                  0000000180012010 f   zip.obj
 0001:00011028       Write_LocalFileHeader      0000000180012028 f   zip.obj
 0001:000112d8       zipOpenNewFileInZip4_64    00000001800122d8 f   zip.obj
 0001:000118b0       zipOpenNewFileInZip4       00000001800128b0 f   zip.obj
 0001:00011930       zipOpenNewFileInZip3       0000000180012930 f   zip.obj
 0001:000119a8       zipOpenNewFileInZip3_64    00000001800129a8 f   zip.obj
 0001:00011a20       zipOpenNewFileInZip2       0000000180012a20 f   zip.obj
 0001:00011a88       zipOpenNewFileInZip2_64    0000000180012a88 f   zip.obj
 0001:00011af8       zipOpenNewFileInZip64      0000000180012af8 f   zip.obj
 0001:00011b60       zipOpenNewFileInZip        0000000180012b60 f   zip.obj
 0001:00011ca8       zipWriteInFileInZip        0000000180012ca8 f   zip.obj
 0001:00011eb8       zipCloseFileInZipRaw       0000000180012eb8 f   zip.obj
 0001:00011ed0       zipCloseFileInZipRaw64     0000000180012ed0 f   zip.obj
 0001:00012430       zipCloseFileInZip          0000000180013430 f   zip.obj
 0001:00012448       Write_Zip64EndOfCentralDirectoryLocator 0000000180013448 f   zip.obj
 0001:000124d8       Write_Zip64EndOfCentralDirectoryRecord 00000001800134d8 f   zip.obj
 0001:00012608       Write_EndOfCentralDirectoryRecord 0000000180013608 f   zip.obj
 0001:00012748       Write_GlobalComment        0000000180013748 f   zip.obj
 0001:000127f8       zipClose                   00000001800137f8 f   zip.obj
 0001:000129f0       zipRemoveExtraInfoBlock    00000001800139f0 f   zip.obj
 0001:00012b28       zlibVersion                0000000180013b28 f   zutil.obj
 0001:00012b38       zlibCompileFlags           0000000180013b38 f   zutil.obj
 0001:00012b40       zError                     0000000180013b40 f   zutil.obj
 0001:00012b58       zcalloc                    0000000180013b58 f   zutil.obj
 0001:00012b68       zcfree                     0000000180013b68 f   zutil.obj
 0001:00012b78       ReadFile                   0000000180013b78 f   kernel32:KERNEL32.dll
 0001:00012b84       WriteFile                  0000000180013b84 f   kernel32:KERNEL32.dll
 0001:00012b90       SetFilePointer             0000000180013b90 f   kernel32:KERNEL32.dll
 0001:00012b9c       CreateFileW                0000000180013b9c f   kernel32:KERNEL32.dll
 0001:00012ba8       GetLastError               0000000180013ba8 f   kernel32:KERNEL32.dll
 0001:00012bb4       CreateFileA                0000000180013bb4 f   kernel32:KERNEL32.dll
 0001:00012bc0       CloseHandle                0000000180013bc0 f   kernel32:KERNEL32.dll
 0001:000130f8       _CRT_INIT                  00000001800140f8 f   MSVCRT:dll_dllmain.obj
 0001:00013108       _DllMainCRTStartup         0000000180014108 f   MSVCRT:dll_dllmain.obj
 0001:00013210       __security_init_cookie     0000000180014210 f   MSVCRT:gs_support.obj
 0001:00013300       DllMain                    0000000180014300 f   MSVCRT:dll_dllmain_stub.obj
 0001:00013338       ?__scrt_initialize_type_info@@YAXXZ 0000000180014338 f   MSVCRT:tncleanup.obj
 0001:00013350       ?__scrt_uninitialize_type_info@@YAXXZ 0000000180014350 f   MSVCRT:tncleanup.obj
 0001:00013368       __local_stdio_scanf_options 0000000180014368 f i MSVCRT:default_local_stdio_options.obj
 0001:00013378       __scrt_initialize_default_local_stdio_options 0000000180014378 f   MSVCRT:default_local_stdio_options.obj
 0001:000133c8       ?configure_argv@__scrt_narrow_argv_policy@@SAHXZ 00000001800143c8 f i MSVCRT:utility.obj
 0001:00013458       ?initialize_environment@__scrt_narrow_environment_policy@@SAHXZ 0000000180014458 f i MSVCRT:utility.obj
 0001:000134b0       NtCurrentTeb               00000001800144b0 f i MSVCRT:utility.obj
 0001:000134b8       __scrt_acquire_startup_lock 00000001800144b8 f   MSVCRT:utility.obj
 0001:00013530       __scrt_dllmain_after_initialize_c 0000000180014530 f   MSVCRT:utility.obj
 0001:000135a8       __scrt_dllmain_before_initialize_c 00000001800145a8 f   MSVCRT:utility.obj
 0001:000135d8       __scrt_dllmain_crt_thread_attach 00000001800145d8 f   MSVCRT:utility.obj
 0001:00013638       __scrt_dllmain_crt_thread_detach 0000000180014638 f   MSVCRT:utility.obj
 0001:00013670       __scrt_dllmain_exception_filter 0000000180014670 f   MSVCRT:utility.obj
 0001:00013708       __scrt_dllmain_uninitialize_c 0000000180014708 f   MSVCRT:utility.obj
 0001:00013770       __scrt_dllmain_uninitialize_critical 0000000180014770 f   MSVCRT:utility.obj
 0001:000137a8       __scrt_initialize_crt      00000001800147a8 f   MSVCRT:utility.obj
 0001:00013838       __scrt_initialize_onexit_tables 0000000180014838 f   MSVCRT:utility.obj
 0001:000138f8       __scrt_is_nonwritable_in_current_image 00000001800148f8 f   MSVCRT:utility.obj
 0001:000139c8       __scrt_release_startup_lock 00000001800149c8 f   MSVCRT:utility.obj
 0001:00013a10       __scrt_uninitialize_crt    0000000180014a10 f   MSVCRT:utility.obj
 0001:00013a70       _onexit                    0000000180014a70 f   MSVCRT:utility.obj
 0001:00013ad0       at_quick_exit              0000000180014ad0 f   MSVCRT:utility.obj
 0001:00013b08       atexit                     0000000180014b08 f   MSVCRT:utility.obj
 0001:00013b30       __scrt_get_dyn_tls_init_callback 0000000180014b30 f   MSVCRT:dyn_tls_init.obj
 0001:00013b40       __scrt_fastfail            0000000180014b40 f   MSVCRT:utility_desktop.obj
 0001:00013b48       __scrt_get_show_window_mode 0000000180014b48 f   MSVCRT:utility_desktop.obj
 0001:00013ba0       __scrt_initialize_mta      0000000180014ba0 f   MSVCRT:utility_desktop.obj
 0001:00013bb0       __scrt_initialize_winrt    0000000180014bb0 f   MSVCRT:utility_desktop.obj
 0001:00013bb8       __scrt_is_managed_app      0000000180014bb8 f   MSVCRT:utility_desktop.obj
 0001:00013c38       __scrt_set_unhandled_exception_filter 0000000180014c38 f   MSVCRT:utility_desktop.obj
 0001:00013c50       __scrt_stub_for_initialize_mta 0000000180014c50 f   MSVCRT:utility_desktop.obj
 0001:00013c50       __scrt_exe_initialize_mta  0000000180014c50 f   MSVCRT:utility_desktop.obj
 0001:00013c58       __scrt_unhandled_exception_filter 0000000180014c58 f   MSVCRT:utility_desktop.obj
 0001:00013d00       _RTC_Initialize            0000000180014d00 f   MSVCRT:initsect.obj
 0001:00013d68       _RTC_Terminate             0000000180014d68 f   MSVCRT:initsect.obj
 0001:00013dd0       _guard_check_icall_nop     0000000180014dd0 f i MSVCRT:guard_support.obj
 0001:00013dd8       ReadNoFence64              0000000180014dd8 f i MSVCRT:guard_support.obj
 0001:00013de0       ReadPointerNoFence         0000000180014de0 f i MSVCRT:guard_support.obj
 0001:00013de8       __castguard_check_failure_debugbreak 0000000180014de8 f i MSVCRT:guard_support.obj
 0001:00013e18       __castguard_check_failure_fastfail 0000000180014e18 f i MSVCRT:guard_support.obj
 0001:00013e48       __castguard_check_failure_nop 0000000180014e48 f i MSVCRT:guard_support.obj
 0001:00013e50       __castguard_check_failure_os_handled 0000000180014e50 f i MSVCRT:guard_support.obj
 0001:00013f00       __castguard_slow_path_check_debugbreak 0000000180014f00 f i MSVCRT:guard_support.obj
 0001:00013f48       __castguard_slow_path_check_fastfail 0000000180014f48 f i MSVCRT:guard_support.obj
 0001:00013f90       __castguard_slow_path_check_nop 0000000180014f90 f i MSVCRT:guard_support.obj
 0001:00013f98       __castguard_slow_path_check_os_handled 0000000180014f98 f i MSVCRT:guard_support.obj
 0001:00014050       _guard_icall_checks_enforced 0000000180015050 f i MSVCRT:guard_support.obj
 0001:00014070       __isa_available_init       0000000180015070 f   MSVCRT:cpu_disp.obj
 0001:00014078       _get_startup_argv_mode     0000000180015078 f   MSVCRT:argv_mode.obj
 0001:00014080       __scrt_is_ucrt_dll_in_use  0000000180015080 f   MSVCRT:ucrt_detection.obj
 0001:00014094       __C_specific_handler       0000000180015094 f   vcruntime:VCRUNTIME140.dll
 0001:000140a0       __std_type_info_destroy_list 00000001800150a0 f   vcruntime:VCRUNTIME140.dll
 0001:000140ac       __current_exception        00000001800150ac f   vcruntime:VCRUNTIME140.dll
 0001:000140b8       __current_exception_context 00000001800150b8 f   vcruntime:VCRUNTIME140.dll
 0001:000140c4       _lseeki64                  00000001800150c4 f   ucrt:api-ms-win-crt-stdio-l1-1-0.dll
 0001:000140d0       _wopen                     00000001800150d0 f   ucrt:api-ms-win-crt-stdio-l1-1-0.dll
 0001:000140dc       _open                      00000001800150dc f   ucrt:api-ms-win-crt-stdio-l1-1-0.dll
 0001:000140e8       wcstombs                   00000001800150e8 f   ucrt:api-ms-win-crt-convert-l1-1-0.dll
 0001:000140f4       __stdio_common_vsprintf    00000001800150f4 f   ucrt:api-ms-win-crt-stdio-l1-1-0.dll
 0001:00014100       free                       0000000180015100 f   ucrt:api-ms-win-crt-heap-l1-1-0.dll
 0001:0001410c       malloc                     000000018001510c f   ucrt:api-ms-win-crt-heap-l1-1-0.dll
 0001:00014118       _read                      0000000180015118 f   ucrt:api-ms-win-crt-stdio-l1-1-0.dll
 0001:00014124       _close                     0000000180015124 f   ucrt:api-ms-win-crt-stdio-l1-1-0.dll
 0001:00014130       _errno                     0000000180015130 f   ucrt:api-ms-win-crt-runtime-l1-1-0.dll
 0001:0001413c       strerror                   000000018001513c f   ucrt:api-ms-win-crt-runtime-l1-1-0.dll
 0001:00014148       _write                     0000000180015148 f   ucrt:api-ms-win-crt-stdio-l1-1-0.dll
 0001:00014154       ftell                      0000000180015154 f   ucrt:api-ms-win-crt-stdio-l1-1-0.dll
 0001:00014160       ferror                     0000000180015160 f   ucrt:api-ms-win-crt-stdio-l1-1-0.dll
 0001:0001416c       fopen                      000000018001516c f   ucrt:api-ms-win-crt-stdio-l1-1-0.dll
 0001:00014178       fclose                     0000000180015178 f   ucrt:api-ms-win-crt-stdio-l1-1-0.dll
 0001:00014184       fseek                      0000000180015184 f   ucrt:api-ms-win-crt-stdio-l1-1-0.dll
 0001:00014190       fwrite                     0000000180015190 f   ucrt:api-ms-win-crt-stdio-l1-1-0.dll
 0001:0001419c       _ftelli64                  000000018001519c f   ucrt:api-ms-win-crt-stdio-l1-1-0.dll
 0001:000141a8       fread                      00000001800151a8 f   ucrt:api-ms-win-crt-stdio-l1-1-0.dll
 0001:000141b4       _fseeki64                  00000001800151b4 f   ucrt:api-ms-win-crt-stdio-l1-1-0.dll
 0001:000141c0       srand                      00000001800151c0 f   ucrt:api-ms-win-crt-utility-l1-1-0.dll
 0001:000141cc       rand                       00000001800151cc f   ucrt:api-ms-win-crt-utility-l1-1-0.dll
 0001:000141d8       _time64                    00000001800151d8 f   ucrt:api-ms-win-crt-time-l1-1-0.dll
 0001:000141e4       _initterm                  00000001800151e4 f   ucrt:api-ms-win-crt-runtime-l1-1-0.dll
 0001:000141f0       _initterm_e                00000001800151f0 f   ucrt:api-ms-win-crt-runtime-l1-1-0.dll
 0001:000141fc       _seh_filter_dll            00000001800151fc f   ucrt:api-ms-win-crt-runtime-l1-1-0.dll
 0001:00014208       _configure_narrow_argv     0000000180015208 f   ucrt:api-ms-win-crt-runtime-l1-1-0.dll
 0001:00014214       _initialize_narrow_environment 0000000180015214 f   ucrt:api-ms-win-crt-runtime-l1-1-0.dll
 0001:00014220       _initialize_onexit_table   0000000180015220 f   ucrt:api-ms-win-crt-runtime-l1-1-0.dll
 0001:0001422c       _register_onexit_function  000000018001522c f   ucrt:api-ms-win-crt-runtime-l1-1-0.dll
 0001:00014238       _execute_onexit_table      0000000180015238 f   ucrt:api-ms-win-crt-runtime-l1-1-0.dll
 0001:00014244       _crt_atexit                0000000180015244 f   ucrt:api-ms-win-crt-runtime-l1-1-0.dll
 0001:00014250       _crt_at_quick_exit         0000000180015250 f   ucrt:api-ms-win-crt-runtime-l1-1-0.dll
 0001:0001425c       _cexit                     000000018001525c f   ucrt:api-ms-win-crt-runtime-l1-1-0.dll
 0001:00014268       terminate                  0000000180015268 f   ucrt:api-ms-win-crt-runtime-l1-1-0.dll
 0001:00014274       QueryPerformanceCounter    0000000180015274 f   kernel32:KERNEL32.dll
 0001:00014280       GetCurrentProcessId        0000000180015280 f   kernel32:KERNEL32.dll
 0001:0001428c       GetCurrentThreadId         000000018001528c f   kernel32:KERNEL32.dll
 0001:00014298       GetSystemTimeAsFileTime    0000000180015298 f   kernel32:KERNEL32.dll
 0001:000142a4       DisableThreadLibraryCalls  00000001800152a4 f   kernel32:KERNEL32.dll
 0001:000142b0       InitializeSListHead        00000001800152b0 f   kernel32:KERNEL32.dll
 0001:000142bc       SetUnhandledExceptionFilter 00000001800152bc f   kernel32:KERNEL32.dll
 0001:000142c8       GetStartupInfoW            00000001800152c8 f   kernel32:KERNEL32.dll
 0001:000142d4       GetModuleHandleW           00000001800152d4 f   kernel32:KERNEL32.dll
 0001:000142e0       __scrt_stub_for_acrt_initialize 00000001800152e0 f   MSVCRT:ucrt_stubs.obj
 0001:000142e0       __acrt_initialize          00000001800152e0 f   MSVCRT:ucrt_stubs.obj
 0001:000142e0       __vcrt_initialize          00000001800152e0 f   MSVCRT:ucrt_stubs.obj
 0001:000142e8       __acrt_thread_attach       00000001800152e8 f   MSVCRT:ucrt_stubs.obj
 0001:000142e8       __vcrt_thread_attach       00000001800152e8 f   MSVCRT:ucrt_stubs.obj
 0001:000142e8       __scrt_stub_for_acrt_thread_attach 00000001800152e8 f   MSVCRT:ucrt_stubs.obj
 0001:000142f0       __scrt_stub_for_acrt_thread_detach 00000001800152f0 f   MSVCRT:ucrt_stubs.obj
 0001:000142f0       __vcrt_thread_detach       00000001800152f0 f   MSVCRT:ucrt_stubs.obj
 0001:000142f0       __acrt_thread_detach       00000001800152f0 f   MSVCRT:ucrt_stubs.obj
 0001:000142f8       __vcrt_uninitialize        00000001800152f8 f   MSVCRT:ucrt_stubs.obj
 0001:000142f8       __acrt_uninitialize        00000001800152f8 f   MSVCRT:ucrt_stubs.obj
 0001:000142f8       __scrt_stub_for_acrt_uninitialize 00000001800152f8 f   MSVCRT:ucrt_stubs.obj
 0001:00014300       __scrt_stub_for_acrt_uninitialize_critical 0000000180015300 f   MSVCRT:ucrt_stubs.obj
 0001:00014300       __acrt_uninitialize_critical 0000000180015300 f   MSVCRT:ucrt_stubs.obj
 0001:00014300       __vcrt_uninitialize_critical 0000000180015300 f   MSVCRT:ucrt_stubs.obj
 0001:00014308       __scrt_stub_for_is_c_termination_complete 0000000180015308 f   MSVCRT:ucrt_stubs.obj
 0001:00014308       _is_c_termination_complete 0000000180015308 f   MSVCRT:ucrt_stubs.obj
 0001:00014310       memchr                     0000000180015310 f   vcruntime:VCRUNTIME140.dll
 0001:0001431c       memcpy                     000000018001531c f   vcruntime:VCRUNTIME140.dll
 0001:00014328       memset                     0000000180015328 f   vcruntime:VCRUNTIME140.dll
 0001:00014334       strcmp                     0000000180015334 f   ucrt:api-ms-win-crt-string-l1-1-0.dll
 0002:00000000       __imp_ReadFile             0000000180016000     kernel32:KERNEL32.dll
 0002:00000008       __imp_WriteFile            0000000180016008     kernel32:KERNEL32.dll
 0002:00000010       __imp_SetFilePointer       0000000180016010     kernel32:KERNEL32.dll
 0002:00000018       __imp_CreateFileW          0000000180016018     kernel32:KERNEL32.dll
 0002:00000020       __imp_GetLastError         0000000180016020     kernel32:KERNEL32.dll
 0002:00000028       __imp_CreateFileA          0000000180016028     kernel32:KERNEL32.dll
 0002:00000030       __imp_CloseHandle          0000000180016030     kernel32:KERNEL32.dll
 0002:00000038       __imp_GetStartupInfoW      0000000180016038     kernel32:KERNEL32.dll
 0002:00000040       __imp_SetUnhandledExceptionFilter 0000000180016040     kernel32:KERNEL32.dll
 0002:00000048       __imp_InitializeSListHead  0000000180016048     kernel32:KERNEL32.dll
 0002:00000050       __imp_DisableThreadLibraryCalls 0000000180016050     kernel32:KERNEL32.dll
 0002:00000058       __imp_GetSystemTimeAsFileTime 0000000180016058     kernel32:KERNEL32.dll
 0002:00000060       __imp_GetCurrentThreadId   0000000180016060     kernel32:KERNEL32.dll
 0002:00000068       __imp_GetCurrentProcessId  0000000180016068     kernel32:KERNEL32.dll
 0002:00000070       __imp_QueryPerformanceCounter 0000000180016070     kernel32:KERNEL32.dll
 0002:00000078       __imp_GetModuleHandleW     0000000180016078     kernel32:KERNEL32.dll
 0002:00000080       \177KERNEL32_NULL_THUNK_DATA 0000000180016080     kernel32:KERNEL32.dll
 0002:00000088       __imp_memset               0000000180016088     vcruntime:VCRUNTIME140.dll
 0002:00000090       __imp_memcpy               0000000180016090     vcruntime:VCRUNTIME140.dll
 0002:00000098       __imp_memchr               0000000180016098     vcruntime:VCRUNTIME140.dll
 0002:000000a0       __imp___C_specific_handler 00000001800160a0     vcruntime:VCRUNTIME140.dll
 0002:000000a8       __imp___std_type_info_destroy_list 00000001800160a8     vcruntime:VCRUNTIME140.dll
 0002:000000b0       __imp___current_exception_context 00000001800160b0     vcruntime:VCRUNTIME140.dll
 0002:000000b8       __imp___current_exception  00000001800160b8     vcruntime:VCRUNTIME140.dll
 0002:000000c0       \177VCRUNTIME140_NULL_THUNK_DATA 00000001800160c0     vcruntime:VCRUNTIME140.dll
 0002:000000c8       __imp_wcstombs             00000001800160c8     ucrt:api-ms-win-crt-convert-l1-1-0.dll
 0002:000000d0       \177api-ms-win-crt-convert-l1-1-0_NULL_THUNK_DATA 00000001800160d0     ucrt:api-ms-win-crt-convert-l1-1-0.dll
 0002:000000d8       __imp_free                 00000001800160d8     ucrt:api-ms-win-crt-heap-l1-1-0.dll
 0002:000000e0       __imp_malloc               00000001800160e0     ucrt:api-ms-win-crt-heap-l1-1-0.dll
 0002:000000e8       \177api-ms-win-crt-heap-l1-1-0_NULL_THUNK_DATA 00000001800160e8     ucrt:api-ms-win-crt-heap-l1-1-0.dll
 0002:000000f0       __imp__errno               00000001800160f0     ucrt:api-ms-win-crt-runtime-l1-1-0.dll
 0002:000000f8       __imp_terminate            00000001800160f8     ucrt:api-ms-win-crt-runtime-l1-1-0.dll
 0002:00000100       __imp__cexit               0000000180016100     ucrt:api-ms-win-crt-runtime-l1-1-0.dll
 0002:00000108       __imp__crt_at_quick_exit   0000000180016108     ucrt:api-ms-win-crt-runtime-l1-1-0.dll
 0002:00000110       __imp__crt_atexit          0000000180016110     ucrt:api-ms-win-crt-runtime-l1-1-0.dll
 0002:00000118       __imp__execute_onexit_table 0000000180016118     ucrt:api-ms-win-crt-runtime-l1-1-0.dll
 0002:00000120       __imp_strerror             0000000180016120     ucrt:api-ms-win-crt-runtime-l1-1-0.dll
 0002:00000128       __imp__initterm            0000000180016128     ucrt:api-ms-win-crt-runtime-l1-1-0.dll
 0002:00000130       __imp__initterm_e          0000000180016130     ucrt:api-ms-win-crt-runtime-l1-1-0.dll
 0002:00000138       __imp__seh_filter_dll      0000000180016138     ucrt:api-ms-win-crt-runtime-l1-1-0.dll
 0002:00000140       __imp__configure_narrow_argv 0000000180016140     ucrt:api-ms-win-crt-runtime-l1-1-0.dll
 0002:00000148       __imp__initialize_narrow_environment 0000000180016148     ucrt:api-ms-win-crt-runtime-l1-1-0.dll
 0002:00000150       __imp__initialize_onexit_table 0000000180016150     ucrt:api-ms-win-crt-runtime-l1-1-0.dll
 0002:00000158       __imp__register_onexit_function 0000000180016158     ucrt:api-ms-win-crt-runtime-l1-1-0.dll
 0002:00000160       \177api-ms-win-crt-runtime-l1-1-0_NULL_THUNK_DATA 0000000180016160     ucrt:api-ms-win-crt-runtime-l1-1-0.dll
 0002:00000168       __imp___stdio_common_vsprintf 0000000180016168     ucrt:api-ms-win-crt-stdio-l1-1-0.dll
 0002:00000170       __imp__fseeki64            0000000180016170     ucrt:api-ms-win-crt-stdio-l1-1-0.dll
 0002:00000178       __imp__open                0000000180016178     ucrt:api-ms-win-crt-stdio-l1-1-0.dll
 0002:00000180       __imp__ftelli64            0000000180016180     ucrt:api-ms-win-crt-stdio-l1-1-0.dll
 0002:00000188       __imp__read                0000000180016188     ucrt:api-ms-win-crt-stdio-l1-1-0.dll
 0002:00000190       __imp_fwrite               0000000180016190     ucrt:api-ms-win-crt-stdio-l1-1-0.dll
 0002:00000198       __imp_fseek                0000000180016198     ucrt:api-ms-win-crt-stdio-l1-1-0.dll
 0002:000001a0       __imp_fopen                00000001800161a0     ucrt:api-ms-win-crt-stdio-l1-1-0.dll
 0002:000001a8       __imp_fclose               00000001800161a8     ucrt:api-ms-win-crt-stdio-l1-1-0.dll
 0002:000001b0       __imp_fread                00000001800161b0     ucrt:api-ms-win-crt-stdio-l1-1-0.dll
 0002:000001b8       __imp__wopen               00000001800161b8     ucrt:api-ms-win-crt-stdio-l1-1-0.dll
 0002:000001c0       __imp__lseeki64            00000001800161c0     ucrt:api-ms-win-crt-stdio-l1-1-0.dll
 0002:000001c8       __imp_ferror               00000001800161c8     ucrt:api-ms-win-crt-stdio-l1-1-0.dll
 0002:000001d0       __imp_ftell                00000001800161d0     ucrt:api-ms-win-crt-stdio-l1-1-0.dll
 0002:000001d8       __imp__write               00000001800161d8     ucrt:api-ms-win-crt-stdio-l1-1-0.dll
 0002:000001e0       __imp__close               00000001800161e0     ucrt:api-ms-win-crt-stdio-l1-1-0.dll
 0002:000001e8       \177api-ms-win-crt-stdio-l1-1-0_NULL_THUNK_DATA 00000001800161e8     ucrt:api-ms-win-crt-stdio-l1-1-0.dll
 0002:000001f0       __imp_strcmp               00000001800161f0     ucrt:api-ms-win-crt-string-l1-1-0.dll
 0002:000001f8       \177api-ms-win-crt-string-l1-1-0_NULL_THUNK_DATA 00000001800161f8     ucrt:api-ms-win-crt-string-l1-1-0.dll
 0002:00000200       __imp__time64              0000000180016200     ucrt:api-ms-win-crt-time-l1-1-0.dll
 0002:00000208       \177api-ms-win-crt-time-l1-1-0_NULL_THUNK_DATA 0000000180016208     ucrt:api-ms-win-crt-time-l1-1-0.dll
 0002:00000210       __imp_rand                 0000000180016210     ucrt:api-ms-win-crt-utility-l1-1-0.dll
 0002:00000218       __imp_srand                0000000180016218     ucrt:api-ms-win-crt-utility-l1-1-0.dll
 0002:00000220       \177api-ms-win-crt-utility-l1-1-0_NULL_THUNK_DATA 0000000180016220     ucrt:api-ms-win-crt-utility-l1-1-0.dll
 0002:00000228       __guard_check_icall_fptr   0000000180016228     MSVCRT:guard_support.obj
 0002:00000230       __guard_xfg_check_icall_fptr 0000000180016230     MSVCRT:guard_support.obj
 0002:00000238       __xc_a                     0000000180016238     MSVCRT:initializers.obj
 0002:00000240       __xc_z                     0000000180016240     MSVCRT:initializers.obj
 0002:00000248       __xi_a                     0000000180016248     MSVCRT:initializers.obj
 0002:00000250       __xi_z                     0000000180016250     MSVCRT:initializers.obj
 0002:00000258       __xp_a                     0000000180016258     MSVCRT:initializers.obj
 0002:00000260       __xp_z                     0000000180016260     MSVCRT:initializers.obj
 0002:00000268       __xt_a                     0000000180016268     MSVCRT:initializers.obj
 0002:00000270       __xt_z                     0000000180016270     MSVCRT:initializers.obj
 0002:00000280       _pRawDllMain               0000000180016280     MSVCRT:dll_dllmain.obj
 0002:00000280       _pDefaultRawDllMain        0000000180016280     MSVCRT:dll_dllmain.obj
 0002:00000288       ??_C@_06CJNJFBNP@1?42?411@ 0000000180016288     compress.obj
 0002:00002290       deflate_copyright          0000000180018290     deflate.obj
 0002:000035e0       inflate_copyright          00000001800195e0     inftrees.obj
 0002:00003610       _length_code               0000000180019610     trees.obj
 0002:00003710       _dist_code                 0000000180019710     trees.obj
 0002:000040e0       unz_copyright              000000018001a0e0     unzip.obj
 0002:00004140       zip_copyright              000000018001a140     zip.obj
 0002:00004190       z_errmsg                   000000018001a190     zutil.obj
 0002:000041e0       ??_C@_02DKCKIIND@?$CFs@    000000018001a1e0     gzlib.obj
 0002:000041e8       ??_C@_07EBNKNFJN@?$DMfd?3?$CFd?$DO@ 000000018001a1e8     gzlib.obj
 0002:000041f0       ??_C@_0O@BNNCBLEN@out?5of?5memory@ 000000018001a1f0     gzlib.obj
 0002:000041fe       ??_C@_00CNPNBAHC@@         000000018001a1fe     gzlib.obj
 0002:00004200       ??_C@_02LMMGGCAJ@?3?5@     000000018001a200     gzlib.obj
 0002:00004204       ??_C@_06DIJPEION@?$CFs?$CFs?$CFs@ 000000018001a204     gzlib.obj
 0002:00004210       ??_C@_0BH@CFIIDOJD@unexpected?5end?5of?5file@ 000000018001a210     gzread.obj
 0002:00004228       ??_C@_0CH@CPOLIEKA@internal?5error?3?5inflate?5stream?5@ 000000018001a228     gzread.obj
 0002:00004250       ??_C@_0BG@HCKBMIHF@compressed?5data?5error@ 000000018001a250     gzread.obj
 0002:00004268       ??_C@_0BP@HLDABFKK@request?5does?5not?5fit?5in?5an?5int@ 000000018001a268     gzread.obj
 0002:00004288       ??_C@_0CB@EGGJDMIK@request?5does?5not?5fit?5in?5a?5size_@ 000000018001a288     gzread.obj
 0002:000042b0       ??_C@_0BP@IIKIGMCC@out?5of?5room?5to?5push?5characters@ 000000018001a2b0     gzread.obj
 0002:000042d0       ??_C@_0CH@DEEGAHIB@internal?5error?3?5deflate?5stream?5@ 000000018001a2d0     gzwrite.obj
 0002:000042f8       ??_C@_0CF@MLPJFDMM@requested?5length?5does?5not?5fit?5i@ 000000018001a2f8     gzwrite.obj
 0002:00004320       ??_C@_0BD@PJCBIDD@invalid?5block?5type@ 000000018001a320     infback.obj
 0002:00004338       ??_C@_0BN@LGAADGOK@invalid?5stored?5block?5lengths@ 000000018001a338     infback.obj
 0002:00004358       ??_C@_0CE@GMIGFPBB@too?5many?5length?5or?5distance?5sym@ 000000018001a358     infback.obj
 0002:00004380       ??_C@_0BJ@HDEPPGOH@invalid?5code?5lengths?5set@ 000000018001a380     infback.obj
 0002:000043a0       ??_C@_0BK@BMMPFBBH@invalid?5bit?5length?5repeat@ 000000018001a3a0     infback.obj
 0002:000043c0       ??_C@_0CF@DGDMADCD@invalid?5code?5?9?9?5missing?5end?9of?9@ 000000018001a3c0     infback.obj
 0002:000043e8       ??_C@_0BM@IIMGAINC@invalid?5literal?1lengths?5set@ 000000018001a3e8     infback.obj
 0002:00004408       ??_C@_0BG@GMDFCBGP@invalid?5distances?5set@ 000000018001a408     infback.obj
 0002:00004420       ??_C@_0BM@FFFLPBBC@invalid?5literal?1length?5code@ 000000018001a420     infback.obj
 0002:00004440       ??_C@_0BG@LBKINIKP@invalid?5distance?5code@ 000000018001a440     infback.obj
 0002:00004458       ??_C@_0BO@ECPMAOGG@invalid?5distance?5too?5far?5back@ 000000018001a458     infback.obj
 0002:00004478       ??_C@_0BH@LIBMMIGA@incorrect?5header?5check@ 000000018001a478     inflate.obj
 0002:00004490       ??_C@_0BL@IHKGDAEE@unknown?5compression?5method@ 000000018001a490     inflate.obj
 0002:000044b0       ??_C@_0BE@EMOGCLGO@invalid?5window?5size@ 000000018001a4b0     inflate.obj
 0002:000044c8       ??_C@_0BJ@BLBBCOMO@unknown?5header?5flags?5set@ 000000018001a4c8     inflate.obj
 0002:000044e8       ??_C@_0BE@GONKLEPM@header?5crc?5mismatch@ 000000018001a4e8     inflate.obj
 0002:00004500       ??_C@_0BF@MEIGEHBE@incorrect?5data?5check@ 000000018001a500     inflate.obj
 0002:00004518       ??_C@_0BH@FGKKJGOC@incorrect?5length?5check@ 000000018001a518     inflate.obj
 0002:00004530       ??_C@_02JDPG@rb@           000000018001a530     ioapi.obj
 0002:00004534       ??_C@_03HMFOOINA@r?$CLb@   000000018001a534     ioapi.obj
 0002:00004538       ??_C@_02GMLFBBN@wb@        000000018001a538     ioapi.obj
 0002:0000453c       ??_C@_01JOAMLHOP@?9@       000000018001a53c     zip.obj
 0002:00004540       ??_C@_0BA@MOKMMFOD@need?5dictionary@ 000000018001a540     zutil.obj
 0002:00004550       ??_C@_0L@FNAOCBOG@stream?5end@ 000000018001a550     zutil.obj
 0002:00004560       ??_C@_0L@KIJFAKBJ@file?5error@ 000000018001a560     zutil.obj
 0002:00004570       ??_C@_0N@MKKNPMJD@stream?5error@ 000000018001a570     zutil.obj
 0002:00004580       ??_C@_0L@HAHMBNLP@data?5error@ 000000018001a580     zutil.obj
 0002:00004590       ??_C@_0BE@OGGJBMCE@insufficient?5memory@ 000000018001a590     zutil.obj
 0002:000045a8       ??_C@_0N@DFPGLBGC@buffer?5error@ 000000018001a5a8     zutil.obj
 0002:000045b8       ??_C@_0BF@CJFPCCEG@incompatible?5version@ 000000018001a5b8     zutil.obj
 0002:00004630       _load_config_used          000000018001a630     MSVCRT:loadcfg.obj
 0002:00004780       __CastGuardVftablesStart   000000018001a780     MSVCRT:guard_support.obj
 0002:00004788       __CastGuardVftablesEnd     000000018001a788     MSVCRT:guard_support.obj
 0002:00004aa0       __rtc_iaa                  000000018001aaa0     MSVCRT:initsect.obj
 0002:00004aa8       __rtc_izz                  000000018001aaa8     MSVCRT:initsect.obj
 0002:00004ab0       __rtc_taa                  000000018001aab0     MSVCRT:initsect.obj
 0002:00004ab8       __rtc_tzz                  000000018001aab8     MSVCRT:initsect.obj
 0002:0000614c       __IMPORT_DESCRIPTOR_KERNEL32 000000018001c14c     kernel32:KERNEL32.dll
 0002:00006160       __IMPORT_DESCRIPTOR_VCRUNTIME140 000000018001c160     vcruntime:VCRUNTIME140.dll
 0002:00006174       __IMPORT_DESCRIPTOR_api-ms-win-crt-stdio-l1-1-0 000000018001c174     ucrt:api-ms-win-crt-stdio-l1-1-0.dll
 0002:00006188       __IMPORT_DESCRIPTOR_api-ms-win-crt-convert-l1-1-0 000000018001c188     ucrt:api-ms-win-crt-convert-l1-1-0.dll
 0002:0000619c       __IMPORT_DESCRIPTOR_api-ms-win-crt-heap-l1-1-0 000000018001c19c     ucrt:api-ms-win-crt-heap-l1-1-0.dll
 0002:000061b0       __IMPORT_DESCRIPTOR_api-ms-win-crt-runtime-l1-1-0 000000018001c1b0     ucrt:api-ms-win-crt-runtime-l1-1-0.dll
 0002:000061c4       __IMPORT_DESCRIPTOR_api-ms-win-crt-utility-l1-1-0 000000018001c1c4     ucrt:api-ms-win-crt-utility-l1-1-0.dll
 0002:000061d8       __IMPORT_DESCRIPTOR_api-ms-win-crt-time-l1-1-0 000000018001c1d8     ucrt:api-ms-win-crt-time-l1-1-0.dll
 0002:000061ec       __IMPORT_DESCRIPTOR_api-ms-win-crt-string-l1-1-0 000000018001c1ec     ucrt:api-ms-win-crt-string-l1-1-0.dll
 0002:00006200       __NULL_IMPORT_DESCRIPTOR   000000018001c200     kernel32:KERNEL32.dll
 0003:00000000       __scrt_native_dllmain_reason 000000018001d000     MSVCRT:utility.obj
 0003:00000008       __security_cookie          000000018001d008     MSVCRT:gs_cookie.obj
 0003:00000010       __security_cookie_complement 000000018001d010     MSVCRT:gs_cookie.obj
 0003:00000018       __scrt_ucrt_dll_is_in_use  000000018001d018     MSVCRT:ucrt_stubs.obj
 0003:00000030       ?__type_info_root_node@@3U__type_info_node@@A 000000018001d030     MSVCRT:tncleanup.obj
 0003:00000040       ?_OptionsStorage@?1??__local_stdio_printf_options@@9@4_KA 000000018001d040     MSVCRT:default_local_stdio_options.obj
 0003:00000048       ?_OptionsStorage@?1??__local_stdio_scanf_options@@9@4_KA 000000018001d048     MSVCRT:default_local_stdio_options.obj
 0003:00000050       __scrt_current_native_startup_state 000000018001d050     MSVCRT:utility.obj
 0003:00000058       __scrt_native_startup_lock 000000018001d058     MSVCRT:utility.obj
 0003:00000098       __castguard_check_failure_os_handled_fptr 000000018001d098     MSVCRT:guard_support.obj
 0003:000000a8       __dyn_tls_init_callback    000000018001d0a8     <common>
 0003:000000b0       ?_OptionsStorage@?1??__local_stdio_printf_options@@9@9 000000018001d0b0     <common>
 0003:000000b8       ?_OptionsStorage@?1??__local_stdio_scanf_options@@9@9 000000018001d0b8     <common>

 entry point at        0001:00013108

 Static symbols

 0000:fffdf000       .debug$S                   0000000180000000     zlibwapi.exp
 0002:fffea000       __guard_fids_?dllmain_dispatch@@YAHQEAUHINSTANCE__@@KQEAX@Z 0000000180000000     MSVCRT:dll_dllmain.obj
 0002:fffea000       __guard_fids__             0000000180000000     MSVCRT:guard_support.obj
 0002:fffea000       __guard_fids__             0000000180000000     MSVCRT:guard_support.obj
 0002:fffea000       __guard_fids__guard_icall_checks_enforced 0000000180000000     MSVCRT:guard_support.obj
 0002:fffea000       __guard_fids___scrt_set_unhandled_exception_filter 0000000180000000     MSVCRT:utility_desktop.obj
 0000:fffdf000       .debug$S                   0000000180000000     vcruntime:VCRUNTIME140.dll
 0000:fffdf000       .debug$S                   0000000180000000     vcruntime:VCRUNTIME140.dll
 0000:fffdf000       .debug$S                   0000000180000000     vcruntime:VCRUNTIME140.dll
 0000:fffdf000       .debug$S                   0000000180000000     vcruntime:VCRUNTIME140.dll
 0000:fffdf000       .debug$S                   0000000180000000     vcruntime:VCRUNTIME140.dll
 0000:fffdf000       .debug$S                   0000000180000000     vcruntime:VCRUNTIME140.dll
 0000:fffdf000       .debug$S                   0000000180000000     vcruntime:VCRUNTIME140.dll
 0000:fffdf000       .debug$S                   0000000180000000     ucrt:api-ms-win-crt-convert-l1-1-0.dll
 0000:fffdf000       .debug$S                   0000000180000000     ucrt:api-ms-win-crt-heap-l1-1-0.dll
 0000:fffdf000       .debug$S                   0000000180000000     ucrt:api-ms-win-crt-heap-l1-1-0.dll
 0000:fffdf000       .debug$S                   0000000180000000     ucrt:api-ms-win-crt-runtime-l1-1-0.dll
 0000:fffdf000       .debug$S                   0000000180000000     ucrt:api-ms-win-crt-runtime-l1-1-0.dll
 0000:fffdf000       .debug$S                   0000000180000000     ucrt:api-ms-win-crt-runtime-l1-1-0.dll
 0000:fffdf000       .debug$S                   0000000180000000     ucrt:api-ms-win-crt-runtime-l1-1-0.dll
 0000:fffdf000       .debug$S                   0000000180000000     ucrt:api-ms-win-crt-runtime-l1-1-0.dll
 0000:fffdf000       .debug$S                   0000000180000000     ucrt:api-ms-win-crt-runtime-l1-1-0.dll
 0000:fffdf000       .debug$S                   0000000180000000     ucrt:api-ms-win-crt-runtime-l1-1-0.dll
 0000:fffdf000       .debug$S                   0000000180000000     ucrt:api-ms-win-crt-runtime-l1-1-0.dll
 0000:fffdf000       .debug$S                   0000000180000000     ucrt:api-ms-win-crt-runtime-l1-1-0.dll
 0000:fffdf000       .debug$S                   0000000180000000     ucrt:api-ms-win-crt-runtime-l1-1-0.dll
 0000:fffdf000       .debug$S                   0000000180000000     ucrt:api-ms-win-crt-runtime-l1-1-0.dll
 0000:fffdf000       .debug$S                   0000000180000000     ucrt:api-ms-win-crt-runtime-l1-1-0.dll
 0000:fffdf000       .debug$S                   0000000180000000     ucrt:api-ms-win-crt-runtime-l1-1-0.dll
 0000:fffdf000       .debug$S                   0000000180000000     ucrt:api-ms-win-crt-runtime-l1-1-0.dll
 0000:fffdf000       .debug$S                   0000000180000000     ucrt:api-ms-win-crt-stdio-l1-1-0.dll
 0000:fffdf000       .debug$S                   0000000180000000     ucrt:api-ms-win-crt-stdio-l1-1-0.dll
 0000:fffdf000       .debug$S                   0000000180000000     ucrt:api-ms-win-crt-stdio-l1-1-0.dll
 0000:fffdf000       .debug$S                   0000000180000000     ucrt:api-ms-win-crt-stdio-l1-1-0.dll
 0000:fffdf000       .debug$S                   0000000180000000     ucrt:api-ms-win-crt-stdio-l1-1-0.dll
 0000:fffdf000       .debug$S                   0000000180000000     ucrt:api-ms-win-crt-stdio-l1-1-0.dll
 0000:fffdf000       .debug$S                   0000000180000000     ucrt:api-ms-win-crt-stdio-l1-1-0.dll
 0000:fffdf000       .debug$S                   0000000180000000     ucrt:api-ms-win-crt-stdio-l1-1-0.dll
 0000:fffdf000       .debug$S                   0000000180000000     ucrt:api-ms-win-crt-stdio-l1-1-0.dll
 0000:fffdf000       .debug$S                   0000000180000000     ucrt:api-ms-win-crt-stdio-l1-1-0.dll
 0000:fffdf000       .debug$S                   0000000180000000     ucrt:api-ms-win-crt-stdio-l1-1-0.dll
 0000:fffdf000       .debug$S                   0000000180000000     ucrt:api-ms-win-crt-stdio-l1-1-0.dll
 0000:fffdf000       .debug$S                   0000000180000000     ucrt:api-ms-win-crt-stdio-l1-1-0.dll
 0000:fffdf000       .debug$S                   0000000180000000     ucrt:api-ms-win-crt-stdio-l1-1-0.dll
 0000:fffdf000       .debug$S                   0000000180000000     ucrt:api-ms-win-crt-stdio-l1-1-0.dll
 0000:fffdf000       .debug$S                   0000000180000000     ucrt:api-ms-win-crt-stdio-l1-1-0.dll
 0000:fffdf000       .debug$S                   0000000180000000     ucrt:api-ms-win-crt-string-l1-1-0.dll
 0000:fffdf000       .debug$S                   0000000180000000     ucrt:api-ms-win-crt-time-l1-1-0.dll
 0000:fffdf000       .debug$S                   0000000180000000     ucrt:api-ms-win-crt-utility-l1-1-0.dll
 0000:fffdf000       .debug$S                   0000000180000000     ucrt:api-ms-win-crt-utility-l1-1-0.dll
 0000:fffdf000       .debug$S                   0000000180000000     kernel32:KERNEL32.dll
 0000:fffdf000       .debug$S                   0000000180000000     kernel32:KERNEL32.dll
 0000:fffdf000       .debug$S                   0000000180000000     kernel32:KERNEL32.dll
 0000:fffdf000       .debug$S                   0000000180000000     kernel32:KERNEL32.dll
 0000:fffdf000       .debug$S                   0000000180000000     kernel32:KERNEL32.dll
 0000:fffdf000       .debug$S                   0000000180000000     kernel32:KERNEL32.dll
 0000:fffdf000       .debug$S                   0000000180000000     kernel32:KERNEL32.dll
 0000:fffdf000       .debug$S                   0000000180000000     kernel32:KERNEL32.dll
 0000:fffdf000       .debug$S                   0000000180000000     kernel32:KERNEL32.dll
 0000:fffdf000       .debug$S                   0000000180000000     kernel32:KERNEL32.dll
 0000:fffdf000       .debug$S                   0000000180000000     kernel32:KERNEL32.dll
 0000:fffdf000       .debug$S                   0000000180000000     kernel32:KERNEL32.dll
 0000:fffdf000       .debug$S                   0000000180000000     kernel32:KERNEL32.dll
 0000:fffdf000       .debug$S                   0000000180000000     kernel32:KERNEL32.dll
 0000:fffdf000       .debug$S                   0000000180000000     kernel32:KERNEL32.dll
 0000:fffdf000       .debug$S                   0000000180000000     kernel32:KERNEL32.dll
 0001:00000348       adler32_combine_           0000000180001348 f   adler32.obj
 0001:000005c8       crc32_little               00000001800015c8 f   crc32.obj
 0001:000008b0       crc32_big                  00000001800018b0 f   crc32.obj
 0001:00000bc0       gf2_matrix_times           0000000180001bc0 f   crc32.obj
 0001:00000be8       gf2_matrix_square          0000000180001be8 f   crc32.obj
 0001:00000c30       crc32_combine_             0000000180001c30 f   crc32.obj
 0001:00000d70       slide_hash                 0000000180001d70 f   deflate.obj
 0001:00001078       deflateStateCheck          0000000180002078 f   deflate.obj
 0001:000010e0       $LN10                      00000001800020e0     deflate.obj
 0001:00001938       putShortMSB                0000000180002938 f   deflate.obj
 0001:00001970       flush_pending              0000000180002970 f   deflate.obj
 0001:00002868       read_buf                   0000000180003868 f   deflate.obj
 0001:00002950       lm_init                    0000000180003950 f   deflate.obj
 0001:00002a00       longest_match              0000000180003a00 f   deflate.obj
 0001:00002bb0       fill_window                0000000180003bb0 f   deflate.obj
 0001:00002e20       deflate_stored             0000000180003e20 f   deflate.obj
 0001:000032f8       deflate_fast               00000001800042f8 f   deflate.obj
 0001:00003768       deflate_slow               0000000180004768 f   deflate.obj
 0001:00003ce0       deflate_rle                0000000180004ce0 f   deflate.obj
 0001:00004060       deflate_huff               0000000180005060 f   deflate.obj
 0001:00004390       gz_reset                   0000000180005390 f   gzlib.obj
 0001:000043f0       gz_open                    00000001800053f0 f   gzlib.obj
 0001:00004750       $LN63                      0000000180005750     gzlib.obj
 0001:00004754       $LN64                      0000000180005754     gzlib.obj
 0001:00004758       $LN65                      0000000180005758     gzlib.obj
 0001:0000475c       $LN66                      000000018000575c     gzlib.obj
 0001:00004760       $LN67                      0000000180005760     gzlib.obj
 0001:00004764       $LN68                      0000000180005764     gzlib.obj
 0001:00004768       $LN69                      0000000180005768     gzlib.obj
 0001:0000476c       $LN70                      000000018000576c     gzlib.obj
 0001:00004770       $LN71                      0000000180005770     gzlib.obj
 0001:00004774       $LN72                      0000000180005774     gzlib.obj
 0001:00004778       $LN73                      0000000180005778     gzlib.obj
 0001:0000477c       $LN74                      000000018000577c     gzlib.obj
 0001:00004780       $LN75                      0000000180005780     gzlib.obj
 0001:00004784       $LN76                      0000000180005784     gzlib.obj
 0001:00004788       $LN77                      0000000180005788     gzlib.obj
 0001:0000478c       $LN78                      000000018000578c     gzlib.obj
 0001:00004790       $LN79                      0000000180005790     gzlib.obj
 0001:00004eb0       gz_load                    0000000180005eb0 f   gzread.obj
 0001:00004f90       gz_avail                   0000000180005f90 f   gzread.obj
 0001:00005048       gz_look                    0000000180006048 f   gzread.obj
 0001:00005260       gz_decomp                  0000000180006260 f   gzread.obj
 0001:000053a0       gz_fetch                   00000001800063a0 f   gzread.obj
 0001:00005490       gz_skip                    0000000180006490 f   gzread.obj
 0001:00005530       gz_read                    0000000180006530 f   gzread.obj
 0001:00005d40       gz_init                    0000000180006d40 f   gzwrite.obj
 0001:00005e50       gz_comp                    0000000180006e50 f   gzwrite.obj
 0001:00006050       gz_zero                    0000000180007050 f   gzwrite.obj
 0001:00006120       gz_write                   0000000180007120 f   gzwrite.obj
 0001:00006b80       fixedtables                0000000180007b80 f   infback.obj
 0001:00007a80       $LN561                     0000000180008a80     infback.obj
 0001:00007a84       $LN562                     0000000180008a84     infback.obj
 0001:00007a88       $LN563                     0000000180008a88     infback.obj
 0001:00007a8c       $LN564                     0000000180008a8c     infback.obj
 0001:00007a90       $LN565                     0000000180008a90     infback.obj
 0001:00007a94       $LN566                     0000000180008a94     infback.obj
 0001:00007a98       $LN567                     0000000180008a98     infback.obj
 0001:00007a9c       $LN568                     0000000180008a9c     infback.obj
 0001:00007aa0       $LN569                     0000000180008aa0     infback.obj
 0001:00007aa4       $LN570                     0000000180008aa4     infback.obj
 0001:00007aa8       $LN571                     0000000180008aa8     infback.obj
 0001:00007aac       $LN572                     0000000180008aac     infback.obj
 0001:00007ab0       $LN573                     0000000180008ab0     infback.obj
 0001:00007ab4       $LN574                     0000000180008ab4     infback.obj
 0001:00007ab8       $LN575                     0000000180008ab8     infback.obj
 0001:00007abc       $LN576                     0000000180008abc     infback.obj
 0001:00007ac0       $LN577                     0000000180008ac0     infback.obj
 0001:00007ac4       $LN578                     0000000180008ac4     infback.obj
 0001:00007ac8       $LN579                     0000000180008ac8     infback.obj
 0001:00007acc       $LN582                     0000000180008acc     infback.obj
 0001:00007ad0       $LN583                     0000000180008ad0     infback.obj
 0001:00007ad4       $LN584                     0000000180008ad4     infback.obj
 0001:00007ad8       $LN585                     0000000180008ad8     infback.obj
 0001:00007fe0       inflateStateCheck          0000000180008fe0 f   inflate.obj
 0001:000083b0       fixedtables                00000001800093b0 f   inflate.obj
 0001:000083d8       updatewindow               00000001800093d8 f   inflate.obj
 0001:00009bc4       $LN999                     000000018000abc4     inflate.obj
 0001:00009bc8       $LN1000                    000000018000abc8     inflate.obj
 0001:00009bcc       $LN1001                    000000018000abcc     inflate.obj
 0001:00009bd0       $LN1002                    000000018000abd0     inflate.obj
 0001:00009bd4       $LN1003                    000000018000abd4     inflate.obj
 0001:00009bd8       $LN1004                    000000018000abd8     inflate.obj
 0001:00009bdc       $LN1005                    000000018000abdc     inflate.obj
 0001:00009be0       $LN1006                    000000018000abe0     inflate.obj
 0001:00009be4       $LN1007                    000000018000abe4     inflate.obj
 0001:00009be8       $LN1008                    000000018000abe8     inflate.obj
 0001:00009bec       $LN1009                    000000018000abec     inflate.obj
 0001:00009bf0       $LN1010                    000000018000abf0     inflate.obj
 0001:00009bf4       $LN1011                    000000018000abf4     inflate.obj
 0001:00009bf8       $LN1012                    000000018000abf8     inflate.obj
 0001:00009bfc       $LN1013                    000000018000abfc     inflate.obj
 0001:00009c00       $LN1014                    000000018000ac00     inflate.obj
 0001:00009c04       $LN1015                    000000018000ac04     inflate.obj
 0001:00009c08       $LN1016                    000000018000ac08     inflate.obj
 0001:00009c0c       $LN1017                    000000018000ac0c     inflate.obj
 0001:00009c10       $LN1018                    000000018000ac10     inflate.obj
 0001:00009c14       $LN1019                    000000018000ac14     inflate.obj
 0001:00009c18       $LN1020                    000000018000ac18     inflate.obj
 0001:00009c1c       $LN1021                    000000018000ac1c     inflate.obj
 0001:00009c20       $LN1022                    000000018000ac20     inflate.obj
 0001:00009c24       $LN1023                    000000018000ac24     inflate.obj
 0001:00009c28       $LN1024                    000000018000ac28     inflate.obj
 0001:00009c2c       $LN1025                    000000018000ac2c     inflate.obj
 0001:00009c30       $LN1026                    000000018000ac30     inflate.obj
 0001:00009c34       $LN1027                    000000018000ac34     inflate.obj
 0001:00009c38       $LN1028                    000000018000ac38     inflate.obj
 0001:00009c3c       $LN1029                    000000018000ac3c     inflate.obj
 0001:00009c40       $LN1032                    000000018000ac40     inflate.obj
 0001:00009c44       $LN1033                    000000018000ac44     inflate.obj
 0001:00009c48       $LN1034                    000000018000ac48     inflate.obj
 0001:00009c4c       $LN1035                    000000018000ac4c     inflate.obj
 0001:00009f30       syncsearch                 000000018000af30 f   inflate.obj
 0001:0000aaa8       fopen_file_func            000000018000baa8 f   ioapi.obj
 0001:0000ab08       fopen64_file_func          000000018000bb08 f   ioapi.obj
 0001:0000ab68       fread_file_func            000000018000bb68 f   ioapi.obj
 0001:0000ab98       fwrite_file_func           000000018000bb98 f   ioapi.obj
 0001:0000abc8       ftell_file_func            000000018000bbc8 f   ioapi.obj
 0001:0000abd8       ftell64_file_func          000000018000bbd8 f   ioapi.obj
 0001:0000abe8       fseek_file_func            000000018000bbe8 f   ioapi.obj
 0001:0000ac48       fseek64_file_func          000000018000bc48 f   ioapi.obj
 0001:0000aca8       fclose_file_func           000000018000bca8 f   ioapi.obj
 0001:0000acb8       ferror_file_func           000000018000bcb8 f   ioapi.obj
 0001:0000ad68       win32_translate_open_mode  000000018000bd68 f   iowin32.obj
 0001:0000add0       win32_build_iowin          000000018000bdd0 f   iowin32.obj
 0001:0000b130       MySetFilePointerEx         000000018000c130 f   iowin32.obj
 0001:0000b570       tr_static_init             000000018000c570 f   trees.obj
 0001:0000b5c8       init_block                 000000018000c5c8 f   trees.obj
 0001:0000b6c0       pqdownheap                 000000018000c6c0 f   trees.obj
 0001:0000b7b8       gen_bitlen                 000000018000c7b8 f   trees.obj
 0001:0000b998       gen_codes                  000000018000c998 f   trees.obj
 0001:0000ba18       build_tree                 000000018000ca18 f   trees.obj
 0001:0000bcc0       scan_tree                  000000018000ccc0 f   trees.obj
 0001:0000bde0       send_tree                  000000018000cde0 f   trees.obj
 0001:0000c380       build_bl_tree              000000018000d380 f   trees.obj
 0001:0000c470       send_all_trees             000000018000d470 f   trees.obj
 0001:0000cce0       compress_block             000000018000dce0 f   trees.obj
 0001:0000d138       detect_data_type           000000018000e138 f   trees.obj
 0001:0000d1b0       bi_reverse                 000000018000e1b0 f   trees.obj
 0001:0000d1d8       bi_flush                   000000018000e1d8 f   trees.obj
 0001:0000d270       bi_windup                  000000018000e270 f   trees.obj
 0001:0000d480       unz64local_getByte         000000018000e480 f   unzip.obj
 0001:0000d4f8       unz64local_getShort        000000018000e4f8 f   unzip.obj
 0001:0000d580       unz64local_getLong         000000018000e580 f   unzip.obj
 0001:0000d640       unz64local_getLong64       000000018000e640 f   unzip.obj
 0001:0000d788       strcmpcasenosensitive_internal 000000018000e788 f   unzip.obj
 0001:0000d830       unz64local_SearchCentralDir 000000018000e830 f   unzip.obj
 0001:0000d9f0       unz64local_SearchCentralDir64 000000018000e9f0 f   unzip.obj
 0001:0000dc88       unzOpenInternal            000000018000ec88 f   unzip.obj
 0001:0000e280       unz64local_DosDateToTmuDate 000000018000f280 f   unzip.obj
 0001:0000e2b8       unz64local_GetCurrentFileInfoInternal 000000018000f2b8 f   unzip.obj
 0001:0000ee58       unz64local_CheckCurrentFileCoherencyHeader 000000018000fe58 f   unzip.obj
 0001:0000fb40       time                       0000000180010b40 f   zip.obj
 0001:0000fb50       decrypt_byte               0000000180010b50 f   zip.obj
 0001:0000fb70       update_keys                0000000180010b70 f   zip.obj
 0001:0000fbd8       init_keys                  0000000180010bd8 f   zip.obj
 0001:0000fc38       crypthead                  0000000180010c38 f   zip.obj
 0001:0000fdc8       allocate_new_datablock     0000000180010dc8 f   zip.obj
 0001:0000fdf8       free_datablock             0000000180010df8 f   zip.obj
 0001:0000fe30       init_linkedlist            0000000180010e30 f   zip.obj
 0001:0000fe38       free_linkedlist            0000000180010e38 f   zip.obj
 0001:0000fe70       add_data_in_datablock      0000000180010e70 f   zip.obj
 0001:0000ff48       zip64local_putValue        0000000180010f48 f   zip.obj
 0001:00010028       zip64local_putValue_inmemory 0000000180011028 f   zip.obj
 0001:000100b8       zip64local_TmzDateToDosDate 00000001800110b8 f   zip.obj
 0001:00010108       zip64local_getByte         0000000180011108 f   zip.obj
 0001:00010180       zip64local_getShort        0000000180011180 f   zip.obj
 0001:00010208       zip64local_getLong         0000000180011208 f   zip.obj
 0001:000102c8       zip64local_getLong64       00000001800112c8 f   zip.obj
 0001:00010410       zip64local_SearchCentralDir 0000000180011410 f   zip.obj
 0001:000105d0       zip64local_SearchCentralDir64 00000001800115d0 f   zip.obj
 0001:00011bc8       zip64FlushWriteBuffer      0000000180012bc8 f   zip.obj
 0001:00012bd0       ?dllmain_crt_dispatch@@YAHQEAUHINSTANCE__@@KQEAX@Z 0000000180013bd0 f   MSVCRT:dll_dllmain.obj
 0001:00012c60       ?dllmain_crt_process_attach@@YAHQEAUHINSTANCE__@@QEAX@Z 0000000180013c60 f   MSVCRT:dll_dllmain.obj
 0001:00012e30       ?dllmain_crt_process_detach@@YAH_N@Z 0000000180013e30 f   MSVCRT:dll_dllmain.obj
 0001:00012f30       ?dllmain_dispatch@@YAHQEAUHINSTANCE__@@KQEAX@Z 0000000180013f30 f   MSVCRT:dll_dllmain.obj
 0001:00013098       ?dllmain_raw@@YAHQEAUHINSTANCE__@@KQEAX@Z 0000000180014098 f   MSVCRT:dll_dllmain.obj
 0001:00013168       __get_entropy              0000000180014168 f   MSVCRT:gs_support.obj
 0001:000133f8       ?find_pe_section@@YAPEAU_IMAGE_SECTION_HEADER@@QEAE_K@Z 00000001800143f8 f   MSVCRT:utility.obj
 0001:00013468       ?is_potentially_valid_image_base@@YA_NQEAX@Z 0000000180014468 f   MSVCRT:utility.obj
 0001:00013ed0       __castguard_compat_check   0000000180014ed0 f   MSVCRT:guard_support.obj
 0001:00014030       __castguard_slow_path_compat_check 0000000180015030 f   MSVCRT:guard_support.obj
 0001:00014340       ?fin$0@?0??dllmain_crt_process_attach@@YAHQEAUHINSTANCE__@@QEAX@Z@4HA 0000000180015340 f   MSVCRT:dll_dllmain.obj
 0001:0001436c       ?fin$0@?0??dllmain_crt_process_detach@@YAH_N@Z@4HA 000000018001536c f   MSVCRT:dll_dllmain.obj
 0001:0001438c       ?fin$1@?0??dllmain_crt_process_detach@@YAH_N@Z@4HA 000000018001538c f   MSVCRT:dll_dllmain.obj
 0001:000143c0       ?filt$0@?0??dllmain_dispatch@@YAHQEAUHINSTANCE__@@KQEAX@Z@4HA 00000001800153c0 f   MSVCRT:dll_dllmain.obj
 0001:00014408       __scrt_is_nonwritable_in_current_image$filt$0 0000000180015408 f   MSVCRT:utility.obj
 0002:00000290       crc_table                  0000000180016290     crc32.obj
 0002:000022d8       ?my_version@?1??deflateInit2_@@9@9 00000001800182d8     deflate.obj
 0002:000022e0       configuration_table        00000001800182e0     deflate.obj
 0002:00002380       ?lenfix@?1??fixedtables@@9@9 0000000180018380     infback.obj
 0002:00002b80       ?distfix@?1??fixedtables@@9@9 0000000180018b80     infback.obj
 0002:00002c00       ?order@?1??inflateBack@@9@9 0000000180018c00     infback.obj
 0002:00002c30       ?lenfix@?1??fixedtables@@9@9 0000000180018c30     inflate.obj
 0002:00003430       ?distfix@?1??fixedtables@@9@9 0000000180019430     inflate.obj
 0002:000034b0       ?order@?1??inflate@@9@9    00000001800194b0     inflate.obj
 0002:000034e0       ?dext@?1??inflate_table@@9@9 00000001800194e0     inftrees.obj
 0002:00003520       ?lext@?1??inflate_table@@9@9 0000000180019520     inftrees.obj
 0002:00003560       ?lbase@?1??inflate_table@@9@9 0000000180019560     inftrees.obj
 0002:000035a0       ?dbase@?1??inflate_table@@9@9 00000001800195a0     inftrees.obj
 0002:00003910       static_dtree               0000000180019910     trees.obj
 0002:00003990       extra_blbits               0000000180019990     trees.obj
 0002:000039e0       extra_lbits                00000001800199e0     trees.obj
 0002:00003a60       base_dist                  0000000180019a60     trees.obj
 0002:00003ae0       base_length                0000000180019ae0     trees.obj
 0002:00003b58       static_l_desc              0000000180019b58     trees.obj
 0002:00003b78       static_bl_desc             0000000180019b78     trees.obj
 0002:00003ba0       extra_dbits                0000000180019ba0     trees.obj
 0002:00003c20       static_ltree               0000000180019c20     trees.obj
 0002:000040a0       static_d_desc              000000018001a0a0     trees.obj
 0002:000040c0       bl_order                   000000018001a0c0     trees.obj
 0002:00004ac0       $unwind$deflateGetDictionary 000000018001aac0     deflate.obj
 0002:00004ad0       $unwind$deflateResetKeep   000000018001aad0     deflate.obj
 0002:00004ae0       $unwind$deflateSetHeader   000000018001aae0     deflate.obj
 0002:00004af0       $unwind$deflatePending     000000018001aaf0     deflate.obj
 0002:00004b00       $unwind$deflatePrime       000000018001ab00     deflate.obj
 0002:00004b14       $unwind$deflateParams      000000018001ab14     deflate.obj
 0002:00004b2c       $unwind$deflateTune        000000018001ab2c     deflate.obj
 0002:00004b3c       $unwind$deflateBound       000000018001ab3c     deflate.obj
 0002:00004b50       $unwind$deflateEnd         000000018001ab50     deflate.obj
 0002:00004b60       $unwind$deflateCopy        000000018001ab60     deflate.obj
 0002:00004b78       $unwind$read_buf           000000018001ab78     deflate.obj
 0002:00004b8c       $unwind$longest_match      000000018001ab8c     deflate.obj
 0002:00004b9c       $unwind$fill_window        000000018001ab9c     deflate.obj
 0002:00004bb0       $unwind$deflate_fast       000000018001abb0     deflate.obj
 0002:00004bc8       $unwind$deflate_slow       000000018001abc8     deflate.obj
 0002:00004be0       $unwind$deflate_rle        000000018001abe0     deflate.obj
 0002:00004bf8       $unwind$deflate_huff       000000018001abf8     deflate.obj
 0002:00004c0c       $unwind$snprintf           000000018001ac0c     gzlib.obj
 0002:00004c20       $unwind$gz_open            000000018001ac20     gzlib.obj
 0002:00004c38       $unwind$gzdopen            000000018001ac38     gzlib.obj
 0002:00004c4c       $unwind$gzrewind           000000018001ac4c     gzlib.obj
 0002:00004c60       $unwind$gzseek64           000000018001ac60     gzlib.obj
 0002:00004c74       $unwind$gzoffset64         000000018001ac74     gzlib.obj
 0002:00004c88       $unwind$gz_error           000000018001ac88     gzlib.obj
 0002:00004c9c       $unwind$gz_avail           000000018001ac9c     gzread.obj
 0002:00004cb0       $unwind$gz_look            000000018001acb0     gzread.obj
 0002:00004cd0       $unwind$gz_decomp          000000018001acd0     gzread.obj
 0002:00004ce4       $unwind$gz_fetch           000000018001ace4     gzread.obj
 0002:00004cf8       $unwind$gz_skip            000000018001acf8     gzread.obj
 0002:00004d08       $unwind$gzread             000000018001ad08     gzread.obj
 0002:00004d1c       $unwind$gzfread            000000018001ad1c     gzread.obj
 0002:00004d30       $unwind$gzgetc             000000018001ad30     gzread.obj
 0002:00004d44       $unwind$gzungetc           000000018001ad44     gzread.obj
 0002:00004d58       $unwind$gzdirect           000000018001ad58     gzread.obj
 0002:00004d6c       $unwind$gzclose_r          000000018001ad6c     gzread.obj
 0002:00004d80       $unwind$gz_init            000000018001ad80     gzwrite.obj
 0002:00004d94       $unwind$gz_comp            000000018001ad94     gzwrite.obj
 0002:00004dac       $unwind$gz_zero            000000018001adac     gzwrite.obj
 0002:00004dc0       $unwind$gz_write           000000018001adc0     gzwrite.obj
 0002:00004dd4       $unwind$gzwrite            000000018001add4     gzwrite.obj
 0002:00004de4       $unwind$gzfwrite           000000018001ade4     gzwrite.obj
 0002:00004df8       $unwind$gzputc             000000018001adf8     gzwrite.obj
 0002:00004e08       $unwind$gzputs             000000018001ae08     gzwrite.obj
 0002:00004e1c       $unwind$gzvprintf          000000018001ae1c     gzwrite.obj
 0002:00004e38       $unwind$gzprintf           000000018001ae38     gzwrite.obj
 0002:00004e48       $unwind$gzflush            000000018001ae48     gzwrite.obj
 0002:00004e58       $unwind$gzsetparams        000000018001ae58     gzwrite.obj
 0002:00004e70       $unwind$gzclose_w          000000018001ae70     gzwrite.obj
 0002:00004e80       $unwind$inflateBackInit_   000000018001ae80     infback.obj
 0002:00004e9c       $unwind$inflateBackEnd     000000018001ae9c     infback.obj
 0002:00004eb0       $unwind$inflateResetKeep   000000018001aeb0     inflate.obj
 0002:00004ec0       $unwind$inflateReset       000000018001aec0     inflate.obj
 0002:00004ed0       $unwind$inflateReset2      000000018001aed0     inflate.obj
 0002:00004ee4       $unwind$inflateInit2_      000000018001aee4     inflate.obj
 0002:00004f00       $unwind$inflatePrime       000000018001af00     inflate.obj
 0002:00004f14       $unwind$updatewindow       000000018001af14     inflate.obj
 0002:00004f28       $unwind$inflateEnd         000000018001af28     inflate.obj
 0002:00004f3c       $unwind$inflateGetDictionary 000000018001af3c     inflate.obj
 0002:00004f50       $unwind$inflateSetDictionary 000000018001af50     inflate.obj
 0002:00004f6c       $unwind$inflateGetHeader   000000018001af6c     inflate.obj
 0002:00004f7c       $unwind$inflateSync        000000018001af7c     inflate.obj
 0002:00004f98       $unwind$inflateSyncPoint   000000018001af98     inflate.obj
 0002:00004fac       $unwind$inflateCopy        000000018001afac     inflate.obj
 0002:00004fc4       $unwind$inflateUndermine   000000018001afc4     inflate.obj
 0002:00004fd4       $unwind$inflateValidate    000000018001afd4     inflate.obj
 0002:00004fe4       $unwind$inflateMark        000000018001afe4     inflate.obj
 0002:00004ffc       $unwind$inflateCodesUsed   000000018001affc     inflate.obj
 0002:0000500c       $unwind$call_ztell64       000000018001b00c     ioapi.obj
 0002:00005020       $unwind$fseek_file_func    000000018001b020     ioapi.obj
 0002:00005030       $unwind$fseek64_file_func  000000018001b030     ioapi.obj
 0002:00005040       $unwind$win32_build_iowin  000000018001b040     iowin32.obj
 0002:00005050       $unwind$win32_tell_file_func 000000018001b050     iowin32.obj
 0002:00005064       $unwind$win32_tell64_file_func 000000018001b064     iowin32.obj
 0002:00005078       $unwind$win32_seek_file_func 000000018001b078     iowin32.obj
 0002:0000508c       $unwind$win32_seek64_file_func 000000018001b08c     iowin32.obj
 0002:000050a0       $unwind$send_tree          000000018001b0a0     trees.obj
 0002:000050ac       $unwind$compress_block     000000018001b0ac     trees.obj
 0002:000050bc       $unwind$unz64local_getByte 000000018001b0bc     unzip.obj
 0002:000050d0       $unwind$unz64local_getShort 000000018001b0d0     unzip.obj
 0002:000050e4       $unwind$unz64local_getLong 000000018001b0e4     unzip.obj
 0002:000050f8       $unwind$unz64local_getLong64 000000018001b0f8     unzip.obj
 0002:0000510c       $unwind$unzOpenInternal    000000018001b10c     unzip.obj
 0002:00005120       $unwind$unzOpen2           000000018001b120     unzip.obj
 0002:00005130       $unwind$unzOpen2_64        000000018001b130     unzip.obj
 0002:00005140       $unwind$unzClose           000000018001b140     unzip.obj
 0002:00005154       $unwind$unzGoToFirstFile   000000018001b154     unzip.obj
 0002:00005168       $unwind$unzGoToNextFile    000000018001b168     unzip.obj
 0002:00005180       $unwind$unzLocateFile      000000018001b180     unzip.obj
 0002:0000519c       $unwind$unzGoToFilePos64   000000018001b19c     unzip.obj
 0002:000051b0       $unwind$unzGoToFilePos     000000018001b1b0     unzip.obj
 0002:000051c0       $unwind$unz64local_CheckCurrentFileCoherencyHeader 000000018001b1c0     unzip.obj
 0002:000051d4       $unwind$unzOpenCurrentFile3 000000018001b1d4     unzip.obj
 0002:000051f4       $unwind$unzGetLocalExtrafield 000000018001b1f4     unzip.obj
 0002:00005210       $unwind$unzCloseCurrentFile 000000018001b210     unzip.obj
 0002:00005224       $unwind$unzGetGlobalComment 000000018001b224     unzip.obj
 0002:0000523c       $unwind$unzGetOffset       000000018001b23c     unzip.obj
 0002:0000524c       $unwind$unzSetOffset64     000000018001b24c     unzip.obj
 0002:00005260       $unwind$add_data_in_datablock 000000018001b260     zip.obj
 0002:00005274       $unwind$zip64local_getByte 000000018001b274     zip.obj
 0002:00005288       $unwind$zip64local_getShort 000000018001b288     zip.obj
 0002:0000529c       $unwind$zip64local_getLong 000000018001b29c     zip.obj
 0002:000052b0       $unwind$zip64local_getLong64 000000018001b2b0     zip.obj
 0002:000052c4       $unwind$zipOpen3           000000018001b2c4     zip.obj
 0002:000052d4       $unwind$zipOpen2           000000018001b2d4     zip.obj
 0002:000052e4       $unwind$zipOpen2_64        000000018001b2e4     zip.obj
 0002:000052f4       $unwind$zipWriteInFileInZip 000000018001b2f4     zip.obj
 0002:00005308       $unwind$?dllmain_crt_process_attach@@YAHQEAUHINSTANCE__@@QEAX@Z 000000018001b308     MSVCRT:dll_dllmain.obj
 0002:00005340       $unwind$?fin$0@?0??dllmain_crt_process_attach@@YAHQEAUHINSTANCE__@@QEAX@Z@4HA 000000018001b340     MSVCRT:dll_dllmain.obj
 0002:0000534c       $unwind$?dllmain_crt_process_detach@@YAH_N@Z 000000018001b34c     MSVCRT:dll_dllmain.obj
 0002:000053a4       $unwind$?fin$0@?0??dllmain_crt_process_detach@@YAH_N@Z@4HA 000000018001b3a4     MSVCRT:dll_dllmain.obj
 0002:000053b0       $unwind$?fin$1@?0??dllmain_crt_process_detach@@YAH_N@Z@4HA 000000018001b3b0     MSVCRT:dll_dllmain.obj
 0002:000053bc       $unwind$?dllmain_dispatch@@YAHQEAUHINSTANCE__@@KQEAX@Z 000000018001b3bc     MSVCRT:dll_dllmain.obj
 0002:000053e0       $unwind$?filt$0@?0??dllmain_dispatch@@YAHQEAUHINSTANCE__@@KQEAX@Z@4HA 000000018001b3e0     MSVCRT:dll_dllmain.obj
 0002:000053ec       $unwind$__scrt_is_nonwritable_in_current_image 000000018001b3ec     MSVCRT:utility.obj
 0002:0000540c       $unwind$__scrt_is_nonwritable_in_current_image$filt$0 000000018001b40c     MSVCRT:utility.obj
 0002:00005418       $unwind$__scrt_acquire_startup_lock 000000018001b418     MSVCRT:utility.obj
 0002:00005424       $unwind$__scrt_initialize_onexit_tables 000000018001b424     MSVCRT:utility.obj
 0002:00005430       $unwind$__scrt_unhandled_exception_filter 000000018001b430     MSVCRT:utility_desktop.obj
 0002:0000543c       __chkstk_xdata             000000018001b43c     MSVCRT:chkstk.obj
 0002:00005440       __chkstk_xdata_prolog      000000018001b440     MSVCRT:chkstk.obj
 0002:00005444       __chkstk_xdata_end         000000018001b444     MSVCRT:chkstk.obj
 0002:00005450       .edata                     000000018001b450     zlibwapi.exp
 0002:00005478       rgpv                       000000018001b478     zlibwapi.exp
 0002:00005734       rgszName                   000000018001b734     zlibwapi.exp
 0002:00005938       rgwOrd                     000000018001b938     zlibwapi.exp
 0002:00005a3a       szName                     000000018001ba3a     zlibwapi.exp
 0002:00005a47       $N00001                    000000018001ba47     zlibwapi.exp
 0002:00005a4f       $N00140                    000000018001ba4f     zlibwapi.exp
 0002:00005a5f       $N00174                    000000018001ba5f     zlibwapi.exp
 0002:00005a69       $N00002                    000000018001ba69     zlibwapi.exp
 0002:00005a72       $N00039                    000000018001ba72     zlibwapi.exp
 0002:00005a7c       $N00046                    000000018001ba7c     zlibwapi.exp
 0002:00005a8a       $N00003                    000000018001ba8a     zlibwapi.exp
 0002:00005a90       $N00142                    000000018001ba90     zlibwapi.exp
 0002:00005a9e       $N00175                    000000018001ba9e     zlibwapi.exp
 0002:00005aa6       $N00004                    000000018001baa6     zlibwapi.exp
 0002:00005aae       $N00047                    000000018001baae     zlibwapi.exp
 0002:00005abb       $N00005                    000000018001babb     zlibwapi.exp
 0002:00005ac7       $N00006                    000000018001bac7     zlibwapi.exp
 0002:00005ad2       $N00173                    000000018001bad2     zlibwapi.exp
 0002:00005ae7       $N00007                    000000018001bae7     zlibwapi.exp
 0002:00005af5       $N00008                    000000018001baf5     zlibwapi.exp
 0002:00005b02       $N00009                    000000018001bb02     zlibwapi.exp
 0002:00005b10       $N00052                    000000018001bb10     zlibwapi.exp
 0002:00005b1f       $N00051                    000000018001bb1f     zlibwapi.exp
 0002:00005b2c       $N00010                    000000018001bb2c     zlibwapi.exp
 0002:00005b39       $N00164                    000000018001bb39     zlibwapi.exp
 0002:00005b4a       $N00011                    000000018001bb4a     zlibwapi.exp
 0002:00005b5f       $N00144                    000000018001bb5f     zlibwapi.exp
 0002:00005b70       $N00145                    000000018001bb70     zlibwapi.exp
 0002:00005b7c       $N00110                    000000018001bb7c     zlibwapi.exp
 0002:00005b90       $N00111                    000000018001bb90     zlibwapi.exp
 0002:00005ba6       $N00112                    000000018001bba6     zlibwapi.exp
 0002:00005bbd       $N00113                    000000018001bbbd     zlibwapi.exp
 0002:00005bd4       $N00038                    000000018001bbd4     zlibwapi.exp
 0002:00005be2       $N00146                    000000018001bbe2     zlibwapi.exp
 0002:00005beb       $N00048                    000000018001bbeb     zlibwapi.exp
 0002:00005bf6       $N00012                    000000018001bbf6     zlibwapi.exp
 0002:00005bfe       $N00147                    000000018001bbfe     zlibwapi.exp
 0002:00005c08       $N00148                    000000018001bc08     zlibwapi.exp
 0002:00005c12       $N00149                    000000018001bc12     zlibwapi.exp
 0002:00005c1b       $N00013                    000000018001bc1b     zlibwapi.exp
 0002:00005c23       $N00034                    000000018001bc23     zlibwapi.exp
 0002:00005c29       $N00014                    000000018001bc29     zlibwapi.exp
 0002:00005c31       $N00015                    000000018001bc31     zlibwapi.exp
 0002:00005c39       $N00171                    000000018001bc39     zlibwapi.exp
 0002:00005c41       $N00172                    000000018001bc41     zlibwapi.exp
 0002:00005c4a       $N00030                    000000018001bc4a     zlibwapi.exp
 0002:00005c51       $N00161                    000000018001bc51     zlibwapi.exp
 0002:00005c59       $N00041                    000000018001bc59     zlibwapi.exp
 0002:00005c60       $N00150                    000000018001bc60     zlibwapi.exp
 0002:00005c69       $N00016                    000000018001bc69     zlibwapi.exp
 0002:00005c70       $N00165                    000000018001bc70     zlibwapi.exp
 0002:00005c79       $N00028                    000000018001bc79     zlibwapi.exp
 0002:00005c82       $N00029                    000000018001bc82     zlibwapi.exp
 0002:00005c89       $N00040                    000000018001bc89     zlibwapi.exp
 0002:00005c90       $N00017                    000000018001bc90     zlibwapi.exp
 0002:00005c97       $N00032                    000000018001bc97     zlibwapi.exp
 0002:00005ca0       $N00031                    000000018001bca0     zlibwapi.exp
 0002:00005ca7       $N00035                    000000018001bca7     zlibwapi.exp
 0002:00005cb3       $N00033                    000000018001bcb3     zlibwapi.exp
 0002:00005cba       $N00049                    000000018001bcba     zlibwapi.exp
 0002:00005cc3       $N00167                    000000018001bcc3     zlibwapi.exp
 0002:00005ccd       $N00018                    000000018001bccd     zlibwapi.exp
 0002:00005cd5       $N00019                    000000018001bcd5     zlibwapi.exp
 0002:00005cdd       $N00044                    000000018001bcdd     zlibwapi.exp
 0002:00005ce9       $N00045                    000000018001bce9     zlibwapi.exp
 0002:00005cf8       $N00043                    000000018001bcf8     zlibwapi.exp
 0002:00005d09       $N00168                    000000018001bd09     zlibwapi.exp
 0002:00005d1a       $N00042                    000000018001bd1a     zlibwapi.exp
 0002:00005d26       $N00020                    000000018001bd26     zlibwapi.exp
 0002:00005d31       $N00166                    000000018001bd31     zlibwapi.exp
 0002:00005d46       $N00156                    000000018001bd46     zlibwapi.exp
 0002:00005d57       $N00021                    000000018001bd57     zlibwapi.exp
 0002:00005d65       $N00022                    000000018001bd65     zlibwapi.exp
 0002:00005d72       $N00157                    000000018001bd72     zlibwapi.exp
 0002:00005d7e       $N00158                    000000018001bd7e     zlibwapi.exp
 0002:00005d8b       $N00023                    000000018001bd8b     zlibwapi.exp
 0002:00005d98       $N00159                    000000018001bd98     zlibwapi.exp
 0002:00005da6       $N00163                    000000018001bda6     zlibwapi.exp
 0002:00005db7       $N00024                    000000018001bdb7     zlibwapi.exp
 0002:00005dcc       $N00025                    000000018001bdcc     zlibwapi.exp
 0002:00005dd8       $N00037                    000000018001bdd8     zlibwapi.exp
 0002:00005de9       $N00160                    000000018001bde9     zlibwapi.exp
 0002:00005dfa       $N00169                    000000018001bdfa     zlibwapi.exp
 0002:00005e0a       $N00026                    000000018001be0a     zlibwapi.exp
 0002:00005e15       $N00170                    000000018001be15     zlibwapi.exp
 0002:00005e21       $N00062                    000000018001be21     zlibwapi.exp
 0002:00005e2a       $N00072                    000000018001be2a     zlibwapi.exp
 0002:00005e3e       $N00064                    000000018001be3e     zlibwapi.exp
 0002:00005e54       $N00124                    000000018001be54     zlibwapi.exp
 0002:00005e6c       $N00125                    000000018001be6c     zlibwapi.exp
 0002:00005e8a       $N00100                    000000018001be8a     zlibwapi.exp
 0002:00005e98       $N00127                    000000018001be98     zlibwapi.exp
 0002:00005ea8       $N00073                    000000018001bea8     zlibwapi.exp
 0002:00005ebc       $N00063                    000000018001bebc     zlibwapi.exp
 0002:00005ecd       $N00122                    000000018001becd     zlibwapi.exp
 0002:00005ee0       $N00076                    000000018001bee0     zlibwapi.exp
 0002:00005ef6       $N00101                    000000018001bef6     zlibwapi.exp
 0002:00005f05       $N00128                    000000018001bf05     zlibwapi.exp
 0002:00005f16       $N00065                    000000018001bf16     zlibwapi.exp
 0002:00005f27       $N00066                    000000018001bf27     zlibwapi.exp
 0002:00005f37       $N00075                    000000018001bf37     zlibwapi.exp
 0002:00005f45       $N00061                    000000018001bf45     zlibwapi.exp
 0002:00005f4d       $N00077                    000000018001bf4d     zlibwapi.exp
 0002:00005f56       $N00121                    000000018001bf56     zlibwapi.exp
 0002:00005f62       $N00120                    000000018001bf62     zlibwapi.exp
 0002:00005f6c       $N00067                    000000018001bf6c     zlibwapi.exp
 0002:00005f7f       $N00078                    000000018001bf7f     zlibwapi.exp
 0002:00005f93       $N00069                    000000018001bf93     zlibwapi.exp
 0002:00005fa7       $N00079                    000000018001bfa7     zlibwapi.exp
 0002:00005fc2       $N00068                    000000018001bfc2     zlibwapi.exp
 0002:00005fd5       $N00074                    000000018001bfd5     zlibwapi.exp
 0002:00005fee       $N00071                    000000018001bfee     zlibwapi.exp
 0002:00005ff5       $N00070                    000000018001bff5     zlibwapi.exp
 0002:00005ffd       $N00126                    000000018001bffd     zlibwapi.exp
 0002:00006007       $N00036                    000000018001c007     zlibwapi.exp
 0002:0000600e       $N00084                    000000018001c00e     zlibwapi.exp
 0002:00006017       $N00083                    000000018001c017     zlibwapi.exp
 0002:00006029       $N00087                    000000018001c029     zlibwapi.exp
 0002:0000603e       $N00136                    000000018001c03e     zlibwapi.exp
 0002:00006055       $N00080                    000000018001c055     zlibwapi.exp
 0002:0000605d       $N00088                    000000018001c05d     zlibwapi.exp
 0002:00006066       $N00131                    000000018001c066     zlibwapi.exp
 0002:00006072       $N00130                    000000018001c072     zlibwapi.exp
 0002:0000607c       $N00081                    000000018001c07c     zlibwapi.exp
 0002:00006090       $N00086                    000000018001c090     zlibwapi.exp
 0002:000060a5       $N00133                    000000018001c0a5     zlibwapi.exp
 0002:000060bd       $N00089                    000000018001c0bd     zlibwapi.exp
 0002:000060d2       $N00134                    000000018001c0d2     zlibwapi.exp
 0002:000060ea       $N00135                    000000018001c0ea     zlibwapi.exp
 0002:00006102       $N00132                    000000018001c102     zlibwapi.exp
 0002:00006118       $N00082                    000000018001c118     zlibwapi.exp
 0002:0000612c       $N00050                    000000018001c12c     zlibwapi.exp
 0002:0000613d       $N00027                    000000018001c13d     zlibwapi.exp
 0002:000064a4       .idata$6                   000000018001c4a4     kernel32:KERNEL32.dll
 0002:0000651e       .idata$6                   000000018001c51e     vcruntime:VCRUNTIME140.dll
 0002:0000671a       .idata$6                   000000018001c71a     ucrt:api-ms-win-crt-stdio-l1-1-0.dll
 0002:0000673a       .idata$6                   000000018001c73a     ucrt:api-ms-win-crt-convert-l1-1-0.dll
 0002:0000675c       .idata$6                   000000018001c75c     ucrt:api-ms-win-crt-heap-l1-1-0.dll
 0002:0000677c       .idata$6                   000000018001c77c     ucrt:api-ms-win-crt-runtime-l1-1-0.dll
 0002:0000679e       .idata$6                   000000018001c79e     ucrt:api-ms-win-crt-utility-l1-1-0.dll
 0002:000067c0       .idata$6                   000000018001c7c0     ucrt:api-ms-win-crt-time-l1-1-0.dll
 0002:000068de       .idata$6                   000000018001c8de     ucrt:api-ms-win-crt-string-l1-1-0.dll
 0003:00000020       ?__proc_attached@@3HA      000000018001d020     MSVCRT:dll_dllmain.obj
 0003:00000054       ?is_initialized_as_dll@@3_NA 000000018001d054     MSVCRT:utility.obj
 0003:00000060       ?module_local_atexit_table@@3U_onexit_table_t@@A 000000018001d060     MSVCRT:utility.obj
 0003:00000078       ?module_local_at_quick_exit_table@@3U_onexit_table_t@@A 000000018001d078     MSVCRT:utility.obj
 0003:00000090       ?module_local_atexit_table_initialized@@3_NA 000000018001d090     MSVCRT:utility.obj
 0003:000000a0       ?calls@?1??crypthead@@9@9  000000018001d0a0     zip.obj
 0005:00000060       $R000000                   000000018001f060     zlib.res
